 GraphicData

 Timestamp is 5003ceea (Mon Jul 16 16:20:58 2012)

 Preferred load address is 10000000

 Start         Length     Name                   Class
 0001:00000000 0002a720H .text                   CODE
 0001:0002a720 0000145bH .text$x                 CODE
 0002:00000000 00000144H .idata$5                DATA
 0002:00000148 00000230H .rdata                  DATA
 0002:00000378 000013a8H .xdata$x                DATA
 0002:00001720 0000008cH .idata$2                DATA
 0002:000017ac 00000014H .idata$3                DATA
 0002:000017c0 00000144H .idata$4                DATA
 0002:00001904 000008feH .idata$6                DATA
 0002:00002210 00000070H .edata                  DATA
 0003:00000000 00000004H .CRT$XCA                DATA
 0003:00000004 00000004H .CRT$XCZ                DATA
 0003:00000008 00000004H .CRT$XIA                DATA
 0003:0000000c 00000004H .CRT$XIZ                DATA
 0003:00000010 00000f20H .data                   DATA
 0003:00000f30 000021c8H .bss                    DATA

  Address         Publics by Value              Rva+Base     Lib:Object

 0001:00000000       _GameDataSetQuery          10001000 f   GameDataSet.obj
 0001:00000030       _GameDataSetDestroy        10001030 f   GameDataSet.obj
 0001:00000060       ??0CGameDataSetX@@QAE@XZ   10001060 f   GameDataSet.obj
 0001:000005e0       ??1?$map@IPAUC3DSimpleObjInfo@@U?$less@I@std@@V?$allocator@PAUC3DSimpleObjInfo@@@3@@std@@QAE@XZ 100015e0 f i GameDataSet.obj
 0001:000006d0       ??1?$map@IUC3DSimpleObjInfoEx@@U?$less@I@std@@V?$allocator@UC3DSimpleObjInfoEx@@@3@@std@@QAE@XZ 100016d0 f i GameDataSet.obj
 0001:000007c0       ??1?$map@V?$basic_string@DU?$char_traits@D@std@@V?$allocator@D@2@@std@@PAUCMy3DEffectInfo@@U?$less@V?$basic_string@DU?$char_traits@D@std@@V?$allocator@D@2@@std@@@2@V?$allocator@PAUCMy3DEffectInfo@@@2@@std@@QAE@XZ 100017c0 f i GameDataSet.obj
 0001:000008c0       ??1?$map@V?$basic_string@DU?$char_traits@D@std@@V?$allocator@D@2@@std@@HU?$less@V?$basic_string@DU?$char_traits@D@std@@V?$allocator@D@2@@std@@@2@V?$allocator@H@2@@std@@QAE@XZ 100018c0 f i GameDataSet.obj
 0001:000009c0       ??1?$map@V?$basic_string@DU?$char_traits@D@std@@V?$allocator@D@2@@std@@UROLE_COMPONENT_INFO@CGameDataSetX@@U?$less@V?$basic_string@DU?$char_traits@D@std@@V?$allocator@D@2@@std@@@2@V?$allocator@UROLE_COMPONENT_INFO@CGameDataSetX@@@2@@std@@QAE@XZ 100019c0 f i GameDataSet.obj
 0001:00000ac0       ??1?$map@V?$basic_string@DU?$char_traits@D@std@@V?$allocator@D@2@@std@@V?$map@IURolePartInfo@@U?$less@I@std@@V?$allocator@URolePartInfo@@@3@@2@U?$less@V?$basic_string@DU?$char_traits@D@std@@V?$allocator@D@2@@std@@@2@V?$allocator@V?$map@IURolePartInfo@@U?$less@I@std@@V?$allocator@URolePartInfo@@@3@@std@@@2@@std@@QAE@XZ 10001ac0 f i GameDataSet.obj
 0001:00000bc0       ??1?$map@V?$basic_string@DU?$char_traits@D@std@@V?$allocator@D@2@@std@@V?$map@_JPBDU?$less@_J@std@@V?$allocator@PBD@2@@2@U?$less@V?$basic_string@DU?$char_traits@D@std@@V?$allocator@D@2@@std@@@2@V?$allocator@V?$map@_JPBDU?$less@_J@std@@V?$allocator@PBD@2@@std@@@2@@std@@QAE@XZ 10001bc0 f i GameDataSet.obj
 0001:00000cc0       ??1?$set@V?$basic_string@DU?$char_traits@D@std@@V?$allocator@D@2@@std@@U?$less@V?$basic_string@DU?$char_traits@D@std@@V?$allocator@D@2@@std@@@2@V?$allocator@V?$basic_string@DU?$char_traits@D@std@@V?$allocator@D@2@@std@@@2@@std@@QAE@XZ 10001cc0 f i GameDataSet.obj
 0001:00000dc0       ??1?$map@KV?$map@KKU?$less@K@std@@V?$allocator@K@2@@std@@U?$less@K@2@V?$allocator@V?$map@KKU?$less@K@std@@V?$allocator@K@2@@std@@@2@@std@@QAE@XZ 10001dc0 f i GameDataSet.obj
 0001:00000ec0       ??1?$map@V?$basic_string@DU?$char_traits@D@std@@V?$allocator@D@2@@std@@V?$map@_JPAUC3DMotionInfo@@U?$less@_J@std@@V?$allocator@PAUC3DMotionInfo@@@3@@2@U?$less@V?$basic_string@DU?$char_traits@D@std@@V?$allocator@D@2@@std@@@2@V?$allocator@V?$map@_JPAUC3DMotionInfo@@U?$less@_J@std@@V?$allocator@PAUC3DMotionInfo@@@3@@std@@@2@@std@@QAE@XZ 10001ec0 f i GameDataSet.obj
 0001:00000fc0       ??1?$map@IPAUC3DObjInfo@@U?$less@I@std@@V?$allocator@PAUC3DObjInfo@@@3@@std@@QAE@XZ 10001fc0 f i GameDataSet.obj
 0001:000010b0       ??1?$map@IPAUC3DTextureInfo@@U?$less@I@std@@V?$allocator@PAUC3DTextureInfo@@@3@@std@@QAE@XZ 100020b0 f i GameDataSet.obj
 0001:000011a0       ??1?$map@IPAUC3DEffectInfo@@U?$less@I@std@@V?$allocator@PAUC3DEffectInfo@@@3@@std@@QAE@XZ 100021a0 f i GameDataSet.obj
 0001:00001290       ??1?$map@IPAUC3DSceneRef@@U?$less@I@std@@V?$allocator@PAUC3DSceneRef@@@3@@std@@QAE@XZ 10002290 f i GameDataSet.obj
 0001:00001380       ??1?$map@IPAUCAniRef@@U?$less@I@std@@V?$allocator@PAUCAniRef@@@3@@std@@QAE@XZ 10002380 f i GameDataSet.obj
 0001:00001470       ??1?$map@_JPBDU?$less@_J@std@@V?$allocator@PBD@2@@std@@QAE@XZ 10002470 f i GameDataSet.obj
 0001:00001560       ??1?$map@V?$basic_string@DU?$char_traits@D@std@@V?$allocator@D@2@@std@@URES_RECORD@@U?$less@V?$basic_string@DU?$char_traits@D@std@@V?$allocator@D@2@@std@@@2@V?$allocator@URES_RECORD@@@2@@std@@QAE@XZ 10002560 f i GameDataSet.obj
 0001:00001660       ??1?$map@PAXPBDU?$less@PAX@std@@V?$allocator@PBD@2@@std@@QAE@XZ 10002660 f i GameDataSet.obj
 0001:00001750       ??1?$map@V?$basic_string@DU?$char_traits@D@std@@V?$allocator@D@2@@std@@PAV?$map@_JKU?$less@_J@std@@V?$allocator@K@2@@2@U?$less@V?$basic_string@DU?$char_traits@D@std@@V?$allocator@D@2@@std@@@2@V?$allocator@PAV?$map@_JKU?$less@_J@std@@V?$allocator@K@2@@std@@@2@@std@@QAE@XZ 10002750 f i GameDataSet.obj
 0001:00001850       ??1?$map@IUDETAIL_INFO@CGameDataSetX@@U?$less@I@std@@V?$allocator@UDETAIL_INFO@CGameDataSetX@@@4@@std@@QAE@XZ 10002850 f i GameDataSet.obj
 0001:00001940       ??1?$map@HUC3_RES_LOD_DESC@CGameDataSetX@@U?$less@H@std@@V?$allocator@UC3_RES_LOD_DESC@CGameDataSetX@@@4@@std@@QAE@XZ 10002940 f i GameDataSet.obj
 0001:00001a40       ??1CGameDataSetX@@QAE@XZ   10002a40 f   GameDataSet.obj
 0001:00002040       ?Init@CGameDataSetX@@UAE_NPBD@Z 10003040 f   GameDataSet.obj
 0001:00002220       ?PrepareBeforeInit@CGameDataSetX@@UAE_NPBDK@Z 10003220 f   GameDataSet.obj
 0001:00002230       ?Reload@CGameDataSetX@@UAE_N_NK@Z 10003230 f   GameDataSet.obj
 0001:00002570       ?ReloadGameEffectResource@CGameDataSetX@@UAE_NPBD@Z 10003570 f   GameDataSet.obj
 0001:00002690       ?ReloadAniResource@CGameDataSetX@@UAE_NAAUC3_ANI_RESOURCE_DESC@CGameDataSet@@@Z 10003690 f   GameDataSet.obj
 0001:00002790       ?Reload3DSimpleObjResource@CGameDataSetX@@UAE_NI@Z 10003790 f   GameDataSet.obj
 0001:000029b0       ?Reload3DTextureResource@CGameDataSetX@@UAE_NI@Z 100039b0 f   GameDataSet.obj
 0001:00002a40       ?ReloadRolePartResource@CGameDataSetX@@UAE_NAAUC3_ROLEPART_RESOURCE_DESC@CGameDataSet@@@Z 10003a40 f   GameDataSet.obj
 0001:00002b50       ?ReloadRoleMotionResource@CGameDataSetX@@UAE_NAAUC3_ROLE_MOTION_RESOURCE_DESC@CGameDataSet@@@Z 10003b50 f   GameDataSet.obj
 0001:00002c70       ?Reload3DSceneResource@CGameDataSetX@@UAE_NI@Z 10003c70 f   GameDataSet.obj
 0001:00002d00       ?SetResourceLifeCheckPeriod@CGameDataSetX@@UAEXK@Z 10003d00 f   GameDataSet.obj
 0001:00002d10       ?Destroy@CGameDataSetX@@UAEXXZ 10003d10 f   GameDataSet.obj
 0001:00002fc0       ?Process@CGameDataSetX@@UAEXXZ 10003fc0 f   GameDataSet.obj
 0001:00003080       ?ProcessFeedLoadRequestToDataThread@CGameDataSetX@@AAEX_N@Z 10004080 f   GameDataSet.obj
 0001:000034b0       ?ProcessQueuedReadingCompletionStatus@CGameDataSetX@@AAEX_N@Z 100044b0 f   GameDataSet.obj
 0001:00003510       ?GetDataThreadObjResult@CGameDataSetX@@AAEXPAVCDataThreadObj@@@Z 10004510 f   GameDataSet.obj
 0001:00003b30       ?GetDataAni@CGameDataSetX@@UAEPAVCAni@@PBD0KK@Z 10004b30 f   GameDataSet.obj
 0001:00003f40       ?Destroy3DSimpleObjInfo@CGameDataSetX@@AAEXXZ 10004f40 f   GameDataSet.obj
 0001:00004040       ?DestroyMy3DEffectInfo@CGameDataSetX@@AAEXXZ 10005040 f   GameDataSet.obj
 0001:00004150       ?DestroyAll3DObjInstance@CGameDataSetX@@AAEXXZ 10005150 f   GameDataSet.obj
 0001:00004260       ?Destroy3DMotionInstance@CGameDataSetX@@AAEXAAV?$map@_JPAUC3DMotionInfo@@U?$less@_J@std@@V?$allocator@PAUC3DMotionInfo@@@3@@std@@@Z 10005260 f   GameDataSet.obj
 0001:00004360       ?DestroyAll3DMotionInstance@CGameDataSetX@@AAEXXZ 10005360 f   GameDataSet.obj
 0001:00004470       ?DestroyAll3DTextureInstance@CGameDataSetX@@AAEXXZ 10005470 f   GameDataSet.obj
 0001:00004580       ?DestroyAll3DEffectInstance@CGameDataSetX@@AAEXXZ 10005580 f   GameDataSet.obj
 0001:00004690       ?DestroyAll3DSceneInstance@CGameDataSetX@@AAEXXZ 10005690 f   GameDataSet.obj
 0001:000047a0       ?DestroyAllDataAniInstance@CGameDataSetX@@AAEXXZ 100057a0 f   GameDataSet.obj
 0001:000048b0       ?GetDefault3DObjResMap@CGameDataSetX@@QAEPAV?$map@_JPBDU?$less@_J@std@@V?$allocator@PBD@2@@std@@XZ 100058b0 f   GameDataSet.obj
 0001:000048c0       ?GetDefault3DEffectObjResMap@CGameDataSetX@@QAEPAV?$map@_JPBDU?$less@_J@std@@V?$allocator@PBD@2@@std@@XZ 100058c0 f   GameDataSet.obj
 0001:000048d0       ?GetDefaultTextureObjResMap@CGameDataSetX@@QAEPAV?$map@_JPBDU?$less@_J@std@@V?$allocator@PBD@2@@std@@XZ 100058d0 f   GameDataSet.obj
 0001:000048e0       ?GetCurrent3DObjResMap@CGameDataSetX@@QAEPAV?$map@_JPBDU?$less@_J@std@@V?$allocator@PBD@2@@std@@XZ 100058e0 f   GameDataSet.obj
 0001:000048f0       ?GetCurrent3DEffectObjResMap@CGameDataSetX@@QAEPAV?$map@_JPBDU?$less@_J@std@@V?$allocator@PBD@2@@std@@XZ 100058f0 f   GameDataSet.obj
 0001:00004900       ?GetCurrent3DTextureObjResMap@CGameDataSetX@@QAEPAV?$map@_JPBDU?$less@_J@std@@V?$allocator@PBD@2@@std@@XZ 10005900 f   GameDataSet.obj
 0001:00004910       ?GetCurrentRolePartInfoMap@CGameDataSetX@@QAEAAV?$map@V?$basic_string@DU?$char_traits@D@std@@V?$allocator@D@2@@std@@UROLE_COMPONENT_INFO@CGameDataSetX@@U?$less@V?$basic_string@DU?$char_traits@D@std@@V?$allocator@D@2@@std@@@2@V?$allocator@UROLE_COMPONENT_INFO@CGameDataSetX@@@2@@std@@XZ 10005910 f   GameDataSet.obj
 0001:00004920       ?Get3DObj@CGameDataSetX@@UAEPAVC3DObj@@IKK@Z 10005920 f   GameDataSet.obj
 0001:00004c10       ?CreateNew3DObj@CGameDataSetX@@QAEPAVC3DObj@@IPAPAVC3DMotion@@_N1@Z 10005c10 f   GameDataSet.obj
 0001:00005240       ?CreateNew3DScene@CGameDataSetX@@QAEPAVC3DScene@@I@Z 10006240 f   GameDataSet.obj
 0001:00005570       ?CreateNewAni@CGameDataSetX@@QAEPAVCAni@@PBD0@Z 10006570 f   GameDataSet.obj
 0001:000055b0       ?Get3DObjInfo@CGameDataSetX@@UAEPBUC3DObjInfo@@I@Z 100065b0 f   GameDataSet.obj
 0001:00005640       ?Get3DMotion@CGameDataSetX@@UAEPAVC3DMotion@@PBD_JKK@Z 10006640 f   GameDataSet.obj
 0001:00005a60       ?Get3DTexture@CGameDataSetX@@UAEPAVC3DTexture@@IKK@Z 10006a60 f   GameDataSet.obj
 0001:00005d50       ?Get3DEffect@CGameDataSetX@@UAEPAVC3DEffect@@IKK@Z 10006d50 f   GameDataSet.obj
 0001:00006050       ?Get3DScene@CGameDataSetX@@UAEPAVC3DScene@@IKK@Z 10007050 f   GameDataSet.obj
 0001:00006350       ?CreateNew3DComponetMotion@CGameDataSetX@@QAEPAVC3DMotion@@_JPBD_N2@Z 10007350 f   GameDataSet.obj
 0001:00006570       ?CreateNew3DMotion@CGameDataSetX@@AAEPAVC3DMotion@@PBD_N111@Z 10007570 f   GameDataSet.obj
 0001:00006890       ?CreateNew3DTexture@CGameDataSetX@@QAEPAVC3DTexture@@I_N0@Z 10007890 f   GameDataSet.obj
 0001:00006cc0       ?CreateNew3DEffect@CGameDataSetX@@UAEPAVC3DEffect@@I_N0@Z 10007cc0 f   GameDataSet.obj
 0001:000070c0       ?ProcessDataAni@CGameDataSetX@@AAEXXZ 100080c0 f   GameDataSet.obj
 0001:000071e0       ?Process3DObjSet@CGameDataSetX@@AAEXXZ 100081e0 f   GameDataSet.obj
 0001:00007310       ?Process3DMotionSet@CGameDataSetX@@AAEXAAV?$map@_JPAUC3DMotionInfo@@U?$less@_J@std@@V?$allocator@PAUC3DMotionInfo@@@3@@std@@@Z 10008310 f   GameDataSet.obj
 0001:00007430       ?Process3DMotionSet@CGameDataSetX@@AAEXXZ 10008430 f   GameDataSet.obj
 0001:00007490       ?Process3DTextureSet@CGameDataSetX@@AAEXXZ 10008490 f   GameDataSet.obj
 0001:000075c0       ?Process3DEffectSet@CGameDataSetX@@AAEXXZ 100085c0 f   GameDataSet.obj
 0001:000076f0       ?Process3DSceneSet@CGameDataSetX@@AAEXXZ 100086f0 f   GameDataSet.obj
 0001:00007820       ?Get3DTextureID@CGameDataSetX@@UAEIPAVC3DTexture@@@Z 10008820 f   GameDataSet.obj
 0001:00007830       ?QueryInterface@CGameDataSetX@@UAEPAXH@Z 10008830 f   GameDataSet.obj
 0001:00007850       ?ReleaseMotionReference@CGameDataSetX@@QAE_NPAVC3DMotion@@H@Z 10008850 f   GameDataSet.obj
 0001:00007a30       ?ReleaseMeshReference@CGameDataSetX@@QAE_NPAVC3DObj@@@Z 10008a30 f   GameDataSet.obj
 0001:00007bf0       ?ReleaseEffectReference@CGameDataSetX@@QAE_NPAVC3DEffect@@@Z 10008bf0 f   GameDataSet.obj
 0001:00007da0       ?ReleaseTextureReference@CGameDataSetX@@QAE_NPAVC3DTexture@@@Z 10008da0 f   GameDataSet.obj
 0001:00007f50       ?Release3DSceneReference@CGameDataSetX@@QAE_NPAVC3DScene@@@Z 10008f50 f   GameDataSet.obj
 0001:00008100       ?ReleaseAni@CGameDataSetX@@QAE_NPAVCAni@@@Z 10009100 f   GameDataSet.obj
 0001:00008120       ??1C3DObjInfo@@QAE@XZ      10009120 f   GameDataSet.obj
 0001:00008140       ??1C3DMotionInfo@@QAE@XZ   10009140 f   GameDataSet.obj
 0001:00008160       ??1C3DTextureInfo@@QAE@XZ  10009160 f   GameDataSet.obj
 0001:00008180       ??1C3DEffectInfo@@QAE@XZ   10009180 f   GameDataSet.obj
 0001:000081a0       ??1C3DSceneRef@@QAE@XZ     100091a0 f   GameDataSet.obj
 0001:000081c0       ??1CAniRef@@QAE@XZ         100091c0 f   GameDataSet.obj
 0001:000081e0       ?ImmediateExigence@CGameDataSetX@@UAEXK@Z 100091e0 f   GameDataSet.obj
 0001:00008230       ?ProcessImmediateExigence@CGameDataSetX@@AAEXXZ 10009230 f   GameDataSet.obj
 0001:00008260       ?OnThreadExit@CGameDataSetX@@UAEXXZ 10009260 f   GameDataSet.obj
 0001:00008270       ?Load@CDataThreadObj@@UAEXXZ 10009270 f   GameDataSet.obj
 0001:000083c0       ?OnResetDevice@CGameDataSetX@@UAEXXZ 100093c0 f   GameDataSet.obj
 0001:00008460       ?IsInitSuccessfully@CGameDataSetX@@UAE_NXZ 10009460 f   GameDataSet.obj
 0001:00008480       ??1CMyCs@@QAE@XZ           10009480 f i GameDataSet.obj
 0001:00008490       ??1CMyLock@@QAE@XZ         10009490 f i GameDataSet.obj
 0001:000084a0       ?GetStr@CGameDataSetX@@UBEPBDI@Z 100094a0 f i GameDataSet.obj
 0001:000084c0       ?SetStr@CGameDataSetX@@UAEXIPBD@Z 100094c0 f i GameDataSet.obj
 0001:000084e0       ??1CDataThreadObj@@QAE@XZ  100094e0 f i GameDataSet.obj
 0001:00008580       ?GetExigence@CDataThreadObj@@UAEKXZ 10009580 f i GameDataSet.obj
 0001:00008590       ?DataThreadRelease@CDataThreadObj@@UAEXXZ 10009590 f i GameDataSet.obj
 0001:000085b0       ?GetID@CDataThreadObj@@UAE_JXZ 100095b0 f i GameDataSet.obj
 0001:000085c0       ??1?$_Tree@V?$basic_string@DU?$char_traits@D@std@@V?$allocator@D@2@@std@@U?$pair@$$CBV?$basic_string@DU?$char_traits@D@std@@V?$allocator@D@2@@std@@V?$map@_JPBDU?$less@_J@std@@V?$allocator@PBD@2@@2@@2@U_Kfn@?$map@V?$basic_string@DU?$char_traits@D@std@@V?$allocator@D@2@@std@@V?$map@_JPBDU?$less@_J@std@@V?$allocator@PBD@2@@2@U?$less@V?$basic_string@DU?$char_traits@D@std@@V?$allocator@D@2@@std@@@2@V?$allocator@V?$map@_JPBDU?$less@_J@std@@V?$allocator@PBD@2@@std@@@2@@2@U?$less@V?$basic_string@DU?$char_traits@D@std@@V?$allocator@D@2@@std@@@2@V?$allocator@V?$map@_JPBDU?$less@_J@std@@V?$allocator@PBD@2@@std@@@2@@std@@QAE@XZ 100095c0 f i GameDataSet.obj
 0001:000086b0       ??1?$_Tree@_JU?$pair@$$CB_JPBD@std@@U_Kfn@?$map@_JPBDU?$less@_J@std@@V?$allocator@PBD@2@@2@U?$less@_J@2@V?$allocator@PBD@2@@std@@QAE@XZ 100096b0 f i GameDataSet.obj
 0001:00008790       ??1?$vector@V?$basic_string@DU?$char_traits@D@std@@V?$allocator@D@2@@std@@V?$allocator@V?$basic_string@DU?$char_traits@D@std@@V?$allocator@D@2@@std@@@2@@std@@QAE@XZ 10009790 f i GameDataSet.obj
 0001:000087f0       ??1?$_Tree@V?$basic_string@DU?$char_traits@D@std@@V?$allocator@D@2@@std@@V12@U_Kfn@?$set@V?$basic_string@DU?$char_traits@D@std@@V?$allocator@D@2@@std@@U?$less@V?$basic_string@DU?$char_traits@D@std@@V?$allocator@D@2@@std@@@2@V?$allocator@V?$basic_string@DU?$char_traits@D@std@@V?$allocator@D@2@@std@@@2@@2@U?$less@V?$basic_string@DU?$char_traits@D@std@@V?$allocator@D@2@@std@@@2@V?$allocator@V?$basic_string@DU?$char_traits@D@std@@V?$allocator@D@2@@std@@@2@@std@@QAE@XZ 100097f0 f i GameDataSet.obj
 0001:000088e0       ??1?$_Tree@KU?$pair@$$CBKV?$map@KKU?$less@K@std@@V?$allocator@K@2@@std@@@std@@U_Kfn@?$map@KV?$map@KKU?$less@K@std@@V?$allocator@K@2@@std@@U?$less@K@2@V?$allocator@V?$map@KKU?$less@K@std@@V?$allocator@K@2@@std@@@2@@2@U?$less@K@2@V?$allocator@V?$map@KKU?$less@K@std@@V?$allocator@K@2@@std@@@2@@std@@QAE@XZ 100098e0 f i GameDataSet.obj
 0001:000089d0       ??1?$_Tree@V?$basic_string@DU?$char_traits@D@std@@V?$allocator@D@2@@std@@U?$pair@$$CBV?$basic_string@DU?$char_traits@D@std@@V?$allocator@D@2@@std@@V?$map@_JPAUC3DMotionInfo@@U?$less@_J@std@@V?$allocator@PAUC3DMotionInfo@@@3@@2@@2@U_Kfn@?$map@V?$basic_string@DU?$char_traits@D@std@@V?$allocator@D@2@@std@@V?$map@_JPAUC3DMotionInfo@@U?$less@_J@std@@V?$allocator@PAUC3DMotionInfo@@@3@@2@U?$less@V?$basic_string@DU?$char_traits@D@std@@V?$allocator@D@2@@std@@@2@V?$allocator@V?$map@_JPAUC3DMotionInfo@@U?$less@_J@std@@V?$allocator@PAUC3DMotionInfo@@@3@@std@@@2@@2@U?$less@V?$basic_string@DU?$char_traits@D@std@@V?$allocator@D@2@@std@@@2@V?$allocator@V?$map@_JPAUC3DMotionInfo@@U?$less@_J@std@@V?$allocator@PAUC3DMotionInfo@@@3@@std@@@2@@std@@QAE@XZ 100099d0 f i GameDataSet.obj
 0001:00008ac0       ??1?$_Tree@IU?$pair@$$CBIPAUC3DObjInfo@@@std@@U_Kfn@?$map@IPAUC3DObjInfo@@U?$less@I@std@@V?$allocator@PAUC3DObjInfo@@@3@@2@U?$less@I@2@V?$allocator@PAUC3DObjInfo@@@2@@std@@QAE@XZ 10009ac0 f i GameDataSet.obj
 0001:00008ba0       ??1?$_Tree@IU?$pair@$$CBIPAUC3DTextureInfo@@@std@@U_Kfn@?$map@IPAUC3DTextureInfo@@U?$less@I@std@@V?$allocator@PAUC3DTextureInfo@@@3@@2@U?$less@I@2@V?$allocator@PAUC3DTextureInfo@@@2@@std@@QAE@XZ 10009ba0 f i GameDataSet.obj
 0001:00008c80       ??1?$_Tree@IU?$pair@$$CBIPAUC3DEffectInfo@@@std@@U_Kfn@?$map@IPAUC3DEffectInfo@@U?$less@I@std@@V?$allocator@PAUC3DEffectInfo@@@3@@2@U?$less@I@2@V?$allocator@PAUC3DEffectInfo@@@2@@std@@QAE@XZ 10009c80 f i GameDataSet.obj
 0001:00008d60       ??1?$_Tree@IU?$pair@$$CBIPAUC3DSceneRef@@@std@@U_Kfn@?$map@IPAUC3DSceneRef@@U?$less@I@std@@V?$allocator@PAUC3DSceneRef@@@3@@2@U?$less@I@2@V?$allocator@PAUC3DSceneRef@@@2@@std@@QAE@XZ 10009d60 f i GameDataSet.obj
 0001:00008e40       ??1?$_Tree@IU?$pair@$$CBIPAUCAniRef@@@std@@U_Kfn@?$map@IPAUCAniRef@@U?$less@I@std@@V?$allocator@PAUCAniRef@@@3@@2@U?$less@I@2@V?$allocator@PAUCAniRef@@@2@@std@@QAE@XZ 10009e40 f i GameDataSet.obj
 0001:00008f20       ??1?$_Tree@V?$basic_string@DU?$char_traits@D@std@@V?$allocator@D@2@@std@@U?$pair@$$CBV?$basic_string@DU?$char_traits@D@std@@V?$allocator@D@2@@std@@URES_RECORD@@@2@U_Kfn@?$map@V?$basic_string@DU?$char_traits@D@std@@V?$allocator@D@2@@std@@URES_RECORD@@U?$less@V?$basic_string@DU?$char_traits@D@std@@V?$allocator@D@2@@std@@@2@V?$allocator@URES_RECORD@@@2@@2@U?$less@V?$basic_string@DU?$char_traits@D@std@@V?$allocator@D@2@@std@@@2@V?$allocator@URES_RECORD@@@2@@std@@QAE@XZ 10009f20 f i GameDataSet.obj
 0001:00009010       ??1?$_Tree@PAXU?$pair@QAXPBD@std@@U_Kfn@?$map@PAXPBDU?$less@PAX@std@@V?$allocator@PBD@2@@2@U?$less@PAX@2@V?$allocator@PBD@2@@std@@QAE@XZ 1000a010 f i GameDataSet.obj
 0001:000090f0       ??1?$deque@PAVCDataThreadObj@@V?$allocator@PAVCDataThreadObj@@@std@@@std@@QAE@XZ 1000a0f0 f i GameDataSet.obj
 0001:000091a0       ??Eiterator@?$deque@PAVCDataThreadObj@@V?$allocator@PAVCDataThreadObj@@@std@@@std@@QAEAAV012@XZ 1000a1a0 f i GameDataSet.obj
 0001:000091e0       ??1?$_Tree@V?$basic_string@DU?$char_traits@D@std@@V?$allocator@D@2@@std@@U?$pair@$$CBV?$basic_string@DU?$char_traits@D@std@@V?$allocator@D@2@@std@@PAV?$map@_JKU?$less@_J@std@@V?$allocator@K@2@@2@@2@U_Kfn@?$map@V?$basic_string@DU?$char_traits@D@std@@V?$allocator@D@2@@std@@PAV?$map@_JKU?$less@_J@std@@V?$allocator@K@2@@2@U?$less@V?$basic_string@DU?$char_traits@D@std@@V?$allocator@D@2@@std@@@2@V?$allocator@PAV?$map@_JKU?$less@_J@std@@V?$allocator@K@2@@std@@@2@@2@U?$less@V?$basic_string@DU?$char_traits@D@std@@V?$allocator@D@2@@std@@@2@V?$allocator@PAV?$map@_JKU?$less@_J@std@@V?$allocator@K@2@@std@@@2@@std@@QAE@XZ 1000a1e0 f i GameDataSet.obj
 0001:000092d0       ??1?$_Tree@IU?$pair@$$CBIUDETAIL_INFO@CGameDataSetX@@@std@@U_Kfn@?$map@IUDETAIL_INFO@CGameDataSetX@@U?$less@I@std@@V?$allocator@UDETAIL_INFO@CGameDataSetX@@@4@@2@U?$less@I@2@V?$allocator@UDETAIL_INFO@CGameDataSetX@@@2@@std@@QAE@XZ 1000a2d0 f i GameDataSet.obj
 0001:000093b0       ??1?$_Tree@HU?$pair@$$CBHUC3_RES_LOD_DESC@CGameDataSetX@@@std@@U_Kfn@?$map@HUC3_RES_LOD_DESC@CGameDataSetX@@U?$less@H@std@@V?$allocator@UC3_RES_LOD_DESC@CGameDataSetX@@@4@@2@U?$less@H@2@V?$allocator@UC3_RES_LOD_DESC@CGameDataSetX@@@2@@std@@QAE@XZ 1000a3b0 f i GameDataSet.obj
 0001:000094a0       ??1?$vector@UD3DMATERIAL@@V?$allocator@UD3DMATERIAL@@@std@@@std@@QAE@XZ 1000a4a0 f i GameDataSet.obj
 0001:000094a0       ??1?$vector@PAXV?$allocator@PAX@std@@@std@@QAE@XZ 1000a4a0 f i GameDataSet.obj
 0001:000094d0       ??1?$map@_JPAUC3DMotionInfo@@U?$less@_J@std@@V?$allocator@PAUC3DMotionInfo@@@3@@std@@QAE@XZ 1000a4d0 f i GameDataSet.obj
 0001:000095c0       ??1?$pair@$$CBV?$basic_string@DU?$char_traits@D@std@@V?$allocator@D@2@@std@@V?$map@_JPAUC3DMotionInfo@@U?$less@_J@std@@V?$allocator@PAUC3DMotionInfo@@@3@@2@@std@@QAE@XZ 1000a5c0 f i GameDataSet.obj
 0001:00009710       ??Eiterator@?$_Tree@_JU?$pair@$$CB_JPAUC3DMotionInfo@@@std@@U_Kfn@?$map@_JPAUC3DMotionInfo@@U?$less@_J@std@@V?$allocator@PAUC3DMotionInfo@@@3@@2@U?$less@_J@2@V?$allocator@PAUC3DMotionInfo@@@2@@std@@QAE?AV012@H@Z 1000a710 f i GameDataSet.obj
 0001:00009770       ?erase@?$_Tree@IU?$pair@$$CBIPAUC3DSimpleObjInfo@@@std@@U_Kfn@?$map@IPAUC3DSimpleObjInfo@@U?$less@I@std@@V?$allocator@PAUC3DSimpleObjInfo@@@3@@2@U?$less@I@2@V?$allocator@PAUC3DSimpleObjInfo@@@2@@std@@QAE?AViterator@12@V312@0@Z 1000a770 f i GameDataSet.obj
 0001:00009840       ?_Inc@const_iterator@?$_Tree@IU?$pair@$$CBIPAUC3DSimpleObjInfo@@@std@@U_Kfn@?$map@IPAUC3DSimpleObjInfo@@U?$less@I@std@@V?$allocator@PAUC3DSimpleObjInfo@@@3@@2@U?$less@I@2@V?$allocator@PAUC3DSimpleObjInfo@@@2@@std@@QAEXXZ 1000a840 f i GameDataSet.obj
 0001:00009890       ?erase@?$_Tree@IU?$pair@$$CBIUC3DSimpleObjInfoEx@@@std@@U_Kfn@?$map@IUC3DSimpleObjInfoEx@@U?$less@I@std@@V?$allocator@UC3DSimpleObjInfoEx@@@3@@2@U?$less@I@2@V?$allocator@UC3DSimpleObjInfoEx@@@2@@std@@QAE?AViterator@12@V312@0@Z 1000a890 f i GameDataSet.obj
 0001:00009960       ?erase@?$_Tree@V?$basic_string@DU?$char_traits@D@std@@V?$allocator@D@2@@std@@U?$pair@$$CBV?$basic_string@DU?$char_traits@D@std@@V?$allocator@D@2@@std@@PAUCMy3DEffectInfo@@@2@U_Kfn@?$map@V?$basic_string@DU?$char_traits@D@std@@V?$allocator@D@2@@std@@PAUCMy3DEffectInfo@@U?$less@V?$basic_string@DU?$char_traits@D@std@@V?$allocator@D@2@@std@@@2@V?$allocator@PAUCMy3DEffectInfo@@@2@@2@U?$less@V?$basic_string@DU?$char_traits@D@std@@V?$allocator@D@2@@std@@@2@V?$allocator@PAUCMy3DEffectInfo@@@2@@std@@QAE?AViterator@12@V312@0@Z 1000a960 f i GameDataSet.obj
 0001:00009a40       ?_Inc@const_iterator@?$_Tree@V?$basic_string@DU?$char_traits@D@std@@V?$allocator@D@2@@std@@U?$pair@$$CBV?$basic_string@DU?$char_traits@D@std@@V?$allocator@D@2@@std@@PAUCMy3DEffectInfo@@@2@U_Kfn@?$map@V?$basic_string@DU?$char_traits@D@std@@V?$allocator@D@2@@std@@PAUCMy3DEffectInfo@@U?$less@V?$basic_string@DU?$char_traits@D@std@@V?$allocator@D@2@@std@@@2@V?$allocator@PAUCMy3DEffectInfo@@@2@@2@U?$less@V?$basic_string@DU?$char_traits@D@std@@V?$allocator@D@2@@std@@@2@V?$allocator@PAUCMy3DEffectInfo@@@2@@std@@QAEXXZ 1000aa40 f i GameDataSet.obj
 0001:00009a90       ?erase@?$_Tree@V?$basic_string@DU?$char_traits@D@std@@V?$allocator@D@2@@std@@U?$pair@$$CBV?$basic_string@DU?$char_traits@D@std@@V?$allocator@D@2@@std@@H@2@U_Kfn@?$map@V?$basic_string@DU?$char_traits@D@std@@V?$allocator@D@2@@std@@HU?$less@V?$basic_string@DU?$char_traits@D@std@@V?$allocator@D@2@@std@@@2@V?$allocator@H@2@@2@U?$less@V?$basic_string@DU?$char_traits@D@std@@V?$allocator@D@2@@std@@@2@V?$allocator@H@2@@std@@QAE?AViterator@12@V312@0@Z 1000aa90 f i GameDataSet.obj
 0001:00009b70       ??0?$_Tree@V?$basic_string@DU?$char_traits@D@std@@V?$allocator@D@2@@std@@U?$pair@$$CBV?$basic_string@DU?$char_traits@D@std@@V?$allocator@D@2@@std@@UROLE_COMPONENT_INFO@CGameDataSetX@@@2@U_Kfn@?$map@V?$basic_string@DU?$char_traits@D@std@@V?$allocator@D@2@@std@@UROLE_COMPONENT_INFO@CGameDataSetX@@U?$less@V?$basic_string@DU?$char_traits@D@std@@V?$allocator@D@2@@std@@@2@V?$allocator@UROLE_COMPONENT_INFO@CGameDataSetX@@@2@@2@U?$less@V?$basic_string@DU?$char_traits@D@std@@V?$allocator@D@2@@std@@@2@V?$allocator@UROLE_COMPONENT_INFO@CGameDataSetX@@@2@@std@@QAE@ABU?$less@V?$basic_string@DU?$char_traits@D@std@@V?$allocator@D@2@@std@@@1@_NABV?$allocator@UROLE_COMPONENT_INFO@CGameDataSetX@@@1@@Z 1000ab70 f i GameDataSet.obj
 0001:00009ba0       ?erase@?$_Tree@V?$basic_string@DU?$char_traits@D@std@@V?$allocator@D@2@@std@@U?$pair@$$CBV?$basic_string@DU?$char_traits@D@std@@V?$allocator@D@2@@std@@UROLE_COMPONENT_INFO@CGameDataSetX@@@2@U_Kfn@?$map@V?$basic_string@DU?$char_traits@D@std@@V?$allocator@D@2@@std@@UROLE_COMPONENT_INFO@CGameDataSetX@@U?$less@V?$basic_string@DU?$char_traits@D@std@@V?$allocator@D@2@@std@@@2@V?$allocator@UROLE_COMPONENT_INFO@CGameDataSetX@@@2@@2@U?$less@V?$basic_string@DU?$char_traits@D@std@@V?$allocator@D@2@@std@@@2@V?$allocator@UROLE_COMPONENT_INFO@CGameDataSetX@@@2@@std@@QAE?AViterator@12@V312@0@Z 1000aba0 f i GameDataSet.obj
 0001:00009c80       ?find@?$_Tree@V?$basic_string@DU?$char_traits@D@std@@V?$allocator@D@2@@std@@U?$pair@$$CBV?$basic_string@DU?$char_traits@D@std@@V?$allocator@D@2@@std@@UROLE_COMPONENT_INFO@CGameDataSetX@@@2@U_Kfn@?$map@V?$basic_string@DU?$char_traits@D@std@@V?$allocator@D@2@@std@@UROLE_COMPONENT_INFO@CGameDataSetX@@U?$less@V?$basic_string@DU?$char_traits@D@std@@V?$allocator@D@2@@std@@@2@V?$allocator@UROLE_COMPONENT_INFO@CGameDataSetX@@@2@@2@U?$less@V?$basic_string@DU?$char_traits@D@std@@V?$allocator@D@2@@std@@@2@V?$allocator@UROLE_COMPONENT_INFO@CGameDataSetX@@@2@@std@@QBE?AVconst_iterator@12@ABV?$basic_string@DU?$char_traits@D@std@@V?$allocator@D@2@@2@@Z 1000ac80 f i GameDataSet.obj
 0001:00009c80       ?find@?$_Tree@V?$basic_string@DU?$char_traits@D@std@@V?$allocator@D@2@@std@@U?$pair@$$CBV?$basic_string@DU?$char_traits@D@std@@V?$allocator@D@2@@std@@UROLE_COMPONENT_INFO@CGameDataSetX@@@2@U_Kfn@?$map@V?$basic_string@DU?$char_traits@D@std@@V?$allocator@D@2@@std@@UROLE_COMPONENT_INFO@CGameDataSetX@@U?$less@V?$basic_string@DU?$char_traits@D@std@@V?$allocator@D@2@@std@@@2@V?$allocator@UROLE_COMPONENT_INFO@CGameDataSetX@@@2@@2@U?$less@V?$basic_string@DU?$char_traits@D@std@@V?$allocator@D@2@@std@@@2@V?$allocator@UROLE_COMPONENT_INFO@CGameDataSetX@@@2@@std@@QAE?AViterator@12@ABV?$basic_string@DU?$char_traits@D@std@@V?$allocator@D@2@@2@@Z 1000ac80 f i GameDataSet.obj
 0001:00009d10       ??0?$_Tree@V?$basic_string@DU?$char_traits@D@std@@V?$allocator@D@2@@std@@U?$pair@$$CBV?$basic_string@DU?$char_traits@D@std@@V?$allocator@D@2@@std@@V?$map@IURolePartInfo@@U?$less@I@std@@V?$allocator@URolePartInfo@@@3@@2@@2@U_Kfn@?$map@V?$basic_string@DU?$char_traits@D@std@@V?$allocator@D@2@@std@@V?$map@IURolePartInfo@@U?$less@I@std@@V?$allocator@URolePartInfo@@@3@@2@U?$less@V?$basic_string@DU?$char_traits@D@std@@V?$allocator@D@2@@std@@@2@V?$allocator@V?$map@IURolePartInfo@@U?$less@I@std@@V?$allocator@URolePartInfo@@@3@@std@@@2@@2@U?$less@V?$basic_string@DU?$char_traits@D@std@@V?$allocator@D@2@@std@@@2@V?$allocator@V?$map@IURolePartInfo@@U?$less@I@std@@V?$allocator@URolePartInfo@@@3@@std@@@2@@std@@QAE@ABU?$less@V?$basic_string@DU?$char_traits@D@std@@V?$allocator@D@2@@std@@@1@_NABV?$allocator@V?$map@IURolePartInfo@@U?$less@I@std@@V?$allocator@URolePartInfo@@@3@@std@@@1@@Z 1000ad10 f i GameDataSet.obj
 0001:00009d40       ?erase@?$_Tree@V?$basic_string@DU?$char_traits@D@std@@V?$allocator@D@2@@std@@U?$pair@$$CBV?$basic_string@DU?$char_traits@D@std@@V?$allocator@D@2@@std@@V?$map@IURolePartInfo@@U?$less@I@std@@V?$allocator@URolePartInfo@@@3@@2@@2@U_Kfn@?$map@V?$basic_string@DU?$char_traits@D@std@@V?$allocator@D@2@@std@@V?$map@IURolePartInfo@@U?$less@I@std@@V?$allocator@URolePartInfo@@@3@@2@U?$less@V?$basic_string@DU?$char_traits@D@std@@V?$allocator@D@2@@std@@@2@V?$allocator@V?$map@IURolePartInfo@@U?$less@I@std@@V?$allocator@URolePartInfo@@@3@@std@@@2@@2@U?$less@V?$basic_string@DU?$char_traits@D@std@@V?$allocator@D@2@@std@@@2@V?$allocator@V?$map@IURolePartInfo@@U?$less@I@std@@V?$allocator@URolePartInfo@@@3@@std@@@2@@std@@QAE?AViterator@12@V312@0@Z 1000ad40 f i GameDataSet.obj
 0001:00009e20       ??0?$_Tree@V?$basic_string@DU?$char_traits@D@std@@V?$allocator@D@2@@std@@U?$pair@$$CBV?$basic_string@DU?$char_traits@D@std@@V?$allocator@D@2@@std@@V?$map@_JPBDU?$less@_J@std@@V?$allocator@PBD@2@@2@@2@U_Kfn@?$map@V?$basic_string@DU?$char_traits@D@std@@V?$allocator@D@2@@std@@V?$map@_JPBDU?$less@_J@std@@V?$allocator@PBD@2@@2@U?$less@V?$basic_string@DU?$char_traits@D@std@@V?$allocator@D@2@@std@@@2@V?$allocator@V?$map@_JPBDU?$less@_J@std@@V?$allocator@PBD@2@@std@@@2@@2@U?$less@V?$basic_string@DU?$char_traits@D@std@@V?$allocator@D@2@@std@@@2@V?$allocator@V?$map@_JPBDU?$less@_J@std@@V?$allocator@PBD@2@@std@@@2@@std@@QAE@ABU?$less@V?$basic_string@DU?$char_traits@D@std@@V?$allocator@D@2@@std@@@1@_NABV?$allocator@V?$map@_JPBDU?$less@_J@std@@V?$allocator@PBD@2@@std@@@1@@Z 1000ae20 f i GameDataSet.obj
 0001:00009e50       ?find@?$_Tree@V?$basic_string@DU?$char_traits@D@std@@V?$allocator@D@2@@std@@U?$pair@$$CBV?$basic_string@DU?$char_traits@D@std@@V?$allocator@D@2@@std@@V?$map@_JPBDU?$less@_J@std@@V?$allocator@PBD@2@@2@@2@U_Kfn@?$map@V?$basic_string@DU?$char_traits@D@std@@V?$allocator@D@2@@std@@V?$map@_JPBDU?$less@_J@std@@V?$allocator@PBD@2@@2@U?$less@V?$basic_string@DU?$char_traits@D@std@@V?$allocator@D@2@@std@@@2@V?$allocator@V?$map@_JPBDU?$less@_J@std@@V?$allocator@PBD@2@@std@@@2@@2@U?$less@V?$basic_string@DU?$char_traits@D@std@@V?$allocator@D@2@@std@@@2@V?$allocator@V?$map@_JPBDU?$less@_J@std@@V?$allocator@PBD@2@@std@@@2@@std@@QAE?AViterator@12@ABV?$basic_string@DU?$char_traits@D@std@@V?$allocator@D@2@@2@@Z 1000ae50 f i GameDataSet.obj
 0001:00009ee0       ??0?$_Tree@_JU?$pair@$$CB_JPBD@std@@U_Kfn@?$map@_JPBDU?$less@_J@std@@V?$allocator@PBD@2@@2@U?$less@_J@2@V?$allocator@PBD@2@@std@@QAE@ABU?$less@_J@1@_NABV?$allocator@PBD@1@@Z 1000aee0 f i GameDataSet.obj
 0001:00009f10       ?erase@?$_Tree@_JU?$pair@$$CB_JPBD@std@@U_Kfn@?$map@_JPBDU?$less@_J@std@@V?$allocator@PBD@2@@2@U?$less@_J@2@V?$allocator@PBD@2@@std@@QAE?AViterator@12@V312@0@Z 1000af10 f i GameDataSet.obj
 0001:00009fe0       ?find@?$_Tree@_JU?$pair@$$CB_JPBD@std@@U_Kfn@?$map@_JPBDU?$less@_J@std@@V?$allocator@PBD@2@@2@U?$less@_J@2@V?$allocator@PBD@2@@std@@QAE?AViterator@12@AB_J@Z 1000afe0 f i GameDataSet.obj
 0001:0000a070       ??0?$_Tree@V?$basic_string@DU?$char_traits@D@std@@V?$allocator@D@2@@std@@V12@U_Kfn@?$set@V?$basic_string@DU?$char_traits@D@std@@V?$allocator@D@2@@std@@U?$less@V?$basic_string@DU?$char_traits@D@std@@V?$allocator@D@2@@std@@@2@V?$allocator@V?$basic_string@DU?$char_traits@D@std@@V?$allocator@D@2@@std@@@2@@2@U?$less@V?$basic_string@DU?$char_traits@D@std@@V?$allocator@D@2@@std@@@2@V?$allocator@V?$basic_string@DU?$char_traits@D@std@@V?$allocator@D@2@@std@@@2@@std@@QAE@ABU?$less@V?$basic_string@DU?$char_traits@D@std@@V?$allocator@D@2@@std@@@1@_NABV?$allocator@V?$basic_string@DU?$char_traits@D@std@@V?$allocator@D@2@@std@@@1@@Z 1000b070 f i GameDataSet.obj
 0001:0000a0a0       ?find@?$_Tree@V?$basic_string@DU?$char_traits@D@std@@V?$allocator@D@2@@std@@V12@U_Kfn@?$set@V?$basic_string@DU?$char_traits@D@std@@V?$allocator@D@2@@std@@U?$less@V?$basic_string@DU?$char_traits@D@std@@V?$allocator@D@2@@std@@@2@V?$allocator@V?$basic_string@DU?$char_traits@D@std@@V?$allocator@D@2@@std@@@2@@2@U?$less@V?$basic_string@DU?$char_traits@D@std@@V?$allocator@D@2@@std@@@2@V?$allocator@V?$basic_string@DU?$char_traits@D@std@@V?$allocator@D@2@@std@@@2@@std@@QAE?AViterator@12@ABV?$basic_string@DU?$char_traits@D@std@@V?$allocator@D@2@@2@@Z 1000b0a0 f i GameDataSet.obj
 0001:0000a130       ?insert@?$map@V?$basic_string@DU?$char_traits@D@std@@V?$allocator@D@2@@std@@V?$map@_JPAUC3DMotionInfo@@U?$less@_J@std@@V?$allocator@PAUC3DMotionInfo@@@3@@2@U?$less@V?$basic_string@DU?$char_traits@D@std@@V?$allocator@D@2@@std@@@2@V?$allocator@V?$map@_JPAUC3DMotionInfo@@U?$less@_J@std@@V?$allocator@PAUC3DMotionInfo@@@3@@std@@@2@@std@@QAE?AU?$pair@Viterator@?$_Tree@V?$basic_string@DU?$char_traits@D@std@@V?$allocator@D@2@@std@@U?$pair@$$CBV?$basic_string@DU?$char_traits@D@std@@V?$allocator@D@2@@std@@V?$map@_JPAUC3DMotionInfo@@U?$less@_J@std@@V?$allocator@PAUC3DMotionInfo@@@3@@2@@2@U_Kfn@?$map@V?$basic_string@DU?$char_traits@D@std@@V?$allocator@D@2@@std@@V?$map@_JPAUC3DMotionInfo@@U?$less@_J@std@@V?$allocator@PAUC3DMotionInfo@@@3@@2@U?$less@V?$basic_string@DU?$char_traits@D@std@@V?$allocator@D@2@@std@@@2@V?$allocator@V?$map@_JPAUC3DMotionInfo@@U?$less@_J@std@@V?$allocator@PAUC3DMotionInfo@@@3@@std@@@2@@2@U?$less@V?$basic_string@DU?$char_traits@D@std@@V?$allocator@D@2@@std@@@2@V?$allocator@V?$map@_JPAUC3DMotionInfo@@U?$less@_J@std@@V?$allocator@PAUC3DMotionInfo@@@3@@std@@@2@@std@@_N@2@ABU?$pair@$$CBV?$basic_string@DU?$char_traits@D@std@@V?$allocator@D@2@@std@@V?$map@_JPAUC3DMotionInfo@@U?$less@_J@std@@V?$allocator@PAUC3DMotionInfo@@@3@@2@@2@@Z 1000b130 f i GameDataSet.obj
 0001:0000a230       ??0?$_Tree@V?$basic_string@DU?$char_traits@D@std@@V?$allocator@D@2@@std@@U?$pair@$$CBV?$basic_string@DU?$char_traits@D@std@@V?$allocator@D@2@@std@@V?$map@_JPAUC3DMotionInfo@@U?$less@_J@std@@V?$allocator@PAUC3DMotionInfo@@@3@@2@@2@U_Kfn@?$map@V?$basic_string@DU?$char_traits@D@std@@V?$allocator@D@2@@std@@V?$map@_JPAUC3DMotionInfo@@U?$less@_J@std@@V?$allocator@PAUC3DMotionInfo@@@3@@2@U?$less@V?$basic_string@DU?$char_traits@D@std@@V?$allocator@D@2@@std@@@2@V?$allocator@V?$map@_JPAUC3DMotionInfo@@U?$less@_J@std@@V?$allocator@PAUC3DMotionInfo@@@3@@std@@@2@@2@U?$less@V?$basic_string@DU?$char_traits@D@std@@V?$allocator@D@2@@std@@@2@V?$allocator@V?$map@_JPAUC3DMotionInfo@@U?$less@_J@std@@V?$allocator@PAUC3DMotionInfo@@@3@@std@@@2@@std@@QAE@ABU?$less@V?$basic_string@DU?$char_traits@D@std@@V?$allocator@D@2@@std@@@1@_NABV?$allocator@V?$map@_JPAUC3DMotionInfo@@U?$less@_J@std@@V?$allocator@PAUC3DMotionInfo@@@3@@std@@@1@@Z 1000b230 f i GameDataSet.obj
 0001:0000a260       ?find@?$_Tree@V?$basic_string@DU?$char_traits@D@std@@V?$allocator@D@2@@std@@U?$pair@$$CBV?$basic_string@DU?$char_traits@D@std@@V?$allocator@D@2@@std@@V?$map@_JPAUC3DMotionInfo@@U?$less@_J@std@@V?$allocator@PAUC3DMotionInfo@@@3@@2@@2@U_Kfn@?$map@V?$basic_string@DU?$char_traits@D@std@@V?$allocator@D@2@@std@@V?$map@_JPAUC3DMotionInfo@@U?$less@_J@std@@V?$allocator@PAUC3DMotionInfo@@@3@@2@U?$less@V?$basic_string@DU?$char_traits@D@std@@V?$allocator@D@2@@std@@@2@V?$allocator@V?$map@_JPAUC3DMotionInfo@@U?$less@_J@std@@V?$allocator@PAUC3DMotionInfo@@@3@@std@@@2@@2@U?$less@V?$basic_string@DU?$char_traits@D@std@@V?$allocator@D@2@@std@@@2@V?$allocator@V?$map@_JPAUC3DMotionInfo@@U?$less@_J@std@@V?$allocator@PAUC3DMotionInfo@@@3@@std@@@2@@std@@QAE?AViterator@12@ABV?$basic_string@DU?$char_traits@D@std@@V?$allocator@D@2@@2@@Z 1000b260 f i GameDataSet.obj
 0001:0000a2f0       ??0?$pair@$$CBV?$basic_string@DU?$char_traits@D@std@@V?$allocator@D@2@@std@@V?$map@_JPAUC3DMotionInfo@@U?$less@_J@std@@V?$allocator@PAUC3DMotionInfo@@@3@@2@@std@@QAE@ABV?$basic_string@DU?$char_traits@D@std@@V?$allocator@D@2@@1@ABV?$map@_JPAUC3DMotionInfo@@U?$less@_J@std@@V?$allocator@PAUC3DMotionInfo@@@3@@1@@Z 1000b2f0 f i GameDataSet.obj
 0001:0000a4b0       ??1?$_Tree@_JU?$pair@$$CB_JPAUC3DMotionInfo@@@std@@U_Kfn@?$map@_JPAUC3DMotionInfo@@U?$less@_J@std@@V?$allocator@PAUC3DMotionInfo@@@3@@2@U?$less@_J@2@V?$allocator@PAUC3DMotionInfo@@@2@@std@@QAE@XZ 1000b4b0 f i GameDataSet.obj
 0001:0000a590       ?erase@?$_Tree@_JU?$pair@$$CB_JPAUC3DMotionInfo@@@std@@U_Kfn@?$map@_JPAUC3DMotionInfo@@U?$less@_J@std@@V?$allocator@PAUC3DMotionInfo@@@3@@2@U?$less@_J@2@V?$allocator@PAUC3DMotionInfo@@@2@@std@@QAE?AViterator@12@V312@@Z 1000b590 f i GameDataSet.obj
 0001:0000a990       ?find@?$_Tree@_JU?$pair@$$CB_JPAUC3DMotionInfo@@@std@@U_Kfn@?$map@_JPAUC3DMotionInfo@@U?$less@_J@std@@V?$allocator@PAUC3DMotionInfo@@@3@@2@U?$less@_J@2@V?$allocator@PAUC3DMotionInfo@@@2@@std@@QAE?AViterator@12@AB_J@Z 1000b990 f i GameDataSet.obj
 0001:0000aa20       ?_Inc@const_iterator@?$_Tree@_JU?$pair@$$CB_JPAUC3DMotionInfo@@@std@@U_Kfn@?$map@_JPAUC3DMotionInfo@@U?$less@_J@std@@V?$allocator@PAUC3DMotionInfo@@@3@@2@U?$less@_J@2@V?$allocator@PAUC3DMotionInfo@@@2@@std@@QAEXXZ 1000ba20 f i GameDataSet.obj
 0001:0000aa70       ?_Inc@const_iterator@?$_Tree@V?$basic_string@DU?$char_traits@D@std@@V?$allocator@D@2@@std@@U?$pair@$$CBV?$basic_string@DU?$char_traits@D@std@@V?$allocator@D@2@@std@@V?$map@_JPAUC3DMotionInfo@@U?$less@_J@std@@V?$allocator@PAUC3DMotionInfo@@@3@@2@@2@U_Kfn@?$map@V?$basic_string@DU?$char_traits@D@std@@V?$allocator@D@2@@std@@V?$map@_JPAUC3DMotionInfo@@U?$less@_J@std@@V?$allocator@PAUC3DMotionInfo@@@3@@2@U?$less@V?$basic_string@DU?$char_traits@D@std@@V?$allocator@D@2@@std@@@2@V?$allocator@V?$map@_JPAUC3DMotionInfo@@U?$less@_J@std@@V?$allocator@PAUC3DMotionInfo@@@3@@std@@@2@@2@U?$less@V?$basic_string@DU?$char_traits@D@std@@V?$allocator@D@2@@std@@@2@V?$allocator@V?$map@_JPAUC3DMotionInfo@@U?$less@_J@std@@V?$allocator@PAUC3DMotionInfo@@@3@@std@@@2@@std@@QAEXXZ 1000ba70 f i GameDataSet.obj
 0001:0000aac0       ??0?$_Tree@IU?$pair@$$CBIPAUC3DObjInfo@@@std@@U_Kfn@?$map@IPAUC3DObjInfo@@U?$less@I@std@@V?$allocator@PAUC3DObjInfo@@@3@@2@U?$less@I@2@V?$allocator@PAUC3DObjInfo@@@2@@std@@QAE@ABU?$less@I@1@_NABV?$allocator@PAUC3DObjInfo@@@1@@Z 1000bac0 f i GameDataSet.obj
 0001:0000aaf0       ?erase@?$_Tree@IU?$pair@$$CBIPAUC3DObjInfo@@@std@@U_Kfn@?$map@IPAUC3DObjInfo@@U?$less@I@std@@V?$allocator@PAUC3DObjInfo@@@3@@2@U?$less@I@2@V?$allocator@PAUC3DObjInfo@@@2@@std@@QAE?AViterator@12@V312@@Z 1000baf0 f i GameDataSet.obj
 0001:0000aef0       ?find@?$_Tree@IU?$pair@$$CBIPAUC3DObjInfo@@@std@@U_Kfn@?$map@IPAUC3DObjInfo@@U?$less@I@std@@V?$allocator@PAUC3DObjInfo@@@3@@2@U?$less@I@2@V?$allocator@PAUC3DObjInfo@@@2@@std@@QAE?AViterator@12@ABI@Z 1000bef0 f i GameDataSet.obj
 0001:0000af60       ?_Inc@const_iterator@?$_Tree@IU?$pair@$$CBIPAUC3DObjInfo@@@std@@U_Kfn@?$map@IPAUC3DObjInfo@@U?$less@I@std@@V?$allocator@PAUC3DObjInfo@@@3@@2@U?$less@I@2@V?$allocator@PAUC3DObjInfo@@@2@@std@@QAEXXZ 1000bf60 f i GameDataSet.obj
 0001:0000afb0       ??0?$_Tree@IU?$pair@$$CBIPAUC3DTextureInfo@@@std@@U_Kfn@?$map@IPAUC3DTextureInfo@@U?$less@I@std@@V?$allocator@PAUC3DTextureInfo@@@3@@2@U?$less@I@2@V?$allocator@PAUC3DTextureInfo@@@2@@std@@QAE@ABU?$less@I@1@_NABV?$allocator@PAUC3DTextureInfo@@@1@@Z 1000bfb0 f i GameDataSet.obj
 0001:0000afe0       ?erase@?$_Tree@IU?$pair@$$CBIPAUC3DTextureInfo@@@std@@U_Kfn@?$map@IPAUC3DTextureInfo@@U?$less@I@std@@V?$allocator@PAUC3DTextureInfo@@@3@@2@U?$less@I@2@V?$allocator@PAUC3DTextureInfo@@@2@@std@@QAE?AViterator@12@V312@@Z 1000bfe0 f i GameDataSet.obj
 0001:0000b3e0       ?find@?$_Tree@IU?$pair@$$CBIPAUC3DTextureInfo@@@std@@U_Kfn@?$map@IPAUC3DTextureInfo@@U?$less@I@std@@V?$allocator@PAUC3DTextureInfo@@@3@@2@U?$less@I@2@V?$allocator@PAUC3DTextureInfo@@@2@@std@@QAE?AViterator@12@ABI@Z 1000c3e0 f i GameDataSet.obj
 0001:0000b450       ?_Inc@const_iterator@?$_Tree@IU?$pair@$$CBIPAUC3DTextureInfo@@@std@@U_Kfn@?$map@IPAUC3DTextureInfo@@U?$less@I@std@@V?$allocator@PAUC3DTextureInfo@@@3@@2@U?$less@I@2@V?$allocator@PAUC3DTextureInfo@@@2@@std@@QAEXXZ 1000c450 f i GameDataSet.obj
 0001:0000b4a0       ??0?$_Tree@IU?$pair@$$CBIPAUC3DEffectInfo@@@std@@U_Kfn@?$map@IPAUC3DEffectInfo@@U?$less@I@std@@V?$allocator@PAUC3DEffectInfo@@@3@@2@U?$less@I@2@V?$allocator@PAUC3DEffectInfo@@@2@@std@@QAE@ABU?$less@I@1@_NABV?$allocator@PAUC3DEffectInfo@@@1@@Z 1000c4a0 f i GameDataSet.obj
 0001:0000b4d0       ?begin@?$_Tree@IU?$pair@$$CBIPAUC3DTextureInfo@@@std@@U_Kfn@?$map@IPAUC3DTextureInfo@@U?$less@I@std@@V?$allocator@PAUC3DTextureInfo@@@3@@2@U?$less@I@2@V?$allocator@PAUC3DTextureInfo@@@2@@std@@QAE?AViterator@12@XZ 1000c4d0 f i GameDataSet.obj
 0001:0000b4d0       ?begin@?$_Tree@IU?$pair@$$CBIUDETAIL_INFO@CGameDataSetX@@@std@@U_Kfn@?$map@IUDETAIL_INFO@CGameDataSetX@@U?$less@I@std@@V?$allocator@UDETAIL_INFO@CGameDataSetX@@@4@@2@U?$less@I@2@V?$allocator@UDETAIL_INFO@CGameDataSetX@@@2@@std@@QAE?AViterator@12@XZ 1000c4d0 f i GameDataSet.obj
 0001:0000b4d0       ?begin@?$_Tree@KU?$pair@$$CBKUPACK_FILE_ENTRY@@@std@@U_Kfn@?$map@KUPACK_FILE_ENTRY@@U?$less@K@std@@V?$allocator@UPACK_FILE_ENTRY@@@3@@2@U?$less@K@2@V?$allocator@UPACK_FILE_ENTRY@@@2@@std@@QAE?AViterator@12@XZ 1000c4d0 f i GameDataSet.obj
 0001:0000b4d0       ?begin@?$_Tree@IU?$pair@$$CBIURolePartInfo@@@std@@U_Kfn@?$map@IURolePartInfo@@U?$less@I@std@@V?$allocator@URolePartInfo@@@3@@2@U?$less@I@2@V?$allocator@URolePartInfo@@@2@@std@@QAE?AViterator@12@XZ 1000c4d0 f i GameDataSet.obj
 0001:0000b4d0       ?begin@?$_Tree@_JU?$pair@$$CB_JPAUC3DMotionInfo@@@std@@U_Kfn@?$map@_JPAUC3DMotionInfo@@U?$less@_J@std@@V?$allocator@PAUC3DMotionInfo@@@3@@2@U?$less@_J@2@V?$allocator@PAUC3DMotionInfo@@@2@@std@@QAE?AViterator@12@XZ 1000c4d0 f i GameDataSet.obj
 0001:0000b4d0       ?begin@?$_Tree@V?$basic_string@DU?$char_traits@D@std@@V?$allocator@D@2@@std@@U?$pair@$$CBV?$basic_string@DU?$char_traits@D@std@@V?$allocator@D@2@@std@@UROLE_COMPONENT_INFO@CGameDataSetX@@@2@U_Kfn@?$map@V?$basic_string@DU?$char_traits@D@std@@V?$allocator@D@2@@std@@UROLE_COMPONENT_INFO@CGameDataSetX@@U?$less@V?$basic_string@DU?$char_traits@D@std@@V?$allocator@D@2@@std@@@2@V?$allocator@UROLE_COMPONENT_INFO@CGameDataSetX@@@2@@2@U?$less@V?$basic_string@DU?$char_traits@D@std@@V?$allocator@D@2@@std@@@2@V?$allocator@UROLE_COMPONENT_INFO@CGameDataSetX@@@2@@std@@QAE?AViterator@12@XZ 1000c4d0 f i GameDataSet.obj
 0001:0000b4d0       ?begin@?$_Tree@V?$basic_string@DU?$char_traits@D@std@@V?$allocator@D@2@@std@@U?$pair@$$CBV?$basic_string@DU?$char_traits@D@std@@V?$allocator@D@2@@std@@V?$map@_JPAUC3DMotionInfo@@U?$less@_J@std@@V?$allocator@PAUC3DMotionInfo@@@3@@2@@2@U_Kfn@?$map@V?$basic_string@DU?$char_traits@D@std@@V?$allocator@D@2@@std@@V?$map@_JPAUC3DMotionInfo@@U?$less@_J@std@@V?$allocator@PAUC3DMotionInfo@@@3@@2@U?$less@V?$basic_string@DU?$char_traits@D@std@@V?$allocator@D@2@@std@@@2@V?$allocator@V?$map@_JPAUC3DMotionInfo@@U?$less@_J@std@@V?$allocator@PAUC3DMotionInfo@@@3@@std@@@2@@2@U?$less@V?$basic_string@DU?$char_traits@D@std@@V?$allocator@D@2@@std@@@2@V?$allocator@V?$map@_JPAUC3DMotionInfo@@U?$less@_J@std@@V?$allocator@PAUC3DMotionInfo@@@3@@std@@@2@@std@@QAE?AViterator@12@XZ 1000c4d0 f i GameDataSet.obj
 0001:0000b4d0       ?begin@?$_Tree@HU?$pair@$$CBHUC3_RES_LOD_DESC@CGameDataSetX@@@std@@U_Kfn@?$map@HUC3_RES_LOD_DESC@CGameDataSetX@@U?$less@H@std@@V?$allocator@UC3_RES_LOD_DESC@CGameDataSetX@@@4@@2@U?$less@H@2@V?$allocator@UC3_RES_LOD_DESC@CGameDataSetX@@@2@@std@@QAE?AViterator@12@XZ 1000c4d0 f i GameDataSet.obj
 0001:0000b4d0       ?begin@?$_Tree@IU?$pair@$$CBIPAUCAniRef@@@std@@U_Kfn@?$map@IPAUCAniRef@@U?$less@I@std@@V?$allocator@PAUCAniRef@@@3@@2@U?$less@I@2@V?$allocator@PAUCAniRef@@@2@@std@@QAE?AViterator@12@XZ 1000c4d0 f i GameDataSet.obj
 0001:0000b4d0       ?begin@?$_Tree@IU?$pair@$$CBIPAUC3DObjInfo@@@std@@U_Kfn@?$map@IPAUC3DObjInfo@@U?$less@I@std@@V?$allocator@PAUC3DObjInfo@@@3@@2@U?$less@I@2@V?$allocator@PAUC3DObjInfo@@@2@@std@@QAE?AViterator@12@XZ 1000c4d0 f i GameDataSet.obj
 0001:0000b4d0       ?begin@?$_Tree@V?$basic_string@DU?$char_traits@D@std@@V?$allocator@D@2@@std@@U?$pair@$$CBV?$basic_string@DU?$char_traits@D@std@@V?$allocator@D@2@@std@@PAUCMy3DEffectInfo@@@2@U_Kfn@?$map@V?$basic_string@DU?$char_traits@D@std@@V?$allocator@D@2@@std@@PAUCMy3DEffectInfo@@U?$less@V?$basic_string@DU?$char_traits@D@std@@V?$allocator@D@2@@std@@@2@V?$allocator@PAUCMy3DEffectInfo@@@2@@2@U?$less@V?$basic_string@DU?$char_traits@D@std@@V?$allocator@D@2@@std@@@2@V?$allocator@PAUCMy3DEffectInfo@@@2@@std@@QAE?AViterator@12@XZ 1000c4d0 f i GameDataSet.obj
 0001:0000b4d0       ?begin@?$_Tree@V?$basic_string@DU?$char_traits@D@std@@V?$allocator@D@2@@std@@V12@U_Kfn@?$set@V?$basic_string@DU?$char_traits@D@std@@V?$allocator@D@2@@std@@U?$less@V?$basic_string@DU?$char_traits@D@std@@V?$allocator@D@2@@std@@@2@V?$allocator@V?$basic_string@DU?$char_traits@D@std@@V?$allocator@D@2@@std@@@2@@2@U?$less@V?$basic_string@DU?$char_traits@D@std@@V?$allocator@D@2@@std@@@2@V?$allocator@V?$basic_string@DU?$char_traits@D@std@@V?$allocator@D@2@@std@@@2@@std@@QAE?AViterator@12@XZ 1000c4d0 f i GameDataSet.obj
 0001:0000b4d0       ?begin@?$_Tree@_JU?$pair@$$CB_JPBD@std@@U_Kfn@?$map@_JPBDU?$less@_J@std@@V?$allocator@PBD@2@@2@U?$less@_J@2@V?$allocator@PBD@2@@std@@QAE?AViterator@12@XZ 1000c4d0 f i GameDataSet.obj
 0001:0000b4d0       ?begin@?$_Tree@KU?$pair@$$CBKK@std@@U_Kfn@?$map@KKU?$less@K@std@@V?$allocator@K@2@@2@U?$less@K@2@V?$allocator@K@2@@std@@QAE?AViterator@12@XZ 1000c4d0 f i GameDataSet.obj
 0001:0000b4d0       ?begin@?$_Tree@IU?$pair@$$CBIPBD@std@@U_Kfn@?$map@IPBDU?$less@I@std@@V?$allocator@PBD@2@@2@U?$less@I@2@V?$allocator@PBD@2@@std@@QAE?AViterator@12@XZ 1000c4d0 f i GameDataSet.obj
 0001:0000b4d0       ?begin@?$_Tree@V?$basic_string@DU?$char_traits@D@std@@V?$allocator@D@2@@std@@U?$pair@$$CBV?$basic_string@DU?$char_traits@D@std@@V?$allocator@D@2@@std@@V?$map@_JPBDU?$less@_J@std@@V?$allocator@PBD@2@@2@@2@U_Kfn@?$map@V?$basic_string@DU?$char_traits@D@std@@V?$allocator@D@2@@std@@V?$map@_JPBDU?$less@_J@std@@V?$allocator@PBD@2@@2@U?$less@V?$basic_string@DU?$char_traits@D@std@@V?$allocator@D@2@@std@@@2@V?$allocator@V?$map@_JPBDU?$less@_J@std@@V?$allocator@PBD@2@@std@@@2@@2@U?$less@V?$basic_string@DU?$char_traits@D@std@@V?$allocator@D@2@@std@@@2@V?$allocator@V?$map@_JPBDU?$less@_J@std@@V?$allocator@PBD@2@@std@@@2@@std@@QAE?AViterator@12@XZ 1000c4d0 f i GameDataSet.obj
 0001:0000b4d0       ?begin@?$_Tree@IU?$pair@$$CBIUC3DSimpleObjInfoEx@@@std@@U_Kfn@?$map@IUC3DSimpleObjInfoEx@@U?$less@I@std@@V?$allocator@UC3DSimpleObjInfoEx@@@3@@2@U?$less@I@2@V?$allocator@UC3DSimpleObjInfoEx@@@2@@std@@QAE?AViterator@12@XZ 1000c4d0 f i GameDataSet.obj
 0001:0000b4d0       ?begin@?$_Tree@V?$basic_string@DU?$char_traits@D@std@@V?$allocator@D@2@@std@@U?$pair@$$CBV?$basic_string@DU?$char_traits@D@std@@V?$allocator@D@2@@std@@URES_RECORD@@@2@U_Kfn@?$map@V?$basic_string@DU?$char_traits@D@std@@V?$allocator@D@2@@std@@URES_RECORD@@U?$less@V?$basic_string@DU?$char_traits@D@std@@V?$allocator@D@2@@std@@@2@V?$allocator@URES_RECORD@@@2@@2@U?$less@V?$basic_string@DU?$char_traits@D@std@@V?$allocator@D@2@@std@@@2@V?$allocator@URES_RECORD@@@2@@std@@QAE?AViterator@12@XZ 1000c4d0 f i GameDataSet.obj
 0001:0000b4d0       ?begin@?$_Tree@PAXU?$pair@QAXPBD@std@@U_Kfn@?$map@PAXPBDU?$less@PAX@std@@V?$allocator@PBD@2@@2@U?$less@PAX@2@V?$allocator@PBD@2@@std@@QAE?AViterator@12@XZ 1000c4d0 f i GameDataSet.obj
 0001:0000b4d0       ?begin@?$_Tree@V?$basic_string@DU?$char_traits@D@std@@V?$allocator@D@2@@std@@U?$pair@$$CBV?$basic_string@DU?$char_traits@D@std@@V?$allocator@D@2@@std@@V?$map@IURolePartInfo@@U?$less@I@std@@V?$allocator@URolePartInfo@@@3@@2@@2@U_Kfn@?$map@V?$basic_string@DU?$char_traits@D@std@@V?$allocator@D@2@@std@@V?$map@IURolePartInfo@@U?$less@I@std@@V?$allocator@URolePartInfo@@@3@@2@U?$less@V?$basic_string@DU?$char_traits@D@std@@V?$allocator@D@2@@std@@@2@V?$allocator@V?$map@IURolePartInfo@@U?$less@I@std@@V?$allocator@URolePartInfo@@@3@@std@@@2@@2@U?$less@V?$basic_string@DU?$char_traits@D@std@@V?$allocator@D@2@@std@@@2@V?$allocator@V?$map@IURolePartInfo@@U?$less@I@std@@V?$allocator@URolePartInfo@@@3@@std@@@2@@std@@QAE?AViterator@12@XZ 1000c4d0 f i GameDataSet.obj
 0001:0000b4d0       ?begin@?$_Tree@IU?$pair@$$CBIPAUC3DEffectInfo@@@std@@U_Kfn@?$map@IPAUC3DEffectInfo@@U?$less@I@std@@V?$allocator@PAUC3DEffectInfo@@@3@@2@U?$less@I@2@V?$allocator@PAUC3DEffectInfo@@@2@@std@@QAE?AViterator@12@XZ 1000c4d0 f i GameDataSet.obj
 0001:0000b4d0       ?begin@?$_Tree@IU?$pair@$$CBIPAUC3DSimpleObjInfo@@@std@@U_Kfn@?$map@IPAUC3DSimpleObjInfo@@U?$less@I@std@@V?$allocator@PAUC3DSimpleObjInfo@@@3@@2@U?$less@I@2@V?$allocator@PAUC3DSimpleObjInfo@@@2@@std@@QAE?AViterator@12@XZ 1000c4d0 f i GameDataSet.obj
 0001:0000b4d0       ?begin@?$_Tree@KU?$pair@$$CBKV?$map@KKU?$less@K@std@@V?$allocator@K@2@@std@@@std@@U_Kfn@?$map@KV?$map@KKU?$less@K@std@@V?$allocator@K@2@@std@@U?$less@K@2@V?$allocator@V?$map@KKU?$less@K@std@@V?$allocator@K@2@@std@@@2@@2@U?$less@K@2@V?$allocator@V?$map@KKU?$less@K@std@@V?$allocator@K@2@@std@@@2@@std@@QAE?AViterator@12@XZ 1000c4d0 f i GameDataSet.obj
 0001:0000b4d0       ?begin@?$_Tree@IU?$pair@$$CBIV?$basic_string@DU?$char_traits@D@std@@V?$allocator@D@2@@std@@@std@@U_Kfn@?$map@IV?$basic_string@DU?$char_traits@D@std@@V?$allocator@D@2@@std@@U?$less@I@2@V?$allocator@V?$basic_string@DU?$char_traits@D@std@@V?$allocator@D@2@@std@@@2@@2@U?$less@I@2@V?$allocator@V?$basic_string@DU?$char_traits@D@std@@V?$allocator@D@2@@std@@@2@@std@@QAE?AViterator@12@XZ 1000c4d0 f i GameDataSet.obj
 0001:0000b4d0       ?begin@?$_Tree@IU?$pair@$$CBIPAUC3DSceneRef@@@std@@U_Kfn@?$map@IPAUC3DSceneRef@@U?$less@I@std@@V?$allocator@PAUC3DSceneRef@@@3@@2@U?$less@I@2@V?$allocator@PAUC3DSceneRef@@@2@@std@@QAE?AViterator@12@XZ 1000c4d0 f i GameDataSet.obj
 0001:0000b4d0       ?begin@?$_Tree@_JU?$pair@$$CB_JK@std@@U_Kfn@?$map@_JKU?$less@_J@std@@V?$allocator@K@2@@2@U?$less@_J@2@V?$allocator@K@2@@std@@QAE?AViterator@12@XZ 1000c4d0 f i GameDataSet.obj
 0001:0000b4d0       ?begin@?$_Tree@V?$basic_string@DU?$char_traits@D@std@@V?$allocator@D@2@@std@@U?$pair@$$CBV?$basic_string@DU?$char_traits@D@std@@V?$allocator@D@2@@std@@H@2@U_Kfn@?$map@V?$basic_string@DU?$char_traits@D@std@@V?$allocator@D@2@@std@@HU?$less@V?$basic_string@DU?$char_traits@D@std@@V?$allocator@D@2@@std@@@2@V?$allocator@H@2@@2@U?$less@V?$basic_string@DU?$char_traits@D@std@@V?$allocator@D@2@@std@@@2@V?$allocator@H@2@@std@@QAE?AViterator@12@XZ 1000c4d0 f i GameDataSet.obj
 0001:0000b4d0       ?begin@?$_Tree@V?$basic_string@DU?$char_traits@D@std@@V?$allocator@D@2@@std@@U?$pair@$$CBV?$basic_string@DU?$char_traits@D@std@@V?$allocator@D@2@@std@@PAV?$map@_JKU?$less@_J@std@@V?$allocator@K@2@@2@@2@U_Kfn@?$map@V?$basic_string@DU?$char_traits@D@std@@V?$allocator@D@2@@std@@PAV?$map@_JKU?$less@_J@std@@V?$allocator@K@2@@2@U?$less@V?$basic_string@DU?$char_traits@D@std@@V?$allocator@D@2@@std@@@2@V?$allocator@PAV?$map@_JKU?$less@_J@std@@V?$allocator@K@2@@std@@@2@@2@U?$less@V?$basic_string@DU?$char_traits@D@std@@V?$allocator@D@2@@std@@@2@V?$allocator@PAV?$map@_JKU?$less@_J@std@@V?$allocator@K@2@@std@@@2@@std@@QAE?AViterator@12@XZ 1000c4d0 f i GameDataSet.obj
 0001:0000b4e0       ?erase@?$_Tree@IU?$pair@$$CBIPAUC3DEffectInfo@@@std@@U_Kfn@?$map@IPAUC3DEffectInfo@@U?$less@I@std@@V?$allocator@PAUC3DEffectInfo@@@3@@2@U?$less@I@2@V?$allocator@PAUC3DEffectInfo@@@2@@std@@QAE?AViterator@12@V312@@Z 1000c4e0 f i GameDataSet.obj
 0001:0000b8e0       ?find@?$_Tree@IU?$pair@$$CBIPAUC3DEffectInfo@@@std@@U_Kfn@?$map@IPAUC3DEffectInfo@@U?$less@I@std@@V?$allocator@PAUC3DEffectInfo@@@3@@2@U?$less@I@2@V?$allocator@PAUC3DEffectInfo@@@2@@std@@QAE?AViterator@12@ABI@Z 1000c8e0 f i GameDataSet.obj
 0001:0000b950       ?_Inc@const_iterator@?$_Tree@IU?$pair@$$CBIPAUC3DEffectInfo@@@std@@U_Kfn@?$map@IPAUC3DEffectInfo@@U?$less@I@std@@V?$allocator@PAUC3DEffectInfo@@@3@@2@U?$less@I@2@V?$allocator@PAUC3DEffectInfo@@@2@@std@@QAEXXZ 1000c950 f i GameDataSet.obj
 0001:0000b9a0       ??0?$_Tree@IU?$pair@$$CBIPAUC3DSceneRef@@@std@@U_Kfn@?$map@IPAUC3DSceneRef@@U?$less@I@std@@V?$allocator@PAUC3DSceneRef@@@3@@2@U?$less@I@2@V?$allocator@PAUC3DSceneRef@@@2@@std@@QAE@ABU?$less@I@1@_NABV?$allocator@PAUC3DSceneRef@@@1@@Z 1000c9a0 f i GameDataSet.obj
 0001:0000b9d0       ?erase@?$_Tree@IU?$pair@$$CBIPAUC3DSceneRef@@@std@@U_Kfn@?$map@IPAUC3DSceneRef@@U?$less@I@std@@V?$allocator@PAUC3DSceneRef@@@3@@2@U?$less@I@2@V?$allocator@PAUC3DSceneRef@@@2@@std@@QAE?AViterator@12@V312@@Z 1000c9d0 f i GameDataSet.obj
 0001:0000bdd0       ?find@?$_Tree@IU?$pair@$$CBIPAUC3DSceneRef@@@std@@U_Kfn@?$map@IPAUC3DSceneRef@@U?$less@I@std@@V?$allocator@PAUC3DSceneRef@@@3@@2@U?$less@I@2@V?$allocator@PAUC3DSceneRef@@@2@@std@@QAE?AViterator@12@ABI@Z 1000cdd0 f i GameDataSet.obj
 0001:0000be40       ?_Inc@const_iterator@?$_Tree@IU?$pair@$$CBIPAUC3DSceneRef@@@std@@U_Kfn@?$map@IPAUC3DSceneRef@@U?$less@I@std@@V?$allocator@PAUC3DSceneRef@@@3@@2@U?$less@I@2@V?$allocator@PAUC3DSceneRef@@@2@@std@@QAEXXZ 1000ce40 f i GameDataSet.obj
 0001:0000be90       ??0?$_Tree@IU?$pair@$$CBIPAUCAniRef@@@std@@U_Kfn@?$map@IPAUCAniRef@@U?$less@I@std@@V?$allocator@PAUCAniRef@@@3@@2@U?$less@I@2@V?$allocator@PAUCAniRef@@@2@@std@@QAE@ABU?$less@I@1@_NABV?$allocator@PAUCAniRef@@@1@@Z 1000ce90 f i GameDataSet.obj
 0001:0000bec0       ?erase@?$_Tree@IU?$pair@$$CBIPAUCAniRef@@@std@@U_Kfn@?$map@IPAUCAniRef@@U?$less@I@std@@V?$allocator@PAUCAniRef@@@3@@2@U?$less@I@2@V?$allocator@PAUCAniRef@@@2@@std@@QAE?AViterator@12@V312@@Z 1000cec0 f i GameDataSet.obj
 0001:0000c2c0       ?find@?$_Tree@IU?$pair@$$CBIPAUCAniRef@@@std@@U_Kfn@?$map@IPAUCAniRef@@U?$less@I@std@@V?$allocator@PAUCAniRef@@@3@@2@U?$less@I@2@V?$allocator@PAUCAniRef@@@2@@std@@QAE?AViterator@12@ABI@Z 1000d2c0 f i GameDataSet.obj
 0001:0000c330       ?_Inc@const_iterator@?$_Tree@IU?$pair@$$CBIPAUCAniRef@@@std@@U_Kfn@?$map@IPAUCAniRef@@U?$less@I@std@@V?$allocator@PAUCAniRef@@@3@@2@U?$less@I@2@V?$allocator@PAUCAniRef@@@2@@std@@QAEXXZ 1000d330 f i GameDataSet.obj
 0001:0000c380       ?insert@?$map@V?$basic_string@DU?$char_traits@D@std@@V?$allocator@D@2@@std@@URES_RECORD@@U?$less@V?$basic_string@DU?$char_traits@D@std@@V?$allocator@D@2@@std@@@2@V?$allocator@URES_RECORD@@@2@@std@@QAE?AU?$pair@Viterator@?$_Tree@V?$basic_string@DU?$char_traits@D@std@@V?$allocator@D@2@@std@@U?$pair@$$CBV?$basic_string@DU?$char_traits@D@std@@V?$allocator@D@2@@std@@URES_RECORD@@@2@U_Kfn@?$map@V?$basic_string@DU?$char_traits@D@std@@V?$allocator@D@2@@std@@URES_RECORD@@U?$less@V?$basic_string@DU?$char_traits@D@std@@V?$allocator@D@2@@std@@@2@V?$allocator@URES_RECORD@@@2@@2@U?$less@V?$basic_string@DU?$char_traits@D@std@@V?$allocator@D@2@@std@@@2@V?$allocator@URES_RECORD@@@2@@std@@_N@2@ABU?$pair@$$CBV?$basic_string@DU?$char_traits@D@std@@V?$allocator@D@2@@std@@URES_RECORD@@@2@@Z 1000d380 f i GameDataSet.obj
 0001:0000c480       ??0?$_Tree@V?$basic_string@DU?$char_traits@D@std@@V?$allocator@D@2@@std@@U?$pair@$$CBV?$basic_string@DU?$char_traits@D@std@@V?$allocator@D@2@@std@@URES_RECORD@@@2@U_Kfn@?$map@V?$basic_string@DU?$char_traits@D@std@@V?$allocator@D@2@@std@@URES_RECORD@@U?$less@V?$basic_string@DU?$char_traits@D@std@@V?$allocator@D@2@@std@@@2@V?$allocator@URES_RECORD@@@2@@2@U?$less@V?$basic_string@DU?$char_traits@D@std@@V?$allocator@D@2@@std@@@2@V?$allocator@URES_RECORD@@@2@@std@@QAE@ABU?$less@V?$basic_string@DU?$char_traits@D@std@@V?$allocator@D@2@@std@@@1@_NABV?$allocator@URES_RECORD@@@1@@Z 1000d480 f i GameDataSet.obj
 0001:0000c4b0       ?erase@?$_Tree@V?$basic_string@DU?$char_traits@D@std@@V?$allocator@D@2@@std@@U?$pair@$$CBV?$basic_string@DU?$char_traits@D@std@@V?$allocator@D@2@@std@@URES_RECORD@@@2@U_Kfn@?$map@V?$basic_string@DU?$char_traits@D@std@@V?$allocator@D@2@@std@@URES_RECORD@@U?$less@V?$basic_string@DU?$char_traits@D@std@@V?$allocator@D@2@@std@@@2@V?$allocator@URES_RECORD@@@2@@2@U?$less@V?$basic_string@DU?$char_traits@D@std@@V?$allocator@D@2@@std@@@2@V?$allocator@URES_RECORD@@@2@@std@@QAE?AViterator@12@V312@@Z 1000d4b0 f i GameDataSet.obj
 0001:0000c8e0       ?find@?$_Tree@V?$basic_string@DU?$char_traits@D@std@@V?$allocator@D@2@@std@@U?$pair@$$CBV?$basic_string@DU?$char_traits@D@std@@V?$allocator@D@2@@std@@URES_RECORD@@@2@U_Kfn@?$map@V?$basic_string@DU?$char_traits@D@std@@V?$allocator@D@2@@std@@URES_RECORD@@U?$less@V?$basic_string@DU?$char_traits@D@std@@V?$allocator@D@2@@std@@@2@V?$allocator@URES_RECORD@@@2@@2@U?$less@V?$basic_string@DU?$char_traits@D@std@@V?$allocator@D@2@@std@@@2@V?$allocator@URES_RECORD@@@2@@std@@QAE?AViterator@12@ABV?$basic_string@DU?$char_traits@D@std@@V?$allocator@D@2@@2@@Z 1000d8e0 f i GameDataSet.obj
 0001:0000c970       ??0?$pair@$$CBV?$basic_string@DU?$char_traits@D@std@@V?$allocator@D@2@@std@@URES_RECORD@@@std@@QAE@ABV?$basic_string@DU?$char_traits@D@std@@V?$allocator@D@2@@1@ABURES_RECORD@@@Z 1000d970 f i GameDataSet.obj
 0001:0000cab0       ?insert@?$map@PAXPBDU?$less@PAX@std@@V?$allocator@PBD@2@@std@@QAE?AU?$pair@Viterator@?$_Tree@PAXU?$pair@QAXPBD@std@@U_Kfn@?$map@PAXPBDU?$less@PAX@std@@V?$allocator@PBD@2@@2@U?$less@PAX@2@V?$allocator@PBD@2@@std@@_N@2@ABU?$pair@QAXPBD@2@@Z 1000dab0 f i GameDataSet.obj
 0001:0000cba0       ??0?$_Tree@PAXU?$pair@QAXPBD@std@@U_Kfn@?$map@PAXPBDU?$less@PAX@std@@V?$allocator@PBD@2@@2@U?$less@PAX@2@V?$allocator@PBD@2@@std@@QAE@ABU?$less@PAX@1@_NABV?$allocator@PBD@1@@Z 1000dba0 f i GameDataSet.obj
 0001:0000cbd0       ?erase@?$_Tree@PAXU?$pair@QAXPBD@std@@U_Kfn@?$map@PAXPBDU?$less@PAX@std@@V?$allocator@PBD@2@@2@U?$less@PAX@2@V?$allocator@PBD@2@@std@@QAE?AViterator@12@V312@@Z 1000dbd0 f i GameDataSet.obj
 0001:0000cfd0       ?find@?$_Tree@PAXU?$pair@QAXPBD@std@@U_Kfn@?$map@PAXPBDU?$less@PAX@std@@V?$allocator@PBD@2@@2@U?$less@PAX@2@V?$allocator@PBD@2@@std@@QAE?AViterator@12@ABQAX@Z 1000dfd0 f i GameDataSet.obj
 0001:0000d040       ?pop_front@?$deque@PAVCDataThreadObj@@V?$allocator@PAVCDataThreadObj@@@std@@@std@@QAEXXZ 1000e040 f i GameDataSet.obj
 0001:0000d0d0       ?erase@?$deque@PAVCDataThreadObj@@V?$allocator@PAVCDataThreadObj@@@std@@@std@@QAE?AViterator@12@V312@0@Z 1000e0d0 f i GameDataSet.obj
 0001:0000d410       ?_Buyback@?$deque@PAVCDataThreadObj@@V?$allocator@PAVCDataThreadObj@@@std@@@std@@IAEXXZ 1000e410 f i GameDataSet.obj
 0001:0000d570       ??0?$_Tree@HU?$pair@$$CBHUC3_RES_LOD_DESC@CGameDataSetX@@@std@@U_Kfn@?$map@HUC3_RES_LOD_DESC@CGameDataSetX@@U?$less@H@std@@V?$allocator@UC3_RES_LOD_DESC@CGameDataSetX@@@4@@2@U?$less@H@2@V?$allocator@UC3_RES_LOD_DESC@CGameDataSetX@@@2@@std@@QAE@ABU?$less@H@1@_NABV?$allocator@UC3_RES_LOD_DESC@CGameDataSetX@@@1@@Z 1000e570 f i GameDataSet.obj
 0001:0000d5a0       ?_Destroy@?$vector@PAXV?$allocator@PAX@std@@@std@@IAEXPAPAX0@Z 1000e5a0 f i GameDataSet.obj
 0001:0000d5b0       ?erase@?$_Tree@IU?$pair@$$CBIPAUC3DSimpleObjInfo@@@std@@U_Kfn@?$map@IPAUC3DSimpleObjInfo@@U?$less@I@std@@V?$allocator@PAUC3DSimpleObjInfo@@@3@@2@U?$less@I@2@V?$allocator@PAUC3DSimpleObjInfo@@@2@@std@@QAE?AViterator@12@V312@@Z 1000e5b0 f i GameDataSet.obj
 0001:0000d9b0       ?_Erase@?$_Tree@IU?$pair@$$CBIPAUC3DSimpleObjInfo@@@std@@U_Kfn@?$map@IPAUC3DSimpleObjInfo@@U?$less@I@std@@V?$allocator@PAUC3DSimpleObjInfo@@@3@@2@U?$less@I@2@V?$allocator@PAUC3DSimpleObjInfo@@@2@@std@@IAEXPAU_Node@12@@Z 1000e9b0 f i GameDataSet.obj
 0001:0000d9f0       ?_Init@?$_Tree@IU?$pair@$$CBIPAUC3DSimpleObjInfo@@@std@@U_Kfn@?$map@IPAUC3DSimpleObjInfo@@U?$less@I@std@@V?$allocator@PAUC3DSimpleObjInfo@@@3@@2@U?$less@I@2@V?$allocator@PAUC3DSimpleObjInfo@@@2@@std@@IAEXXZ 1000e9f0 f i GameDataSet.obj
 0001:0000da90       ?_Min@?$_Tree@IU?$pair@$$CBIPAUC3DSimpleObjInfo@@@std@@U_Kfn@?$map@IPAUC3DSimpleObjInfo@@U?$less@I@std@@V?$allocator@PAUC3DSimpleObjInfo@@@3@@2@U?$less@I@2@V?$allocator@PAUC3DSimpleObjInfo@@@2@@std@@KAPAU_Node@12@PAU312@@Z 1000ea90 f i GameDataSet.obj
 0001:0000dab0       ?erase@?$_Tree@IU?$pair@$$CBIUC3DSimpleObjInfoEx@@@std@@U_Kfn@?$map@IUC3DSimpleObjInfoEx@@U?$less@I@std@@V?$allocator@UC3DSimpleObjInfoEx@@@3@@2@U?$less@I@2@V?$allocator@UC3DSimpleObjInfoEx@@@2@@std@@QAE?AViterator@12@V312@@Z 1000eab0 f i GameDataSet.obj
 0001:0000df10       ?_Erase@?$_Tree@IU?$pair@$$CBIUC3DSimpleObjInfoEx@@@std@@U_Kfn@?$map@IUC3DSimpleObjInfoEx@@U?$less@I@std@@V?$allocator@UC3DSimpleObjInfoEx@@@3@@2@U?$less@I@2@V?$allocator@UC3DSimpleObjInfoEx@@@2@@std@@IAEXPAU_Node@12@@Z 1000ef10 f i GameDataSet.obj
 0001:0000df50       ?_Init@?$_Tree@IU?$pair@$$CBIUC3DSimpleObjInfoEx@@@std@@U_Kfn@?$map@IUC3DSimpleObjInfoEx@@U?$less@I@std@@V?$allocator@UC3DSimpleObjInfoEx@@@3@@2@U?$less@I@2@V?$allocator@UC3DSimpleObjInfoEx@@@2@@std@@IAEXXZ 1000ef50 f i GameDataSet.obj
 0001:0000dff0       ?erase@?$_Tree@V?$basic_string@DU?$char_traits@D@std@@V?$allocator@D@2@@std@@U?$pair@$$CBV?$basic_string@DU?$char_traits@D@std@@V?$allocator@D@2@@std@@PAUCMy3DEffectInfo@@@2@U_Kfn@?$map@V?$basic_string@DU?$char_traits@D@std@@V?$allocator@D@2@@std@@PAUCMy3DEffectInfo@@U?$less@V?$basic_string@DU?$char_traits@D@std@@V?$allocator@D@2@@std@@@2@V?$allocator@PAUCMy3DEffectInfo@@@2@@2@U?$less@V?$basic_string@DU?$char_traits@D@std@@V?$allocator@D@2@@std@@@2@V?$allocator@PAUCMy3DEffectInfo@@@2@@std@@QAE?AViterator@12@V312@@Z 1000eff0 f i GameDataSet.obj
 0001:0000e420       ?_Erase@?$_Tree@V?$basic_string@DU?$char_traits@D@std@@V?$allocator@D@2@@std@@U?$pair@$$CBV?$basic_string@DU?$char_traits@D@std@@V?$allocator@D@2@@std@@PAUCMy3DEffectInfo@@@2@U_Kfn@?$map@V?$basic_string@DU?$char_traits@D@std@@V?$allocator@D@2@@std@@PAUCMy3DEffectInfo@@U?$less@V?$basic_string@DU?$char_traits@D@std@@V?$allocator@D@2@@std@@@2@V?$allocator@PAUCMy3DEffectInfo@@@2@@2@U?$less@V?$basic_string@DU?$char_traits@D@std@@V?$allocator@D@2@@std@@@2@V?$allocator@PAUCMy3DEffectInfo@@@2@@std@@IAEXPAU_Node@12@@Z 1000f420 f i GameDataSet.obj
 0001:0000e470       ?_Init@?$_Tree@V?$basic_string@DU?$char_traits@D@std@@V?$allocator@D@2@@std@@U?$pair@$$CBV?$basic_string@DU?$char_traits@D@std@@V?$allocator@D@2@@std@@PAUCMy3DEffectInfo@@@2@U_Kfn@?$map@V?$basic_string@DU?$char_traits@D@std@@V?$allocator@D@2@@std@@PAUCMy3DEffectInfo@@U?$less@V?$basic_string@DU?$char_traits@D@std@@V?$allocator@D@2@@std@@@2@V?$allocator@PAUCMy3DEffectInfo@@@2@@2@U?$less@V?$basic_string@DU?$char_traits@D@std@@V?$allocator@D@2@@std@@@2@V?$allocator@PAUCMy3DEffectInfo@@@2@@std@@IAEXXZ 1000f470 f i GameDataSet.obj
 0001:0000e510       ?_Min@?$_Tree@V?$basic_string@DU?$char_traits@D@std@@V?$allocator@D@2@@std@@U?$pair@$$CBV?$basic_string@DU?$char_traits@D@std@@V?$allocator@D@2@@std@@PAUCMy3DEffectInfo@@@2@U_Kfn@?$map@V?$basic_string@DU?$char_traits@D@std@@V?$allocator@D@2@@std@@PAUCMy3DEffectInfo@@U?$less@V?$basic_string@DU?$char_traits@D@std@@V?$allocator@D@2@@std@@@2@V?$allocator@PAUCMy3DEffectInfo@@@2@@2@U?$less@V?$basic_string@DU?$char_traits@D@std@@V?$allocator@D@2@@std@@@2@V?$allocator@PAUCMy3DEffectInfo@@@2@@std@@KAPAU_Node@12@PAU312@@Z 1000f510 f i GameDataSet.obj
 0001:0000e530       ?erase@?$_Tree@V?$basic_string@DU?$char_traits@D@std@@V?$allocator@D@2@@std@@U?$pair@$$CBV?$basic_string@DU?$char_traits@D@std@@V?$allocator@D@2@@std@@H@2@U_Kfn@?$map@V?$basic_string@DU?$char_traits@D@std@@V?$allocator@D@2@@std@@HU?$less@V?$basic_string@DU?$char_traits@D@std@@V?$allocator@D@2@@std@@@2@V?$allocator@H@2@@2@U?$less@V?$basic_string@DU?$char_traits@D@std@@V?$allocator@D@2@@std@@@2@V?$allocator@H@2@@std@@QAE?AViterator@12@V312@@Z 1000f530 f i GameDataSet.obj
 0001:0000e960       ?_Erase@?$_Tree@V?$basic_string@DU?$char_traits@D@std@@V?$allocator@D@2@@std@@U?$pair@$$CBV?$basic_string@DU?$char_traits@D@std@@V?$allocator@D@2@@std@@H@2@U_Kfn@?$map@V?$basic_string@DU?$char_traits@D@std@@V?$allocator@D@2@@std@@HU?$less@V?$basic_string@DU?$char_traits@D@std@@V?$allocator@D@2@@std@@@2@V?$allocator@H@2@@2@U?$less@V?$basic_string@DU?$char_traits@D@std@@V?$allocator@D@2@@std@@@2@V?$allocator@H@2@@std@@IAEXPAU_Node@12@@Z 1000f960 f i GameDataSet.obj
 0001:0000e9b0       ?_Init@?$_Tree@V?$basic_string@DU?$char_traits@D@std@@V?$allocator@D@2@@std@@U?$pair@$$CBV?$basic_string@DU?$char_traits@D@std@@V?$allocator@D@2@@std@@H@2@U_Kfn@?$map@V?$basic_string@DU?$char_traits@D@std@@V?$allocator@D@2@@std@@HU?$less@V?$basic_string@DU?$char_traits@D@std@@V?$allocator@D@2@@std@@@2@V?$allocator@H@2@@2@U?$less@V?$basic_string@DU?$char_traits@D@std@@V?$allocator@D@2@@std@@@2@V?$allocator@H@2@@std@@IAEXXZ 1000f9b0 f i GameDataSet.obj
 0001:0000ea50       ?erase@?$_Tree@V?$basic_string@DU?$char_traits@D@std@@V?$allocator@D@2@@std@@U?$pair@$$CBV?$basic_string@DU?$char_traits@D@std@@V?$allocator@D@2@@std@@UROLE_COMPONENT_INFO@CGameDataSetX@@@2@U_Kfn@?$map@V?$basic_string@DU?$char_traits@D@std@@V?$allocator@D@2@@std@@UROLE_COMPONENT_INFO@CGameDataSetX@@U?$less@V?$basic_string@DU?$char_traits@D@std@@V?$allocator@D@2@@std@@@2@V?$allocator@UROLE_COMPONENT_INFO@CGameDataSetX@@@2@@2@U?$less@V?$basic_string@DU?$char_traits@D@std@@V?$allocator@D@2@@std@@@2@V?$allocator@UROLE_COMPONENT_INFO@CGameDataSetX@@@2@@std@@QAE?AViterator@12@V312@@Z 1000fa50 f i GameDataSet.obj
 0001:0000ef00       ?_Erase@?$_Tree@V?$basic_string@DU?$char_traits@D@std@@V?$allocator@D@2@@std@@U?$pair@$$CBV?$basic_string@DU?$char_traits@D@std@@V?$allocator@D@2@@std@@UROLE_COMPONENT_INFO@CGameDataSetX@@@2@U_Kfn@?$map@V?$basic_string@DU?$char_traits@D@std@@V?$allocator@D@2@@std@@UROLE_COMPONENT_INFO@CGameDataSetX@@U?$less@V?$basic_string@DU?$char_traits@D@std@@V?$allocator@D@2@@std@@@2@V?$allocator@UROLE_COMPONENT_INFO@CGameDataSetX@@@2@@2@U?$less@V?$basic_string@DU?$char_traits@D@std@@V?$allocator@D@2@@std@@@2@V?$allocator@UROLE_COMPONENT_INFO@CGameDataSetX@@@2@@std@@IAEXPAU_Node@12@@Z 1000ff00 f i GameDataSet.obj
 0001:0000ef50       ?_Init@?$_Tree@V?$basic_string@DU?$char_traits@D@std@@V?$allocator@D@2@@std@@U?$pair@$$CBV?$basic_string@DU?$char_traits@D@std@@V?$allocator@D@2@@std@@UROLE_COMPONENT_INFO@CGameDataSetX@@@2@U_Kfn@?$map@V?$basic_string@DU?$char_traits@D@std@@V?$allocator@D@2@@std@@UROLE_COMPONENT_INFO@CGameDataSetX@@U?$less@V?$basic_string@DU?$char_traits@D@std@@V?$allocator@D@2@@std@@@2@V?$allocator@UROLE_COMPONENT_INFO@CGameDataSetX@@@2@@2@U?$less@V?$basic_string@DU?$char_traits@D@std@@V?$allocator@D@2@@std@@@2@V?$allocator@UROLE_COMPONENT_INFO@CGameDataSetX@@@2@@std@@IAEXXZ 1000ff50 f i GameDataSet.obj
 0001:0000eff0       ?erase@?$_Tree@V?$basic_string@DU?$char_traits@D@std@@V?$allocator@D@2@@std@@U?$pair@$$CBV?$basic_string@DU?$char_traits@D@std@@V?$allocator@D@2@@std@@V?$map@IURolePartInfo@@U?$less@I@std@@V?$allocator@URolePartInfo@@@3@@2@@2@U_Kfn@?$map@V?$basic_string@DU?$char_traits@D@std@@V?$allocator@D@2@@std@@V?$map@IURolePartInfo@@U?$less@I@std@@V?$allocator@URolePartInfo@@@3@@2@U?$less@V?$basic_string@DU?$char_traits@D@std@@V?$allocator@D@2@@std@@@2@V?$allocator@V?$map@IURolePartInfo@@U?$less@I@std@@V?$allocator@URolePartInfo@@@3@@std@@@2@@2@U?$less@V?$basic_string@DU?$char_traits@D@std@@V?$allocator@D@2@@std@@@2@V?$allocator@V?$map@IURolePartInfo@@U?$less@I@std@@V?$allocator@URolePartInfo@@@3@@std@@@2@@std@@QAE?AViterator@12@V312@@Z 1000fff0 f i GameDataSet.obj
 0001:0000f500       ?_Erase@?$_Tree@V?$basic_string@DU?$char_traits@D@std@@V?$allocator@D@2@@std@@U?$pair@$$CBV?$basic_string@DU?$char_traits@D@std@@V?$allocator@D@2@@std@@V?$map@IURolePartInfo@@U?$less@I@std@@V?$allocator@URolePartInfo@@@3@@2@@2@U_Kfn@?$map@V?$basic_string@DU?$char_traits@D@std@@V?$allocator@D@2@@std@@V?$map@IURolePartInfo@@U?$less@I@std@@V?$allocator@URolePartInfo@@@3@@2@U?$less@V?$basic_string@DU?$char_traits@D@std@@V?$allocator@D@2@@std@@@2@V?$allocator@V?$map@IURolePartInfo@@U?$less@I@std@@V?$allocator@URolePartInfo@@@3@@std@@@2@@2@U?$less@V?$basic_string@DU?$char_traits@D@std@@V?$allocator@D@2@@std@@@2@V?$allocator@V?$map@IURolePartInfo@@U?$less@I@std@@V?$allocator@URolePartInfo@@@3@@std@@@2@@std@@IAEXPAU_Node@12@@Z 10010500 f i GameDataSet.obj
 0001:0000f550       ?_Init@?$_Tree@V?$basic_string@DU?$char_traits@D@std@@V?$allocator@D@2@@std@@U?$pair@$$CBV?$basic_string@DU?$char_traits@D@std@@V?$allocator@D@2@@std@@V?$map@IURolePartInfo@@U?$less@I@std@@V?$allocator@URolePartInfo@@@3@@2@@2@U_Kfn@?$map@V?$basic_string@DU?$char_traits@D@std@@V?$allocator@D@2@@std@@V?$map@IURolePartInfo@@U?$less@I@std@@V?$allocator@URolePartInfo@@@3@@2@U?$less@V?$basic_string@DU?$char_traits@D@std@@V?$allocator@D@2@@std@@@2@V?$allocator@V?$map@IURolePartInfo@@U?$less@I@std@@V?$allocator@URolePartInfo@@@3@@std@@@2@@2@U?$less@V?$basic_string@DU?$char_traits@D@std@@V?$allocator@D@2@@std@@@2@V?$allocator@V?$map@IURolePartInfo@@U?$less@I@std@@V?$allocator@URolePartInfo@@@3@@std@@@2@@std@@IAEXXZ 10010550 f i GameDataSet.obj
 0001:0000f5f0       ?erase@?$_Tree@V?$basic_string@DU?$char_traits@D@std@@V?$allocator@D@2@@std@@U?$pair@$$CBV?$basic_string@DU?$char_traits@D@std@@V?$allocator@D@2@@std@@V?$map@_JPBDU?$less@_J@std@@V?$allocator@PBD@2@@2@@2@U_Kfn@?$map@V?$basic_string@DU?$char_traits@D@std@@V?$allocator@D@2@@std@@V?$map@_JPBDU?$less@_J@std@@V?$allocator@PBD@2@@2@U?$less@V?$basic_string@DU?$char_traits@D@std@@V?$allocator@D@2@@std@@@2@V?$allocator@V?$map@_JPBDU?$less@_J@std@@V?$allocator@PBD@2@@std@@@2@@2@U?$less@V?$basic_string@DU?$char_traits@D@std@@V?$allocator@D@2@@std@@@2@V?$allocator@V?$map@_JPBDU?$less@_J@std@@V?$allocator@PBD@2@@std@@@2@@std@@QAE?AViterator@12@V312@@Z 100105f0 f i GameDataSet.obj
 0001:0000fb00       ?_Erase@?$_Tree@V?$basic_string@DU?$char_traits@D@std@@V?$allocator@D@2@@std@@U?$pair@$$CBV?$basic_string@DU?$char_traits@D@std@@V?$allocator@D@2@@std@@V?$map@_JPBDU?$less@_J@std@@V?$allocator@PBD@2@@2@@2@U_Kfn@?$map@V?$basic_string@DU?$char_traits@D@std@@V?$allocator@D@2@@std@@V?$map@_JPBDU?$less@_J@std@@V?$allocator@PBD@2@@2@U?$less@V?$basic_string@DU?$char_traits@D@std@@V?$allocator@D@2@@std@@@2@V?$allocator@V?$map@_JPBDU?$less@_J@std@@V?$allocator@PBD@2@@std@@@2@@2@U?$less@V?$basic_string@DU?$char_traits@D@std@@V?$allocator@D@2@@std@@@2@V?$allocator@V?$map@_JPBDU?$less@_J@std@@V?$allocator@PBD@2@@std@@@2@@std@@IAEXPAU_Node@12@@Z 10010b00 f i GameDataSet.obj
 0001:0000fb50       ?_Init@?$_Tree@V?$basic_string@DU?$char_traits@D@std@@V?$allocator@D@2@@std@@U?$pair@$$CBV?$basic_string@DU?$char_traits@D@std@@V?$allocator@D@2@@std@@V?$map@_JPBDU?$less@_J@std@@V?$allocator@PBD@2@@2@@2@U_Kfn@?$map@V?$basic_string@DU?$char_traits@D@std@@V?$allocator@D@2@@std@@V?$map@_JPBDU?$less@_J@std@@V?$allocator@PBD@2@@2@U?$less@V?$basic_string@DU?$char_traits@D@std@@V?$allocator@D@2@@std@@@2@V?$allocator@V?$map@_JPBDU?$less@_J@std@@V?$allocator@PBD@2@@std@@@2@@2@U?$less@V?$basic_string@DU?$char_traits@D@std@@V?$allocator@D@2@@std@@@2@V?$allocator@V?$map@_JPBDU?$less@_J@std@@V?$allocator@PBD@2@@std@@@2@@std@@IAEXXZ 10010b50 f i GameDataSet.obj
 0001:0000fbf0       ?erase@?$_Tree@_JU?$pair@$$CB_JPBD@std@@U_Kfn@?$map@_JPBDU?$less@_J@std@@V?$allocator@PBD@2@@2@U?$less@_J@2@V?$allocator@PBD@2@@std@@QAE?AViterator@12@V312@@Z 10010bf0 f i GameDataSet.obj
 0001:0000fff0       ?_Erase@?$_Tree@_JU?$pair@$$CB_JPBD@std@@U_Kfn@?$map@_JPBDU?$less@_J@std@@V?$allocator@PBD@2@@2@U?$less@_J@2@V?$allocator@PBD@2@@std@@IAEXPAU_Node@12@@Z 10010ff0 f i GameDataSet.obj
 0001:00010030       ?_Init@?$_Tree@_JU?$pair@$$CB_JPBD@std@@U_Kfn@?$map@_JPBDU?$less@_J@std@@V?$allocator@PBD@2@@2@U?$less@_J@2@V?$allocator@PBD@2@@std@@IAEXXZ 10011030 f i GameDataSet.obj
 0001:000100d0       ?erase@?$_Tree@V?$basic_string@DU?$char_traits@D@std@@V?$allocator@D@2@@std@@V12@U_Kfn@?$set@V?$basic_string@DU?$char_traits@D@std@@V?$allocator@D@2@@std@@U?$less@V?$basic_string@DU?$char_traits@D@std@@V?$allocator@D@2@@std@@@2@V?$allocator@V?$basic_string@DU?$char_traits@D@std@@V?$allocator@D@2@@std@@@2@@2@U?$less@V?$basic_string@DU?$char_traits@D@std@@V?$allocator@D@2@@std@@@2@V?$allocator@V?$basic_string@DU?$char_traits@D@std@@V?$allocator@D@2@@std@@@2@@std@@QAE?AViterator@12@V312@@Z 100110d0 f i GameDataSet.obj
 0001:00010500       ?_Erase@?$_Tree@V?$basic_string@DU?$char_traits@D@std@@V?$allocator@D@2@@std@@V12@U_Kfn@?$set@V?$basic_string@DU?$char_traits@D@std@@V?$allocator@D@2@@std@@U?$less@V?$basic_string@DU?$char_traits@D@std@@V?$allocator@D@2@@std@@@2@V?$allocator@V?$basic_string@DU?$char_traits@D@std@@V?$allocator@D@2@@std@@@2@@2@U?$less@V?$basic_string@DU?$char_traits@D@std@@V?$allocator@D@2@@std@@@2@V?$allocator@V?$basic_string@DU?$char_traits@D@std@@V?$allocator@D@2@@std@@@2@@std@@IAEXPAU_Node@12@@Z 10011500 f i GameDataSet.obj
 0001:00010570       ?_Init@?$_Tree@V?$basic_string@DU?$char_traits@D@std@@V?$allocator@D@2@@std@@V12@U_Kfn@?$set@V?$basic_string@DU?$char_traits@D@std@@V?$allocator@D@2@@std@@U?$less@V?$basic_string@DU?$char_traits@D@std@@V?$allocator@D@2@@std@@@2@V?$allocator@V?$basic_string@DU?$char_traits@D@std@@V?$allocator@D@2@@std@@@2@@2@U?$less@V?$basic_string@DU?$char_traits@D@std@@V?$allocator@D@2@@std@@@2@V?$allocator@V?$basic_string@DU?$char_traits@D@std@@V?$allocator@D@2@@std@@@2@@std@@IAEXXZ 10011570 f i GameDataSet.obj
 0001:00010610       ?erase@?$_Tree@KU?$pair@$$CBKV?$map@KKU?$less@K@std@@V?$allocator@K@2@@std@@@std@@U_Kfn@?$map@KV?$map@KKU?$less@K@std@@V?$allocator@K@2@@std@@U?$less@K@2@V?$allocator@V?$map@KKU?$less@K@std@@V?$allocator@K@2@@std@@@2@@2@U?$less@K@2@V?$allocator@V?$map@KKU?$less@K@std@@V?$allocator@K@2@@std@@@2@@std@@QAE?AViterator@12@V312@@Z 10011610 f i GameDataSet.obj
 0001:00010ba0       ?_Erase@?$_Tree@KU?$pair@$$CBKV?$map@KKU?$less@K@std@@V?$allocator@K@2@@std@@@std@@U_Kfn@?$map@KV?$map@KKU?$less@K@std@@V?$allocator@K@2@@std@@U?$less@K@2@V?$allocator@V?$map@KKU?$less@K@std@@V?$allocator@K@2@@std@@@2@@2@U?$less@K@2@V?$allocator@V?$map@KKU?$less@K@std@@V?$allocator@K@2@@std@@@2@@std@@IAEXPAU_Node@12@@Z 10011ba0 f i GameDataSet.obj
 0001:00010bf0       ?_Init@?$_Tree@KU?$pair@$$CBKV?$map@KKU?$less@K@std@@V?$allocator@K@2@@std@@@std@@U_Kfn@?$map@KV?$map@KKU?$less@K@std@@V?$allocator@K@2@@std@@U?$less@K@2@V?$allocator@V?$map@KKU?$less@K@std@@V?$allocator@K@2@@std@@@2@@2@U?$less@K@2@V?$allocator@V?$map@KKU?$less@K@std@@V?$allocator@K@2@@std@@@2@@std@@IAEXXZ 10011bf0 f i GameDataSet.obj
 0001:00010c90       ?erase@?$_Tree@V?$basic_string@DU?$char_traits@D@std@@V?$allocator@D@2@@std@@U?$pair@$$CBV?$basic_string@DU?$char_traits@D@std@@V?$allocator@D@2@@std@@V?$map@_JPAUC3DMotionInfo@@U?$less@_J@std@@V?$allocator@PAUC3DMotionInfo@@@3@@2@@2@U_Kfn@?$map@V?$basic_string@DU?$char_traits@D@std@@V?$allocator@D@2@@std@@V?$map@_JPAUC3DMotionInfo@@U?$less@_J@std@@V?$allocator@PAUC3DMotionInfo@@@3@@2@U?$less@V?$basic_string@DU?$char_traits@D@std@@V?$allocator@D@2@@std@@@2@V?$allocator@V?$map@_JPAUC3DMotionInfo@@U?$less@_J@std@@V?$allocator@PAUC3DMotionInfo@@@3@@std@@@2@@2@U?$less@V?$basic_string@DU?$char_traits@D@std@@V?$allocator@D@2@@std@@@2@V?$allocator@V?$map@_JPAUC3DMotionInfo@@U?$less@_J@std@@V?$allocator@PAUC3DMotionInfo@@@3@@std@@@2@@std@@QAE?AViterator@12@V312@@Z 10011c90 f i GameDataSet.obj
 0001:000111a0       ?_Erase@?$_Tree@V?$basic_string@DU?$char_traits@D@std@@V?$allocator@D@2@@std@@U?$pair@$$CBV?$basic_string@DU?$char_traits@D@std@@V?$allocator@D@2@@std@@V?$map@_JPAUC3DMotionInfo@@U?$less@_J@std@@V?$allocator@PAUC3DMotionInfo@@@3@@2@@2@U_Kfn@?$map@V?$basic_string@DU?$char_traits@D@std@@V?$allocator@D@2@@std@@V?$map@_JPAUC3DMotionInfo@@U?$less@_J@std@@V?$allocator@PAUC3DMotionInfo@@@3@@2@U?$less@V?$basic_string@DU?$char_traits@D@std@@V?$allocator@D@2@@std@@@2@V?$allocator@V?$map@_JPAUC3DMotionInfo@@U?$less@_J@std@@V?$allocator@PAUC3DMotionInfo@@@3@@std@@@2@@2@U?$less@V?$basic_string@DU?$char_traits@D@std@@V?$allocator@D@2@@std@@@2@V?$allocator@V?$map@_JPAUC3DMotionInfo@@U?$less@_J@std@@V?$allocator@PAUC3DMotionInfo@@@3@@std@@@2@@std@@IAEXPAU_Node@12@@Z 100121a0 f i GameDataSet.obj
 0001:000111f0       ?_Init@?$_Tree@V?$basic_string@DU?$char_traits@D@std@@V?$allocator@D@2@@std@@U?$pair@$$CBV?$basic_string@DU?$char_traits@D@std@@V?$allocator@D@2@@std@@V?$map@_JPAUC3DMotionInfo@@U?$less@_J@std@@V?$allocator@PAUC3DMotionInfo@@@3@@2@@2@U_Kfn@?$map@V?$basic_string@DU?$char_traits@D@std@@V?$allocator@D@2@@std@@V?$map@_JPAUC3DMotionInfo@@U?$less@_J@std@@V?$allocator@PAUC3DMotionInfo@@@3@@2@U?$less@V?$basic_string@DU?$char_traits@D@std@@V?$allocator@D@2@@std@@@2@V?$allocator@V?$map@_JPAUC3DMotionInfo@@U?$less@_J@std@@V?$allocator@PAUC3DMotionInfo@@@3@@std@@@2@@2@U?$less@V?$basic_string@DU?$char_traits@D@std@@V?$allocator@D@2@@std@@@2@V?$allocator@V?$map@_JPAUC3DMotionInfo@@U?$less@_J@std@@V?$allocator@PAUC3DMotionInfo@@@3@@std@@@2@@std@@IAEXXZ 100121f0 f i GameDataSet.obj
 0001:00011290       ?_Left@?$_Tree@_JU?$pair@$$CB_JPAUC3DMotionInfo@@@std@@U_Kfn@?$map@_JPAUC3DMotionInfo@@U?$less@_J@std@@V?$allocator@PAUC3DMotionInfo@@@3@@2@U?$less@_J@2@V?$allocator@PAUC3DMotionInfo@@@2@@std@@KAAAPAU_Node@12@PAU312@@Z 10012290 f i GameDataSet.obj
 0001:00011290       ?_Left@?$_Tree@_JU?$pair@$$CB_JPBD@std@@U_Kfn@?$map@_JPBDU?$less@_J@std@@V?$allocator@PBD@2@@2@U?$less@_J@2@V?$allocator@PBD@2@@std@@KAAAPAU_Node@12@PAU312@@Z 10012290 f i GameDataSet.obj
 0001:00011290       ?_Left@?$_Tree@IU?$pair@$$CBIURolePartInfo@@@std@@U_Kfn@?$map@IURolePartInfo@@U?$less@I@std@@V?$allocator@URolePartInfo@@@3@@2@U?$less@I@2@V?$allocator@URolePartInfo@@@2@@std@@KAAAPAU_Node@12@PAU312@@Z 10012290 f i GameDataSet.obj
 0001:00011290       ?_Left@?$_Tree@KU?$pair@$$CBKK@std@@U_Kfn@?$map@KKU?$less@K@std@@V?$allocator@K@2@@2@U?$less@K@2@V?$allocator@K@2@@std@@KAAAPAU_Node@12@PAU312@@Z 10012290 f i GameDataSet.obj
 0001:000112a0       ??0?$_Tree@_JU?$pair@$$CB_JPAUC3DMotionInfo@@@std@@U_Kfn@?$map@_JPAUC3DMotionInfo@@U?$less@_J@std@@V?$allocator@PAUC3DMotionInfo@@@3@@2@U?$less@_J@2@V?$allocator@PAUC3DMotionInfo@@@2@@std@@QAE@ABU?$less@_J@1@_NABV?$allocator@PAUC3DMotionInfo@@@1@@Z 100122a0 f i GameDataSet.obj
 0001:000112d0       ?insert@?$_Tree@_JU?$pair@$$CB_JPAUC3DMotionInfo@@@std@@U_Kfn@?$map@_JPAUC3DMotionInfo@@U?$less@_J@std@@V?$allocator@PAUC3DMotionInfo@@@3@@2@U?$less@_J@2@V?$allocator@PAUC3DMotionInfo@@@2@@std@@QAE?AU?$pair@Viterator@?$_Tree@_JU?$pair@$$CB_JPAUC3DMotionInfo@@@std@@U_Kfn@?$map@_JPAUC3DMotionInfo@@U?$less@_J@std@@V?$allocator@PAUC3DMotionInfo@@@3@@2@U?$less@_J@2@V?$allocator@PAUC3DMotionInfo@@@2@@std@@_N@2@ABU?$pair@$$CB_JPAUC3DMotionInfo@@@2@@Z 100122d0 f i GameDataSet.obj
 0001:00011540       ?erase@?$_Tree@_JU?$pair@$$CB_JPAUC3DMotionInfo@@@std@@U_Kfn@?$map@_JPAUC3DMotionInfo@@U?$less@_J@std@@V?$allocator@PAUC3DMotionInfo@@@3@@2@U?$less@_J@2@V?$allocator@PAUC3DMotionInfo@@@2@@std@@QAE?AViterator@12@V312@0@Z 10012540 f i GameDataSet.obj
 0001:00011610       ?lower_bound@?$_Tree@_JU?$pair@$$CB_JPAUC3DMotionInfo@@@std@@U_Kfn@?$map@_JPAUC3DMotionInfo@@U?$less@_J@std@@V?$allocator@PAUC3DMotionInfo@@@3@@2@U?$less@_J@2@V?$allocator@PAUC3DMotionInfo@@@2@@std@@QAE?AViterator@12@AB_J@Z 10012610 f i GameDataSet.obj
 0001:00011660       ?_Lrotate@?$_Tree@_JU?$pair@$$CB_JPAUC3DMotionInfo@@@std@@U_Kfn@?$map@_JPAUC3DMotionInfo@@U?$less@_J@std@@V?$allocator@PAUC3DMotionInfo@@@3@@2@U?$less@_J@2@V?$allocator@PAUC3DMotionInfo@@@2@@std@@IAEXPAU_Node@12@@Z 10012660 f i GameDataSet.obj
 0001:000116c0       ?_Min@?$_Tree@_JU?$pair@$$CB_JPAUC3DMotionInfo@@@std@@U_Kfn@?$map@_JPAUC3DMotionInfo@@U?$less@_J@std@@V?$allocator@PAUC3DMotionInfo@@@3@@2@U?$less@_J@2@V?$allocator@PAUC3DMotionInfo@@@2@@std@@KAPAU_Node@12@PAU312@@Z 100126c0 f i GameDataSet.obj
 0001:000116e0       ?_Rrotate@?$_Tree@_JU?$pair@$$CB_JPAUC3DMotionInfo@@@std@@U_Kfn@?$map@_JPAUC3DMotionInfo@@U?$less@_J@std@@V?$allocator@PAUC3DMotionInfo@@@3@@2@U?$less@_J@2@V?$allocator@PAUC3DMotionInfo@@@2@@std@@IAEXPAU_Node@12@@Z 100126e0 f i GameDataSet.obj
 0001:00011740       ?insert@?$_Tree@IU?$pair@$$CBIPAUC3DObjInfo@@@std@@U_Kfn@?$map@IPAUC3DObjInfo@@U?$less@I@std@@V?$allocator@PAUC3DObjInfo@@@3@@2@U?$less@I@2@V?$allocator@PAUC3DObjInfo@@@2@@std@@QAE?AU?$pair@Viterator@?$_Tree@IU?$pair@$$CBIPAUC3DObjInfo@@@std@@U_Kfn@?$map@IPAUC3DObjInfo@@U?$less@I@std@@V?$allocator@PAUC3DObjInfo@@@3@@2@U?$less@I@2@V?$allocator@PAUC3DObjInfo@@@2@@std@@_N@2@ABU?$pair@$$CBIPAUC3DObjInfo@@@2@@Z 10012740 f i GameDataSet.obj
 0001:00011980       ?_Erase@?$_Tree@IU?$pair@$$CBIPAUC3DObjInfo@@@std@@U_Kfn@?$map@IPAUC3DObjInfo@@U?$less@I@std@@V?$allocator@PAUC3DObjInfo@@@3@@2@U?$less@I@2@V?$allocator@PAUC3DObjInfo@@@2@@std@@IAEXPAU_Node@12@@Z 10012980 f i GameDataSet.obj
 0001:000119c0       ?_Init@?$_Tree@IU?$pair@$$CBIPAUC3DObjInfo@@@std@@U_Kfn@?$map@IPAUC3DObjInfo@@U?$less@I@std@@V?$allocator@PAUC3DObjInfo@@@3@@2@U?$less@I@2@V?$allocator@PAUC3DObjInfo@@@2@@std@@IAEXXZ 100129c0 f i GameDataSet.obj
 0001:00011a60       ?_Lrotate@?$_Tree@IU?$pair@$$CBIPAUC3DObjInfo@@@std@@U_Kfn@?$map@IPAUC3DObjInfo@@U?$less@I@std@@V?$allocator@PAUC3DObjInfo@@@3@@2@U?$less@I@2@V?$allocator@PAUC3DObjInfo@@@2@@std@@IAEXPAU_Node@12@@Z 10012a60 f i GameDataSet.obj
 0001:00011ac0       ?_Rrotate@?$_Tree@IU?$pair@$$CBIPAUC3DObjInfo@@@std@@U_Kfn@?$map@IPAUC3DObjInfo@@U?$less@I@std@@V?$allocator@PAUC3DObjInfo@@@3@@2@U?$less@I@2@V?$allocator@PAUC3DObjInfo@@@2@@std@@IAEXPAU_Node@12@@Z 10012ac0 f i GameDataSet.obj
 0001:00011b20       ?insert@?$_Tree@IU?$pair@$$CBIPAUC3DTextureInfo@@@std@@U_Kfn@?$map@IPAUC3DTextureInfo@@U?$less@I@std@@V?$allocator@PAUC3DTextureInfo@@@3@@2@U?$less@I@2@V?$allocator@PAUC3DTextureInfo@@@2@@std@@QAE?AU?$pair@Viterator@?$_Tree@IU?$pair@$$CBIPAUC3DTextureInfo@@@std@@U_Kfn@?$map@IPAUC3DTextureInfo@@U?$less@I@std@@V?$allocator@PAUC3DTextureInfo@@@3@@2@U?$less@I@2@V?$allocator@PAUC3DTextureInfo@@@2@@std@@_N@2@ABU?$pair@$$CBIPAUC3DTextureInfo@@@2@@Z 10012b20 f i GameDataSet.obj
 0001:00011d60       ?lower_bound@?$_Tree@IU?$pair@$$CBIPAUC3DTextureInfo@@@std@@U_Kfn@?$map@IPAUC3DTextureInfo@@U?$less@I@std@@V?$allocator@PAUC3DTextureInfo@@@3@@2@U?$less@I@2@V?$allocator@PAUC3DTextureInfo@@@2@@std@@QAE?AViterator@12@ABI@Z 10012d60 f i GameDataSet.obj
 0001:00011da0       ?_Erase@?$_Tree@IU?$pair@$$CBIPAUC3DTextureInfo@@@std@@U_Kfn@?$map@IPAUC3DTextureInfo@@U?$less@I@std@@V?$allocator@PAUC3DTextureInfo@@@3@@2@U?$less@I@2@V?$allocator@PAUC3DTextureInfo@@@2@@std@@IAEXPAU_Node@12@@Z 10012da0 f i GameDataSet.obj
 0001:00011de0       ?_Init@?$_Tree@IU?$pair@$$CBIPAUC3DTextureInfo@@@std@@U_Kfn@?$map@IPAUC3DTextureInfo@@U?$less@I@std@@V?$allocator@PAUC3DTextureInfo@@@3@@2@U?$less@I@2@V?$allocator@PAUC3DTextureInfo@@@2@@std@@IAEXXZ 10012de0 f i GameDataSet.obj
 0001:00011e80       ?_Lrotate@?$_Tree@IU?$pair@$$CBIPAUC3DTextureInfo@@@std@@U_Kfn@?$map@IPAUC3DTextureInfo@@U?$less@I@std@@V?$allocator@PAUC3DTextureInfo@@@3@@2@U?$less@I@2@V?$allocator@PAUC3DTextureInfo@@@2@@std@@IAEXPAU_Node@12@@Z 10012e80 f i GameDataSet.obj
 0001:00011ee0       ?_Rrotate@?$_Tree@IU?$pair@$$CBIPAUC3DTextureInfo@@@std@@U_Kfn@?$map@IPAUC3DTextureInfo@@U?$less@I@std@@V?$allocator@PAUC3DTextureInfo@@@3@@2@U?$less@I@2@V?$allocator@PAUC3DTextureInfo@@@2@@std@@IAEXPAU_Node@12@@Z 10012ee0 f i GameDataSet.obj
 0001:00011f40       ?insert@?$_Tree@IU?$pair@$$CBIPAUC3DEffectInfo@@@std@@U_Kfn@?$map@IPAUC3DEffectInfo@@U?$less@I@std@@V?$allocator@PAUC3DEffectInfo@@@3@@2@U?$less@I@2@V?$allocator@PAUC3DEffectInfo@@@2@@std@@QAE?AU?$pair@Viterator@?$_Tree@IU?$pair@$$CBIPAUC3DEffectInfo@@@std@@U_Kfn@?$map@IPAUC3DEffectInfo@@U?$less@I@std@@V?$allocator@PAUC3DEffectInfo@@@3@@2@U?$less@I@2@V?$allocator@PAUC3DEffectInfo@@@2@@std@@_N@2@ABU?$pair@$$CBIPAUC3DEffectInfo@@@2@@Z 10012f40 f i GameDataSet.obj
 0001:00012180       ?_Erase@?$_Tree@IU?$pair@$$CBIPAUC3DEffectInfo@@@std@@U_Kfn@?$map@IPAUC3DEffectInfo@@U?$less@I@std@@V?$allocator@PAUC3DEffectInfo@@@3@@2@U?$less@I@2@V?$allocator@PAUC3DEffectInfo@@@2@@std@@IAEXPAU_Node@12@@Z 10013180 f i GameDataSet.obj
 0001:000121c0       ?_Init@?$_Tree@IU?$pair@$$CBIPAUC3DEffectInfo@@@std@@U_Kfn@?$map@IPAUC3DEffectInfo@@U?$less@I@std@@V?$allocator@PAUC3DEffectInfo@@@3@@2@U?$less@I@2@V?$allocator@PAUC3DEffectInfo@@@2@@std@@IAEXXZ 100131c0 f i GameDataSet.obj
 0001:00012260       ?_Lrotate@?$_Tree@IU?$pair@$$CBIPAUC3DEffectInfo@@@std@@U_Kfn@?$map@IPAUC3DEffectInfo@@U?$less@I@std@@V?$allocator@PAUC3DEffectInfo@@@3@@2@U?$less@I@2@V?$allocator@PAUC3DEffectInfo@@@2@@std@@IAEXPAU_Node@12@@Z 10013260 f i GameDataSet.obj
 0001:000122c0       ?_Rrotate@?$_Tree@IU?$pair@$$CBIPAUC3DEffectInfo@@@std@@U_Kfn@?$map@IPAUC3DEffectInfo@@U?$less@I@std@@V?$allocator@PAUC3DEffectInfo@@@3@@2@U?$less@I@2@V?$allocator@PAUC3DEffectInfo@@@2@@std@@IAEXPAU_Node@12@@Z 100132c0 f i GameDataSet.obj
 0001:00012320       ?insert@?$_Tree@IU?$pair@$$CBIPAUC3DSceneRef@@@std@@U_Kfn@?$map@IPAUC3DSceneRef@@U?$less@I@std@@V?$allocator@PAUC3DSceneRef@@@3@@2@U?$less@I@2@V?$allocator@PAUC3DSceneRef@@@2@@std@@QAE?AU?$pair@Viterator@?$_Tree@IU?$pair@$$CBIPAUC3DSceneRef@@@std@@U_Kfn@?$map@IPAUC3DSceneRef@@U?$less@I@std@@V?$allocator@PAUC3DSceneRef@@@3@@2@U?$less@I@2@V?$allocator@PAUC3DSceneRef@@@2@@std@@_N@2@ABU?$pair@$$CBIPAUC3DSceneRef@@@2@@Z 10013320 f i GameDataSet.obj
 0001:00012560       ?lower_bound@?$_Tree@IU?$pair@$$CBIPAUC3DSceneRef@@@std@@U_Kfn@?$map@IPAUC3DSceneRef@@U?$less@I@std@@V?$allocator@PAUC3DSceneRef@@@3@@2@U?$less@I@2@V?$allocator@PAUC3DSceneRef@@@2@@std@@QAE?AViterator@12@ABI@Z 10013560 f i GameDataSet.obj
 0001:000125a0       ?_Erase@?$_Tree@IU?$pair@$$CBIPAUC3DSceneRef@@@std@@U_Kfn@?$map@IPAUC3DSceneRef@@U?$less@I@std@@V?$allocator@PAUC3DSceneRef@@@3@@2@U?$less@I@2@V?$allocator@PAUC3DSceneRef@@@2@@std@@IAEXPAU_Node@12@@Z 100135a0 f i GameDataSet.obj
 0001:000125e0       ?_Init@?$_Tree@IU?$pair@$$CBIPAUC3DSceneRef@@@std@@U_Kfn@?$map@IPAUC3DSceneRef@@U?$less@I@std@@V?$allocator@PAUC3DSceneRef@@@3@@2@U?$less@I@2@V?$allocator@PAUC3DSceneRef@@@2@@std@@IAEXXZ 100135e0 f i GameDataSet.obj
 0001:00012680       ?_Lrotate@?$_Tree@IU?$pair@$$CBIPAUC3DSceneRef@@@std@@U_Kfn@?$map@IPAUC3DSceneRef@@U?$less@I@std@@V?$allocator@PAUC3DSceneRef@@@3@@2@U?$less@I@2@V?$allocator@PAUC3DSceneRef@@@2@@std@@IAEXPAU_Node@12@@Z 10013680 f i GameDataSet.obj
 0001:000126e0       ?_Rrotate@?$_Tree@IU?$pair@$$CBIPAUC3DSceneRef@@@std@@U_Kfn@?$map@IPAUC3DSceneRef@@U?$less@I@std@@V?$allocator@PAUC3DSceneRef@@@3@@2@U?$less@I@2@V?$allocator@PAUC3DSceneRef@@@2@@std@@IAEXPAU_Node@12@@Z 100136e0 f i GameDataSet.obj
 0001:00012740       ?insert@?$_Tree@IU?$pair@$$CBIPAUCAniRef@@@std@@U_Kfn@?$map@IPAUCAniRef@@U?$less@I@std@@V?$allocator@PAUCAniRef@@@3@@2@U?$less@I@2@V?$allocator@PAUCAniRef@@@2@@std@@QAE?AU?$pair@Viterator@?$_Tree@IU?$pair@$$CBIPAUCAniRef@@@std@@U_Kfn@?$map@IPAUCAniRef@@U?$less@I@std@@V?$allocator@PAUCAniRef@@@3@@2@U?$less@I@2@V?$allocator@PAUCAniRef@@@2@@std@@_N@2@ABU?$pair@$$CBIPAUCAniRef@@@2@@Z 10013740 f i GameDataSet.obj
 0001:00012980       ?lower_bound@?$_Tree@IU?$pair@$$CBIPAUCAniRef@@@std@@U_Kfn@?$map@IPAUCAniRef@@U?$less@I@std@@V?$allocator@PAUCAniRef@@@3@@2@U?$less@I@2@V?$allocator@PAUCAniRef@@@2@@std@@QAE?AViterator@12@ABI@Z 10013980 f i GameDataSet.obj
 0001:000129c0       ?_Erase@?$_Tree@IU?$pair@$$CBIPAUCAniRef@@@std@@U_Kfn@?$map@IPAUCAniRef@@U?$less@I@std@@V?$allocator@PAUCAniRef@@@3@@2@U?$less@I@2@V?$allocator@PAUCAniRef@@@2@@std@@IAEXPAU_Node@12@@Z 100139c0 f i GameDataSet.obj
 0001:00012a00       ?_Init@?$_Tree@IU?$pair@$$CBIPAUCAniRef@@@std@@U_Kfn@?$map@IPAUCAniRef@@U?$less@I@std@@V?$allocator@PAUCAniRef@@@3@@2@U?$less@I@2@V?$allocator@PAUCAniRef@@@2@@std@@IAEXXZ 10013a00 f i GameDataSet.obj
 0001:00012aa0       ?_Lrotate@?$_Tree@IU?$pair@$$CBIPAUCAniRef@@@std@@U_Kfn@?$map@IPAUCAniRef@@U?$less@I@std@@V?$allocator@PAUCAniRef@@@3@@2@U?$less@I@2@V?$allocator@PAUCAniRef@@@2@@std@@IAEXPAU_Node@12@@Z 10013aa0 f i GameDataSet.obj
 0001:00012b00       ?_Rrotate@?$_Tree@IU?$pair@$$CBIPAUCAniRef@@@std@@U_Kfn@?$map@IPAUCAniRef@@U?$less@I@std@@V?$allocator@PAUCAniRef@@@3@@2@U?$less@I@2@V?$allocator@PAUCAniRef@@@2@@std@@IAEXPAU_Node@12@@Z 10013b00 f i GameDataSet.obj
 0001:00012b60       ?insert@?$_Tree@V?$basic_string@DU?$char_traits@D@std@@V?$allocator@D@2@@std@@U?$pair@$$CBV?$basic_string@DU?$char_traits@D@std@@V?$allocator@D@2@@std@@URES_RECORD@@@2@U_Kfn@?$map@V?$basic_string@DU?$char_traits@D@std@@V?$allocator@D@2@@std@@URES_RECORD@@U?$less@V?$basic_string@DU?$char_traits@D@std@@V?$allocator@D@2@@std@@@2@V?$allocator@URES_RECORD@@@2@@2@U?$less@V?$basic_string@DU?$char_traits@D@std@@V?$allocator@D@2@@std@@@2@V?$allocator@URES_RECORD@@@2@@std@@QAE?AU?$pair@Viterator@?$_Tree@V?$basic_string@DU?$char_traits@D@std@@V?$allocator@D@2@@std@@U?$pair@$$CBV?$basic_string@DU?$char_traits@D@std@@V?$allocator@D@2@@std@@URES_RECORD@@@2@U_Kfn@?$map@V?$basic_string@DU?$char_traits@D@std@@V?$allocator@D@2@@std@@URES_RECORD@@U?$less@V?$basic_string@DU?$char_traits@D@std@@V?$allocator@D@2@@std@@@2@V?$allocator@URES_RECORD@@@2@@2@U?$less@V?$basic_string@DU?$char_traits@D@std@@V?$allocator@D@2@@std@@@2@V?$allocator@URES_RECORD@@@2@@std@@_N@2@ABU?$pair@$$CBV?$basic_string@DU?$char_traits@D@std@@V?$allocator@D@2@@std@@URES_RECORD@@@2@@Z 10013b60 f i GameDataSet.obj
 0001:00012db0       ?lower_bound@?$_Tree@V?$basic_string@DU?$char_traits@D@std@@V?$allocator@D@2@@std@@U?$pair@$$CBV?$basic_string@DU?$char_traits@D@std@@V?$allocator@D@2@@std@@URES_RECORD@@@2@U_Kfn@?$map@V?$basic_string@DU?$char_traits@D@std@@V?$allocator@D@2@@std@@URES_RECORD@@U?$less@V?$basic_string@DU?$char_traits@D@std@@V?$allocator@D@2@@std@@@2@V?$allocator@URES_RECORD@@@2@@2@U?$less@V?$basic_string@DU?$char_traits@D@std@@V?$allocator@D@2@@std@@@2@V?$allocator@URES_RECORD@@@2@@std@@QAE?AViterator@12@ABV?$basic_string@DU?$char_traits@D@std@@V?$allocator@D@2@@2@@Z 10013db0 f i GameDataSet.obj
 0001:00012e10       ?_Erase@?$_Tree@V?$basic_string@DU?$char_traits@D@std@@V?$allocator@D@2@@std@@U?$pair@$$CBV?$basic_string@DU?$char_traits@D@std@@V?$allocator@D@2@@std@@URES_RECORD@@@2@U_Kfn@?$map@V?$basic_string@DU?$char_traits@D@std@@V?$allocator@D@2@@std@@URES_RECORD@@U?$less@V?$basic_string@DU?$char_traits@D@std@@V?$allocator@D@2@@std@@@2@V?$allocator@URES_RECORD@@@2@@2@U?$less@V?$basic_string@DU?$char_traits@D@std@@V?$allocator@D@2@@std@@@2@V?$allocator@URES_RECORD@@@2@@std@@IAEXPAU_Node@12@@Z 10013e10 f i GameDataSet.obj
 0001:00012e60       ?_Init@?$_Tree@V?$basic_string@DU?$char_traits@D@std@@V?$allocator@D@2@@std@@U?$pair@$$CBV?$basic_string@DU?$char_traits@D@std@@V?$allocator@D@2@@std@@URES_RECORD@@@2@U_Kfn@?$map@V?$basic_string@DU?$char_traits@D@std@@V?$allocator@D@2@@std@@URES_RECORD@@U?$less@V?$basic_string@DU?$char_traits@D@std@@V?$allocator@D@2@@std@@@2@V?$allocator@URES_RECORD@@@2@@2@U?$less@V?$basic_string@DU?$char_traits@D@std@@V?$allocator@D@2@@std@@@2@V?$allocator@URES_RECORD@@@2@@std@@IAEXXZ 10013e60 f i GameDataSet.obj
 0001:00012f00       ?_Lrotate@?$_Tree@V?$basic_string@DU?$char_traits@D@std@@V?$allocator@D@2@@std@@U?$pair@$$CBV?$basic_string@DU?$char_traits@D@std@@V?$allocator@D@2@@std@@URES_RECORD@@@2@U_Kfn@?$map@V?$basic_string@DU?$char_traits@D@std@@V?$allocator@D@2@@std@@URES_RECORD@@U?$less@V?$basic_string@DU?$char_traits@D@std@@V?$allocator@D@2@@std@@@2@V?$allocator@URES_RECORD@@@2@@2@U?$less@V?$basic_string@DU?$char_traits@D@std@@V?$allocator@D@2@@std@@@2@V?$allocator@URES_RECORD@@@2@@std@@IAEXPAU_Node@12@@Z 10013f00 f i GameDataSet.obj
 0001:00012f60       ?_Rrotate@?$_Tree@V?$basic_string@DU?$char_traits@D@std@@V?$allocator@D@2@@std@@U?$pair@$$CBV?$basic_string@DU?$char_traits@D@std@@V?$allocator@D@2@@std@@URES_RECORD@@@2@U_Kfn@?$map@V?$basic_string@DU?$char_traits@D@std@@V?$allocator@D@2@@std@@URES_RECORD@@U?$less@V?$basic_string@DU?$char_traits@D@std@@V?$allocator@D@2@@std@@@2@V?$allocator@URES_RECORD@@@2@@2@U?$less@V?$basic_string@DU?$char_traits@D@std@@V?$allocator@D@2@@std@@@2@V?$allocator@URES_RECORD@@@2@@std@@IAEXPAU_Node@12@@Z 10013f60 f i GameDataSet.obj
 0001:00012fc0       ?insert@?$_Tree@PAXU?$pair@QAXPBD@std@@U_Kfn@?$map@PAXPBDU?$less@PAX@std@@V?$allocator@PBD@2@@2@U?$less@PAX@2@V?$allocator@PBD@2@@std@@QAE?AU?$pair@Viterator@?$_Tree@PAXU?$pair@QAXPBD@std@@U_Kfn@?$map@PAXPBDU?$less@PAX@std@@V?$allocator@PBD@2@@2@U?$less@PAX@2@V?$allocator@PBD@2@@std@@_N@2@ABU?$pair@QAXPBD@2@@Z 10013fc0 f i GameDataSet.obj
 0001:00013200       ?_Erase@?$_Tree@PAXU?$pair@QAXPBD@std@@U_Kfn@?$map@PAXPBDU?$less@PAX@std@@V?$allocator@PBD@2@@2@U?$less@PAX@2@V?$allocator@PBD@2@@std@@IAEXPAU_Node@12@@Z 10014200 f i GameDataSet.obj
 0001:00013240       ?_Init@?$_Tree@PAXU?$pair@QAXPBD@std@@U_Kfn@?$map@PAXPBDU?$less@PAX@std@@V?$allocator@PBD@2@@2@U?$less@PAX@2@V?$allocator@PBD@2@@std@@IAEXXZ 10014240 f i GameDataSet.obj
 0001:000132e0       ?_Lrotate@?$_Tree@PAXU?$pair@QAXPBD@std@@U_Kfn@?$map@PAXPBDU?$less@PAX@std@@V?$allocator@PBD@2@@2@U?$less@PAX@2@V?$allocator@PBD@2@@std@@IAEXPAU_Node@12@@Z 100142e0 f i GameDataSet.obj
 0001:00013340       ?_Rrotate@?$_Tree@PAXU?$pair@QAXPBD@std@@U_Kfn@?$map@PAXPBDU?$less@PAX@std@@V?$allocator@PBD@2@@2@U?$less@PAX@2@V?$allocator@PBD@2@@std@@IAEXPAU_Node@12@@Z 10014340 f i GameDataSet.obj
 0001:000133a0       ?pop_back@?$deque@PAVCDataThreadObj@@V?$allocator@PAVCDataThreadObj@@@std@@@std@@QAEXXZ 100143a0 f i GameDataSet.obj
 0001:000134e0       ?_Freefront@?$deque@PAVCDataThreadObj@@V?$allocator@PAVCDataThreadObj@@@std@@@std@@IAEXXZ 100144e0 f i GameDataSet.obj
 0001:00013560       ??0const_iterator@?$deque@PAVCDataThreadObj@@V?$allocator@PAVCDataThreadObj@@@std@@@std@@QAE@XZ 10014560 f i GameDataSet.obj
 0001:00013570       ??Hiterator@?$deque@PAVCDataThreadObj@@V?$allocator@PAVCDataThreadObj@@@std@@@std@@QBE?AV012@H@Z 10014570 f i GameDataSet.obj
 0001:000135d0       ?erase@?$_Tree@V?$basic_string@DU?$char_traits@D@std@@V?$allocator@D@2@@std@@U?$pair@$$CBV?$basic_string@DU?$char_traits@D@std@@V?$allocator@D@2@@std@@PAV?$map@_JKU?$less@_J@std@@V?$allocator@K@2@@2@@2@U_Kfn@?$map@V?$basic_string@DU?$char_traits@D@std@@V?$allocator@D@2@@std@@PAV?$map@_JKU?$less@_J@std@@V?$allocator@K@2@@2@U?$less@V?$basic_string@DU?$char_traits@D@std@@V?$allocator@D@2@@std@@@2@V?$allocator@PAV?$map@_JKU?$less@_J@std@@V?$allocator@K@2@@std@@@2@@2@U?$less@V?$basic_string@DU?$char_traits@D@std@@V?$allocator@D@2@@std@@@2@V?$allocator@PAV?$map@_JKU?$less@_J@std@@V?$allocator@K@2@@std@@@2@@std@@QAE?AViterator@12@V312@@Z 100145d0 f i GameDataSet.obj
 0001:00013a00       ?_Erase@?$_Tree@V?$basic_string@DU?$char_traits@D@std@@V?$allocator@D@2@@std@@U?$pair@$$CBV?$basic_string@DU?$char_traits@D@std@@V?$allocator@D@2@@std@@PAV?$map@_JKU?$less@_J@std@@V?$allocator@K@2@@2@@2@U_Kfn@?$map@V?$basic_string@DU?$char_traits@D@std@@V?$allocator@D@2@@std@@PAV?$map@_JKU?$less@_J@std@@V?$allocator@K@2@@2@U?$less@V?$basic_string@DU?$char_traits@D@std@@V?$allocator@D@2@@std@@@2@V?$allocator@PAV?$map@_JKU?$less@_J@std@@V?$allocator@K@2@@std@@@2@@2@U?$less@V?$basic_string@DU?$char_traits@D@std@@V?$allocator@D@2@@std@@@2@V?$allocator@PAV?$map@_JKU?$less@_J@std@@V?$allocator@K@2@@std@@@2@@std@@IAEXPAU_Node@12@@Z 10014a00 f i GameDataSet.obj
 0001:00013a50       ?_Init@?$_Tree@V?$basic_string@DU?$char_traits@D@std@@V?$allocator@D@2@@std@@U?$pair@$$CBV?$basic_string@DU?$char_traits@D@std@@V?$allocator@D@2@@std@@PAV?$map@_JKU?$less@_J@std@@V?$allocator@K@2@@2@@2@U_Kfn@?$map@V?$basic_string@DU?$char_traits@D@std@@V?$allocator@D@2@@std@@PAV?$map@_JKU?$less@_J@std@@V?$allocator@K@2@@2@U?$less@V?$basic_string@DU?$char_traits@D@std@@V?$allocator@D@2@@std@@@2@V?$allocator@PAV?$map@_JKU?$less@_J@std@@V?$allocator@K@2@@std@@@2@@2@U?$less@V?$basic_string@DU?$char_traits@D@std@@V?$allocator@D@2@@std@@@2@V?$allocator@PAV?$map@_JKU?$less@_J@std@@V?$allocator@K@2@@std@@@2@@std@@IAEXXZ 10014a50 f i GameDataSet.obj
 0001:00013af0       ?erase@?$_Tree@IU?$pair@$$CBIUDETAIL_INFO@CGameDataSetX@@@std@@U_Kfn@?$map@IUDETAIL_INFO@CGameDataSetX@@U?$less@I@std@@V?$allocator@UDETAIL_INFO@CGameDataSetX@@@4@@2@U?$less@I@2@V?$allocator@UDETAIL_INFO@CGameDataSetX@@@2@@std@@QAE?AViterator@12@V312@@Z 10014af0 f i GameDataSet.obj
 0001:00013ef0       ?_Erase@?$_Tree@IU?$pair@$$CBIUDETAIL_INFO@CGameDataSetX@@@std@@U_Kfn@?$map@IUDETAIL_INFO@CGameDataSetX@@U?$less@I@std@@V?$allocator@UDETAIL_INFO@CGameDataSetX@@@4@@2@U?$less@I@2@V?$allocator@UDETAIL_INFO@CGameDataSetX@@@2@@std@@IAEXPAU_Node@12@@Z 10014ef0 f i GameDataSet.obj
 0001:00013f30       ?_Init@?$_Tree@IU?$pair@$$CBIUDETAIL_INFO@CGameDataSetX@@@std@@U_Kfn@?$map@IUDETAIL_INFO@CGameDataSetX@@U?$less@I@std@@V?$allocator@UDETAIL_INFO@CGameDataSetX@@@4@@2@U?$less@I@2@V?$allocator@UDETAIL_INFO@CGameDataSetX@@@2@@std@@IAEXXZ 10014f30 f i GameDataSet.obj
 0001:00013fd0       ?erase@?$_Tree@HU?$pair@$$CBHUC3_RES_LOD_DESC@CGameDataSetX@@@std@@U_Kfn@?$map@HUC3_RES_LOD_DESC@CGameDataSetX@@U?$less@H@std@@V?$allocator@UC3_RES_LOD_DESC@CGameDataSetX@@@4@@2@U?$less@H@2@V?$allocator@UC3_RES_LOD_DESC@CGameDataSetX@@@2@@std@@QAE?AViterator@12@V312@@Z 10014fd0 f i GameDataSet.obj
 0001:000145f0       ?deallocate@?$allocator@PBD@std@@QAEXPAXI@Z 100155f0 f i GameDataSet.obj
 0001:00014600       ?_Erase@?$_Tree@HU?$pair@$$CBHUC3_RES_LOD_DESC@CGameDataSetX@@@std@@U_Kfn@?$map@HUC3_RES_LOD_DESC@CGameDataSetX@@U?$less@H@std@@V?$allocator@UC3_RES_LOD_DESC@CGameDataSetX@@@4@@2@U?$less@H@2@V?$allocator@UC3_RES_LOD_DESC@CGameDataSetX@@@2@@std@@IAEXPAU_Node@12@@Z 10015600 f i GameDataSet.obj
 0001:00014650       ?_Init@?$_Tree@HU?$pair@$$CBHUC3_RES_LOD_DESC@CGameDataSetX@@@std@@U_Kfn@?$map@HUC3_RES_LOD_DESC@CGameDataSetX@@U?$less@H@std@@V?$allocator@UC3_RES_LOD_DESC@CGameDataSetX@@@4@@2@U?$less@H@2@V?$allocator@UC3_RES_LOD_DESC@CGameDataSetX@@@2@@std@@IAEXXZ 10015650 f i GameDataSet.obj
 0001:000146f0       ??0?$pair@Viterator@?$_Tree@V?$basic_string@DU?$char_traits@D@std@@V?$allocator@D@2@@std@@U?$pair@$$CBV?$basic_string@DU?$char_traits@D@std@@V?$allocator@D@2@@std@@V?$map@IURolePartInfo@@U?$less@I@std@@V?$allocator@URolePartInfo@@@3@@2@@2@U_Kfn@?$map@V?$basic_string@DU?$char_traits@D@std@@V?$allocator@D@2@@std@@V?$map@IURolePartInfo@@U?$less@I@std@@V?$allocator@URolePartInfo@@@3@@2@U?$less@V?$basic_string@DU?$char_traits@D@std@@V?$allocator@D@2@@std@@@2@V?$allocator@V?$map@IURolePartInfo@@U?$less@I@std@@V?$allocator@URolePartInfo@@@3@@std@@@2@@2@U?$less@V?$basic_string@DU?$char_traits@D@std@@V?$allocator@D@2@@std@@@2@V?$allocator@V?$map@IURolePartInfo@@U?$less@I@std@@V?$allocator@URolePartInfo@@@3@@std@@@2@@std@@_N@std@@QAE@ABViterator@?$_Tree@V?$basic_string@DU?$char_traits@D@std@@V?$allocator@D@2@@std@@U?$pair@$$CBV?$basic_string@DU?$char_traits@D@std@@V?$allocator@D@2@@std@@V?$map@IURolePartInfo@@U?$less@I@std@@V?$allocator@URolePartInfo@@@3@@2@@2@U_Kfn@?$map@V?$basic_string@DU?$char_traits@D@std@@V?$allocator@D@2@@std@@V?$map@IURolePartInfo@@U?$less@I@std@@V?$allocator@URolePartInfo@@@3@@2@U?$less@V?$basic_string@DU?$char_traits@D@std@@V?$allocator@D@2@@std@@@2@V?$allocator@V?$map@IURolePartInfo@@U?$less@I@std@@V?$allocator@URolePartInfo@@@3@@std@@@2@@2@U?$less@V?$basic_string@DU?$char_traits@D@std@@V?$allocator@D@2@@std@@@2@V?$allocator@V?$map@IURolePartInfo@@U?$less@I@std@@V?$allocator@URolePartInfo@@@3@@std@@@2@@1@AB_N@Z 100156f0 f i GameDataSet.obj
 0001:000146f0       ??0?$pair@Viterator@?$_Tree@IU?$pair@$$CBIPAUC3DSceneRef@@@std@@U_Kfn@?$map@IPAUC3DSceneRef@@U?$less@I@std@@V?$allocator@PAUC3DSceneRef@@@3@@2@U?$less@I@2@V?$allocator@PAUC3DSceneRef@@@2@@std@@_N@std@@QAE@ABViterator@?$_Tree@IU?$pair@$$CBIPAUC3DSceneRef@@@std@@U_Kfn@?$map@IPAUC3DSceneRef@@U?$less@I@std@@V?$allocator@PAUC3DSceneRef@@@3@@2@U?$less@I@2@V?$allocator@PAUC3DSceneRef@@@2@@1@AB_N@Z 100156f0 f i GameDataSet.obj
 0001:000146f0       ??0?$pair@Viterator@?$_Tree@IU?$pair@$$CBIPAUCAniRef@@@std@@U_Kfn@?$map@IPAUCAniRef@@U?$less@I@std@@V?$allocator@PAUCAniRef@@@3@@2@U?$less@I@2@V?$allocator@PAUCAniRef@@@2@@std@@_N@std@@QAE@ABViterator@?$_Tree@IU?$pair@$$CBIPAUCAniRef@@@std@@U_Kfn@?$map@IPAUCAniRef@@U?$less@I@std@@V?$allocator@PAUCAniRef@@@3@@2@U?$less@I@2@V?$allocator@PAUCAniRef@@@2@@1@AB_N@Z 100156f0 f i GameDataSet.obj
 0001:000146f0       ??0?$pair@Viterator@?$_Tree@IU?$pair@$$CBIPAUC3DTextureInfo@@@std@@U_Kfn@?$map@IPAUC3DTextureInfo@@U?$less@I@std@@V?$allocator@PAUC3DTextureInfo@@@3@@2@U?$less@I@2@V?$allocator@PAUC3DTextureInfo@@@2@@std@@_N@std@@QAE@ABViterator@?$_Tree@IU?$pair@$$CBIPAUC3DTextureInfo@@@std@@U_Kfn@?$map@IPAUC3DTextureInfo@@U?$less@I@std@@V?$allocator@PAUC3DTextureInfo@@@3@@2@U?$less@I@2@V?$allocator@PAUC3DTextureInfo@@@2@@1@AB_N@Z 100156f0 f i GameDataSet.obj
 0001:000146f0       ??0?$pair@Viterator@?$_Tree@IU?$pair@$$CBIUC3DSimpleObjInfoEx@@@std@@U_Kfn@?$map@IUC3DSimpleObjInfoEx@@U?$less@I@std@@V?$allocator@UC3DSimpleObjInfoEx@@@3@@2@U?$less@I@2@V?$allocator@UC3DSimpleObjInfoEx@@@2@@std@@_N@std@@QAE@ABViterator@?$_Tree@IU?$pair@$$CBIUC3DSimpleObjInfoEx@@@std@@U_Kfn@?$map@IUC3DSimpleObjInfoEx@@U?$less@I@std@@V?$allocator@UC3DSimpleObjInfoEx@@@3@@2@U?$less@I@2@V?$allocator@UC3DSimpleObjInfoEx@@@2@@1@AB_N@Z 100156f0 f i GameDataSet.obj
 0001:000146f0       ??0?$pair@Viterator@?$_Tree@IU?$pair@$$CBIPAUC3DEffectInfo@@@std@@U_Kfn@?$map@IPAUC3DEffectInfo@@U?$less@I@std@@V?$allocator@PAUC3DEffectInfo@@@3@@2@U?$less@I@2@V?$allocator@PAUC3DEffectInfo@@@2@@std@@_N@std@@QAE@ABViterator@?$_Tree@IU?$pair@$$CBIPAUC3DEffectInfo@@@std@@U_Kfn@?$map@IPAUC3DEffectInfo@@U?$less@I@std@@V?$allocator@PAUC3DEffectInfo@@@3@@2@U?$less@I@2@V?$allocator@PAUC3DEffectInfo@@@2@@1@AB_N@Z 100156f0 f i GameDataSet.obj
 0001:000146f0       ??0?$pair@Viterator@?$_Tree@IU?$pair@$$CBIPAUC3DObjInfo@@@std@@U_Kfn@?$map@IPAUC3DObjInfo@@U?$less@I@std@@V?$allocator@PAUC3DObjInfo@@@3@@2@U?$less@I@2@V?$allocator@PAUC3DObjInfo@@@2@@std@@_N@std@@QAE@ABViterator@?$_Tree@IU?$pair@$$CBIPAUC3DObjInfo@@@std@@U_Kfn@?$map@IPAUC3DObjInfo@@U?$less@I@std@@V?$allocator@PAUC3DObjInfo@@@3@@2@U?$less@I@2@V?$allocator@PAUC3DObjInfo@@@2@@1@AB_N@Z 100156f0 f i GameDataSet.obj
 0001:000146f0       ??0?$pair@Viterator@?$_Tree@V?$basic_string@DU?$char_traits@D@std@@V?$allocator@D@2@@std@@U?$pair@$$CBV?$basic_string@DU?$char_traits@D@std@@V?$allocator@D@2@@std@@H@2@U_Kfn@?$map@V?$basic_string@DU?$char_traits@D@std@@V?$allocator@D@2@@std@@HU?$less@V?$basic_string@DU?$char_traits@D@std@@V?$allocator@D@2@@std@@@2@V?$allocator@H@2@@2@U?$less@V?$basic_string@DU?$char_traits@D@std@@V?$allocator@D@2@@std@@@2@V?$allocator@H@2@@std@@_N@std@@QAE@ABViterator@?$_Tree@V?$basic_string@DU?$char_traits@D@std@@V?$allocator@D@2@@std@@U?$pair@$$CBV?$basic_string@DU?$char_traits@D@std@@V?$allocator@D@2@@std@@H@2@U_Kfn@?$map@V?$basic_string@DU?$char_traits@D@std@@V?$allocator@D@2@@std@@HU?$less@V?$basic_string@DU?$char_traits@D@std@@V?$allocator@D@2@@std@@@2@V?$allocator@H@2@@2@U?$less@V?$basic_string@DU?$char_traits@D@std@@V?$allocator@D@2@@std@@@2@V?$allocator@H@2@@1@AB_N@Z 100156f0 f i GameDataSet.obj
 0001:000146f0       ??0?$pair@Viterator@?$_Tree@V?$basic_string@DU?$char_traits@D@std@@V?$allocator@D@2@@std@@U?$pair@$$CBV?$basic_string@DU?$char_traits@D@std@@V?$allocator@D@2@@std@@URES_RECORD@@@2@U_Kfn@?$map@V?$basic_string@DU?$char_traits@D@std@@V?$allocator@D@2@@std@@URES_RECORD@@U?$less@V?$basic_string@DU?$char_traits@D@std@@V?$allocator@D@2@@std@@@2@V?$allocator@URES_RECORD@@@2@@2@U?$less@V?$basic_string@DU?$char_traits@D@std@@V?$allocator@D@2@@std@@@2@V?$allocator@URES_RECORD@@@2@@std@@_N@std@@QAE@ABViterator@?$_Tree@V?$basic_string@DU?$char_traits@D@std@@V?$allocator@D@2@@std@@U?$pair@$$CBV?$basic_string@DU?$char_traits@D@std@@V?$allocator@D@2@@std@@URES_RECORD@@@2@U_Kfn@?$map@V?$basic_string@DU?$char_traits@D@std@@V?$allocator@D@2@@std@@URES_RECORD@@U?$less@V?$basic_string@DU?$char_traits@D@std@@V?$allocator@D@2@@std@@@2@V?$allocator@URES_RECORD@@@2@@2@U?$less@V?$basic_string@DU?$char_traits@D@std@@V?$allocator@D@2@@std@@@2@V?$allocator@URES_RECORD@@@2@@1@AB_N@Z 100156f0 f i GameDataSet.obj
 0001:000146f0       ??0?$pair@Viterator@?$_Tree@KU?$pair@$$CBKUPACK_FILE_ENTRY@@@std@@U_Kfn@?$map@KUPACK_FILE_ENTRY@@U?$less@K@std@@V?$allocator@UPACK_FILE_ENTRY@@@3@@2@U?$less@K@2@V?$allocator@UPACK_FILE_ENTRY@@@2@@std@@_N@std@@QAE@ABViterator@?$_Tree@KU?$pair@$$CBKUPACK_FILE_ENTRY@@@std@@U_Kfn@?$map@KUPACK_FILE_ENTRY@@U?$less@K@std@@V?$allocator@UPACK_FILE_ENTRY@@@3@@2@U?$less@K@2@V?$allocator@UPACK_FILE_ENTRY@@@2@@1@AB_N@Z 100156f0 f i GameDataSet.obj
 0001:000146f0       ??0?$pair@Viterator@?$_Tree@IU?$pair@$$CBIPBD@std@@U_Kfn@?$map@IPBDU?$less@I@std@@V?$allocator@PBD@2@@2@U?$less@I@2@V?$allocator@PBD@2@@std@@_N@std@@QAE@ABViterator@?$_Tree@IU?$pair@$$CBIPBD@std@@U_Kfn@?$map@IPBDU?$less@I@std@@V?$allocator@PBD@2@@2@U?$less@I@2@V?$allocator@PBD@2@@1@AB_N@Z 100156f0 f i GameDataSet.obj
 0001:000146f0       ??0?$pair@Viterator@?$_Tree@_JU?$pair@$$CB_JPAUC3DMotionInfo@@@std@@U_Kfn@?$map@_JPAUC3DMotionInfo@@U?$less@_J@std@@V?$allocator@PAUC3DMotionInfo@@@3@@2@U?$less@_J@2@V?$allocator@PAUC3DMotionInfo@@@2@@std@@_N@std@@QAE@ABViterator@?$_Tree@_JU?$pair@$$CB_JPAUC3DMotionInfo@@@std@@U_Kfn@?$map@_JPAUC3DMotionInfo@@U?$less@_J@std@@V?$allocator@PAUC3DMotionInfo@@@3@@2@U?$less@_J@2@V?$allocator@PAUC3DMotionInfo@@@2@@1@AB_N@Z 100156f0 f i GameDataSet.obj
 0001:000146f0       ??0?$pair@Viterator@?$_Tree@V?$basic_string@DU?$char_traits@D@std@@V?$allocator@D@2@@std@@U?$pair@$$CBV?$basic_string@DU?$char_traits@D@std@@V?$allocator@D@2@@std@@PAV?$map@_JKU?$less@_J@std@@V?$allocator@K@2@@2@@2@U_Kfn@?$map@V?$basic_string@DU?$char_traits@D@std@@V?$allocator@D@2@@std@@PAV?$map@_JKU?$less@_J@std@@V?$allocator@K@2@@2@U?$less@V?$basic_string@DU?$char_traits@D@std@@V?$allocator@D@2@@std@@@2@V?$allocator@PAV?$map@_JKU?$less@_J@std@@V?$allocator@K@2@@std@@@2@@2@U?$less@V?$basic_string@DU?$char_traits@D@std@@V?$allocator@D@2@@std@@@2@V?$allocator@PAV?$map@_JKU?$less@_J@std@@V?$allocator@K@2@@std@@@2@@std@@_N@std@@QAE@ABViterator@?$_Tree@V?$basic_string@DU?$char_traits@D@std@@V?$allocator@D@2@@std@@U?$pair@$$CBV?$basic_string@DU?$char_traits@D@std@@V?$allocator@D@2@@std@@PAV?$map@_JKU?$less@_J@std@@V?$allocator@K@2@@2@@2@U_Kfn@?$map@V?$basic_string@DU?$char_traits@D@std@@V?$allocator@D@2@@std@@PAV?$map@_JKU?$less@_J@std@@V?$allocator@K@2@@2@U?$less@V?$basic_string@DU?$char_traits@D@std@@V?$allocator@D@2@@std@@@2@V?$allocator@PAV?$map@_JKU?$less@_J@std@@V?$allocator@K@2@@std@@@2@@2@U?$less@V?$basic_string@DU?$char_traits@D@std@@V?$allocator@D@2@@std@@@2@V?$allocator@PAV?$map@_JKU?$less@_J@std@@V?$allocator@K@2@@std@@@2@@1@AB_N@Z 100156f0 f i GameDataSet.obj
 0001:000146f0       ??0?$pair@Viterator@?$_Tree@KU?$pair@$$CBKK@std@@U_Kfn@?$map@KKU?$less@K@std@@V?$allocator@K@2@@2@U?$less@K@2@V?$allocator@K@2@@std@@_N@std@@QAE@ABViterator@?$_Tree@KU?$pair@$$CBKK@std@@U_Kfn@?$map@KKU?$less@K@std@@V?$allocator@K@2@@2@U?$less@K@2@V?$allocator@K@2@@1@AB_N@Z 100156f0 f i GameDataSet.obj
 0001:000146f0       ??0?$pair@Viterator@?$_Tree@PAXU?$pair@QAXPBD@std@@U_Kfn@?$map@PAXPBDU?$less@PAX@std@@V?$allocator@PBD@2@@2@U?$less@PAX@2@V?$allocator@PBD@2@@std@@_N@std@@QAE@ABViterator@?$_Tree@PAXU?$pair@QAXPBD@std@@U_Kfn@?$map@PAXPBDU?$less@PAX@std@@V?$allocator@PBD@2@@2@U?$less@PAX@2@V?$allocator@PBD@2@@1@AB_N@Z 100156f0 f i GameDataSet.obj
 0001:00014710       ?_Min@?$_Tree@IU?$pair@$$CBIUC3DSimpleObjInfoEx@@@std@@U_Kfn@?$map@IUC3DSimpleObjInfoEx@@U?$less@I@std@@V?$allocator@UC3DSimpleObjInfoEx@@@3@@2@U?$less@I@2@V?$allocator@UC3DSimpleObjInfoEx@@@2@@std@@KAPAU_Node@12@PAU312@@Z 10015710 f i GameDataSet.obj
 0001:00014730       ?_Min@?$_Tree@V?$basic_string@DU?$char_traits@D@std@@V?$allocator@D@2@@std@@U?$pair@$$CBV?$basic_string@DU?$char_traits@D@std@@V?$allocator@D@2@@std@@H@2@U_Kfn@?$map@V?$basic_string@DU?$char_traits@D@std@@V?$allocator@D@2@@std@@HU?$less@V?$basic_string@DU?$char_traits@D@std@@V?$allocator@D@2@@std@@@2@V?$allocator@H@2@@2@U?$less@V?$basic_string@DU?$char_traits@D@std@@V?$allocator@D@2@@std@@@2@V?$allocator@H@2@@std@@KAPAU_Node@12@PAU312@@Z 10015730 f i GameDataSet.obj
 0001:00014750       ?_Min@?$_Tree@V?$basic_string@DU?$char_traits@D@std@@V?$allocator@D@2@@std@@U?$pair@$$CBV?$basic_string@DU?$char_traits@D@std@@V?$allocator@D@2@@std@@UROLE_COMPONENT_INFO@CGameDataSetX@@@2@U_Kfn@?$map@V?$basic_string@DU?$char_traits@D@std@@V?$allocator@D@2@@std@@UROLE_COMPONENT_INFO@CGameDataSetX@@U?$less@V?$basic_string@DU?$char_traits@D@std@@V?$allocator@D@2@@std@@@2@V?$allocator@UROLE_COMPONENT_INFO@CGameDataSetX@@@2@@2@U?$less@V?$basic_string@DU?$char_traits@D@std@@V?$allocator@D@2@@std@@@2@V?$allocator@UROLE_COMPONENT_INFO@CGameDataSetX@@@2@@std@@KAPAU_Node@12@PAU312@@Z 10015750 f i GameDataSet.obj
 0001:00014770       ?_Min@?$_Tree@V?$basic_string@DU?$char_traits@D@std@@V?$allocator@D@2@@std@@U?$pair@$$CBV?$basic_string@DU?$char_traits@D@std@@V?$allocator@D@2@@std@@V?$map@IURolePartInfo@@U?$less@I@std@@V?$allocator@URolePartInfo@@@3@@2@@2@U_Kfn@?$map@V?$basic_string@DU?$char_traits@D@std@@V?$allocator@D@2@@std@@V?$map@IURolePartInfo@@U?$less@I@std@@V?$allocator@URolePartInfo@@@3@@2@U?$less@V?$basic_string@DU?$char_traits@D@std@@V?$allocator@D@2@@std@@@2@V?$allocator@V?$map@IURolePartInfo@@U?$less@I@std@@V?$allocator@URolePartInfo@@@3@@std@@@2@@2@U?$less@V?$basic_string@DU?$char_traits@D@std@@V?$allocator@D@2@@std@@@2@V?$allocator@V?$map@IURolePartInfo@@U?$less@I@std@@V?$allocator@URolePartInfo@@@3@@std@@@2@@std@@KAPAU_Node@12@PAU312@@Z 10015770 f i GameDataSet.obj
 0001:00014790       ?_Min@?$_Tree@_JU?$pair@$$CB_JPBD@std@@U_Kfn@?$map@_JPBDU?$less@_J@std@@V?$allocator@PBD@2@@2@U?$less@_J@2@V?$allocator@PBD@2@@std@@KAPAU_Node@12@PAU312@@Z 10015790 f i GameDataSet.obj
 0001:000147b0       ?_Lbound@?$_Tree@V?$basic_string@DU?$char_traits@D@std@@V?$allocator@D@2@@std@@V12@U_Kfn@?$set@V?$basic_string@DU?$char_traits@D@std@@V?$allocator@D@2@@std@@U?$less@V?$basic_string@DU?$char_traits@D@std@@V?$allocator@D@2@@std@@@2@V?$allocator@V?$basic_string@DU?$char_traits@D@std@@V?$allocator@D@2@@std@@@2@@2@U?$less@V?$basic_string@DU?$char_traits@D@std@@V?$allocator@D@2@@std@@@2@V?$allocator@V?$basic_string@DU?$char_traits@D@std@@V?$allocator@D@2@@std@@@2@@std@@IBEPAU_Node@12@ABV?$basic_string@DU?$char_traits@D@std@@V?$allocator@D@2@@2@@Z 100157b0 f i GameDataSet.obj
 0001:00014800       ?_Insert@?$_Tree@V?$basic_string@DU?$char_traits@D@std@@V?$allocator@D@2@@std@@U?$pair@$$CBV?$basic_string@DU?$char_traits@D@std@@V?$allocator@D@2@@std@@V?$map@_JPAUC3DMotionInfo@@U?$less@_J@std@@V?$allocator@PAUC3DMotionInfo@@@3@@2@@2@U_Kfn@?$map@V?$basic_string@DU?$char_traits@D@std@@V?$allocator@D@2@@std@@V?$map@_JPAUC3DMotionInfo@@U?$less@_J@std@@V?$allocator@PAUC3DMotionInfo@@@3@@2@U?$less@V?$basic_string@DU?$char_traits@D@std@@V?$allocator@D@2@@std@@@2@V?$allocator@V?$map@_JPAUC3DMotionInfo@@U?$less@_J@std@@V?$allocator@PAUC3DMotionInfo@@@3@@std@@@2@@2@U?$less@V?$basic_string@DU?$char_traits@D@std@@V?$allocator@D@2@@std@@@2@V?$allocator@V?$map@_JPAUC3DMotionInfo@@U?$less@_J@std@@V?$allocator@PAUC3DMotionInfo@@@3@@std@@@2@@std@@IAE?AViterator@12@PAU_Node@12@0ABU?$pair@$$CBV?$basic_string@DU?$char_traits@D@std@@V?$allocator@D@2@@std@@V?$map@_JPAUC3DMotionInfo@@U?$less@_J@std@@V?$allocator@PAUC3DMotionInfo@@@3@@2@@2@@Z 10015800 f i GameDataSet.obj
 0001:00014a70       ?_Copy@?$_Tree@_JU?$pair@$$CB_JPAUC3DMotionInfo@@@std@@U_Kfn@?$map@_JPAUC3DMotionInfo@@U?$less@_J@std@@V?$allocator@PAUC3DMotionInfo@@@3@@2@U?$less@_J@2@V?$allocator@PAUC3DMotionInfo@@@2@@std@@IAEXABV12@@Z 10015a70 f i GameDataSet.obj
 0001:00014b60       ?_Erase@?$_Tree@_JU?$pair@$$CB_JPAUC3DMotionInfo@@@std@@U_Kfn@?$map@_JPAUC3DMotionInfo@@U?$less@_J@std@@V?$allocator@PAUC3DMotionInfo@@@3@@2@U?$less@_J@2@V?$allocator@PAUC3DMotionInfo@@@2@@std@@IAEXPAU_Node@12@@Z 10015b60 f i GameDataSet.obj
 0001:00014ba0       ?_Init@?$_Tree@_JU?$pair@$$CB_JPAUC3DMotionInfo@@@std@@U_Kfn@?$map@_JPAUC3DMotionInfo@@U?$less@_J@std@@V?$allocator@PAUC3DMotionInfo@@@3@@2@U?$less@_J@2@V?$allocator@PAUC3DMotionInfo@@@2@@std@@IAEXXZ 10015ba0 f i GameDataSet.obj
 0001:00014c40       ?_Insert@?$_Tree@_JU?$pair@$$CB_JPAUC3DMotionInfo@@@std@@U_Kfn@?$map@_JPAUC3DMotionInfo@@U?$less@_J@std@@V?$allocator@PAUC3DMotionInfo@@@3@@2@U?$less@_J@2@V?$allocator@PAUC3DMotionInfo@@@2@@std@@IAE?AViterator@12@PAU_Node@12@0ABU?$pair@$$CB_JPAUC3DMotionInfo@@@2@@Z 10015c40 f i GameDataSet.obj
 0001:00014ec0       ??0const_iterator@?$_Tree@_JU?$pair@$$CB_JPBD@std@@U_Kfn@?$map@_JPBDU?$less@_J@std@@V?$allocator@PBD@2@@2@U?$less@_J@2@V?$allocator@PBD@2@@std@@QAE@PAU_Node@12@@Z 10015ec0 f i GameDataSet.obj
 0001:00014ec0       ??0iterator@?$_Tree@KU?$pair@$$CBKK@std@@U_Kfn@?$map@KKU?$less@K@std@@V?$allocator@K@2@@2@U?$less@K@2@V?$allocator@K@2@@std@@QAE@PAU_Node@12@@Z 10015ec0 f i GameDataSet.obj
 0001:00014ec0       ??0const_iterator@?$_Tree@KU?$pair@$$CBKK@std@@U_Kfn@?$map@KKU?$less@K@std@@V?$allocator@K@2@@2@U?$less@K@2@V?$allocator@K@2@@std@@QAE@PAU_Node@12@@Z 10015ec0 f i GameDataSet.obj
 0001:00014ec0       ??0const_iterator@?$_Tree@_JU?$pair@$$CB_JPAUC3DMotionInfo@@@std@@U_Kfn@?$map@_JPAUC3DMotionInfo@@U?$less@_J@std@@V?$allocator@PAUC3DMotionInfo@@@3@@2@U?$less@_J@2@V?$allocator@PAUC3DMotionInfo@@@2@@std@@QAE@PAU_Node@12@@Z 10015ec0 f i GameDataSet.obj
 0001:00014ec0       ??0const_iterator@?$_Tree@IU?$pair@$$CBIURolePartInfo@@@std@@U_Kfn@?$map@IURolePartInfo@@U?$less@I@std@@V?$allocator@URolePartInfo@@@3@@2@U?$less@I@2@V?$allocator@URolePartInfo@@@2@@std@@QAE@PAU_Node@12@@Z 10015ec0 f i GameDataSet.obj
 0001:00014ec0       ??0iterator@?$_Tree@_JU?$pair@$$CB_JPBD@std@@U_Kfn@?$map@_JPBDU?$less@_J@std@@V?$allocator@PBD@2@@2@U?$less@_J@2@V?$allocator@PBD@2@@std@@QAE@PAU_Node@12@@Z 10015ec0 f i GameDataSet.obj
 0001:00014ed0       ?_Insert@?$_Tree@IU?$pair@$$CBIPAUC3DObjInfo@@@std@@U_Kfn@?$map@IPAUC3DObjInfo@@U?$less@I@std@@V?$allocator@PAUC3DObjInfo@@@3@@2@U?$less@I@2@V?$allocator@PAUC3DObjInfo@@@2@@std@@IAE?AViterator@12@PAU_Node@12@0ABU?$pair@$$CBIPAUC3DObjInfo@@@2@@Z 10015ed0 f i GameDataSet.obj
 0001:00015140       ?_Lbound@?$_Tree@IU?$pair@$$CBIPAUC3DObjInfo@@@std@@U_Kfn@?$map@IPAUC3DObjInfo@@U?$less@I@std@@V?$allocator@PAUC3DObjInfo@@@3@@2@U?$less@I@2@V?$allocator@PAUC3DObjInfo@@@2@@std@@IBEPAU_Node@12@ABI@Z 10016140 f i GameDataSet.obj
 0001:00015170       ?_Insert@?$_Tree@IU?$pair@$$CBIPAUC3DTextureInfo@@@std@@U_Kfn@?$map@IPAUC3DTextureInfo@@U?$less@I@std@@V?$allocator@PAUC3DTextureInfo@@@3@@2@U?$less@I@2@V?$allocator@PAUC3DTextureInfo@@@2@@std@@IAE?AViterator@12@PAU_Node@12@0ABU?$pair@$$CBIPAUC3DTextureInfo@@@2@@Z 10016170 f i GameDataSet.obj
 0001:000153e0       ?_Insert@?$_Tree@IU?$pair@$$CBIPAUC3DEffectInfo@@@std@@U_Kfn@?$map@IPAUC3DEffectInfo@@U?$less@I@std@@V?$allocator@PAUC3DEffectInfo@@@3@@2@U?$less@I@2@V?$allocator@PAUC3DEffectInfo@@@2@@std@@IAE?AViterator@12@PAU_Node@12@0ABU?$pair@$$CBIPAUC3DEffectInfo@@@2@@Z 100163e0 f i GameDataSet.obj
 0001:00015650       ?_Insert@?$_Tree@IU?$pair@$$CBIPAUC3DSceneRef@@@std@@U_Kfn@?$map@IPAUC3DSceneRef@@U?$less@I@std@@V?$allocator@PAUC3DSceneRef@@@3@@2@U?$less@I@2@V?$allocator@PAUC3DSceneRef@@@2@@std@@IAE?AViterator@12@PAU_Node@12@0ABU?$pair@$$CBIPAUC3DSceneRef@@@2@@Z 10016650 f i GameDataSet.obj
 0001:000158c0       ?_Lbound@?$_Tree@IU?$pair@$$CBIPAUC3DSceneRef@@@std@@U_Kfn@?$map@IPAUC3DSceneRef@@U?$less@I@std@@V?$allocator@PAUC3DSceneRef@@@3@@2@U?$less@I@2@V?$allocator@PAUC3DSceneRef@@@2@@std@@IBEPAU_Node@12@ABI@Z 100168c0 f i GameDataSet.obj
 0001:000158f0       ?_Buynode@?$_Tree@IU?$pair@$$CBIPAUC3DSimpleObjInfo@@@std@@U_Kfn@?$map@IPAUC3DSimpleObjInfo@@U?$less@I@std@@V?$allocator@PAUC3DSimpleObjInfo@@@3@@2@U?$less@I@2@V?$allocator@PAUC3DSimpleObjInfo@@@2@@std@@IAEPAU_Node@12@PAU312@W4_Redbl@12@@Z 100168f0 f i GameDataSet.obj
 0001:000158f0       ?_Buynode@?$_Tree@IU?$pair@$$CBIPAUC3DSceneRef@@@std@@U_Kfn@?$map@IPAUC3DSceneRef@@U?$less@I@std@@V?$allocator@PAUC3DSceneRef@@@3@@2@U?$less@I@2@V?$allocator@PAUC3DSceneRef@@@2@@std@@IAEPAU_Node@12@PAU312@W4_Redbl@12@@Z 100168f0 f i GameDataSet.obj
 0001:000158f0       ?_Buynode@?$_Tree@IU?$pair@$$CBIPAUCAniRef@@@std@@U_Kfn@?$map@IPAUCAniRef@@U?$less@I@std@@V?$allocator@PAUCAniRef@@@3@@2@U?$less@I@2@V?$allocator@PAUCAniRef@@@2@@std@@IAEPAU_Node@12@PAU312@W4_Redbl@12@@Z 100168f0 f i GameDataSet.obj
 0001:000158f0       ?_Buynode@?$_Tree@IU?$pair@$$CBIPAUC3DEffectInfo@@@std@@U_Kfn@?$map@IPAUC3DEffectInfo@@U?$less@I@std@@V?$allocator@PAUC3DEffectInfo@@@3@@2@U?$less@I@2@V?$allocator@PAUC3DEffectInfo@@@2@@std@@IAEPAU_Node@12@PAU312@W4_Redbl@12@@Z 100168f0 f i GameDataSet.obj
 0001:000158f0       ?_Buynode@?$_Tree@IU?$pair@$$CBIPAUC3DTextureInfo@@@std@@U_Kfn@?$map@IPAUC3DTextureInfo@@U?$less@I@std@@V?$allocator@PAUC3DTextureInfo@@@3@@2@U?$less@I@2@V?$allocator@PAUC3DTextureInfo@@@2@@std@@IAEPAU_Node@12@PAU312@W4_Redbl@12@@Z 100168f0 f i GameDataSet.obj
 0001:000158f0       ?_Buynode@?$_Tree@IU?$pair@$$CBIPAUC3DObjInfo@@@std@@U_Kfn@?$map@IPAUC3DObjInfo@@U?$less@I@std@@V?$allocator@PAUC3DObjInfo@@@3@@2@U?$less@I@2@V?$allocator@PAUC3DObjInfo@@@2@@std@@IAEPAU_Node@12@PAU312@W4_Redbl@12@@Z 100168f0 f i GameDataSet.obj
 0001:000158f0       ?_Buynode@?$_Tree@KU?$pair@$$CBKK@std@@U_Kfn@?$map@KKU?$less@K@std@@V?$allocator@K@2@@2@U?$less@K@2@V?$allocator@K@2@@std@@IAEPAU_Node@12@PAU312@W4_Redbl@12@@Z 100168f0 f i GameDataSet.obj
 0001:000158f0       ?_Buynode@?$_Tree@PAXU?$pair@QAXPBD@std@@U_Kfn@?$map@PAXPBDU?$less@PAX@std@@V?$allocator@PBD@2@@2@U?$less@PAX@2@V?$allocator@PBD@2@@std@@IAEPAU_Node@12@PAU312@W4_Redbl@12@@Z 100168f0 f i GameDataSet.obj
 0001:00015910       ?_Insert@?$_Tree@IU?$pair@$$CBIPAUCAniRef@@@std@@U_Kfn@?$map@IPAUCAniRef@@U?$less@I@std@@V?$allocator@PAUCAniRef@@@3@@2@U?$less@I@2@V?$allocator@PAUCAniRef@@@2@@std@@IAE?AViterator@12@PAU_Node@12@0ABU?$pair@$$CBIPAUCAniRef@@@2@@Z 10016910 f i GameDataSet.obj
 0001:00015b80       ?_Lbound@?$_Tree@IU?$pair@$$CBIPAUCAniRef@@@std@@U_Kfn@?$map@IPAUCAniRef@@U?$less@I@std@@V?$allocator@PAUCAniRef@@@3@@2@U?$less@I@2@V?$allocator@PAUCAniRef@@@2@@std@@IBEPAU_Node@12@ABI@Z 10016b80 f i GameDataSet.obj
 0001:00015bb0       ?_Insert@?$_Tree@V?$basic_string@DU?$char_traits@D@std@@V?$allocator@D@2@@std@@U?$pair@$$CBV?$basic_string@DU?$char_traits@D@std@@V?$allocator@D@2@@std@@URES_RECORD@@@2@U_Kfn@?$map@V?$basic_string@DU?$char_traits@D@std@@V?$allocator@D@2@@std@@URES_RECORD@@U?$less@V?$basic_string@DU?$char_traits@D@std@@V?$allocator@D@2@@std@@@2@V?$allocator@URES_RECORD@@@2@@2@U?$less@V?$basic_string@DU?$char_traits@D@std@@V?$allocator@D@2@@std@@@2@V?$allocator@URES_RECORD@@@2@@std@@IAE?AViterator@12@PAU_Node@12@0ABU?$pair@$$CBV?$basic_string@DU?$char_traits@D@std@@V?$allocator@D@2@@std@@URES_RECORD@@@2@@Z 10016bb0 f i GameDataSet.obj
 0001:00015e20       ?_Buynode@?$_Tree@V?$basic_string@DU?$char_traits@D@std@@V?$allocator@D@2@@std@@U?$pair@$$CBV?$basic_string@DU?$char_traits@D@std@@V?$allocator@D@2@@std@@URES_RECORD@@@2@U_Kfn@?$map@V?$basic_string@DU?$char_traits@D@std@@V?$allocator@D@2@@std@@URES_RECORD@@U?$less@V?$basic_string@DU?$char_traits@D@std@@V?$allocator@D@2@@std@@@2@V?$allocator@URES_RECORD@@@2@@2@U?$less@V?$basic_string@DU?$char_traits@D@std@@V?$allocator@D@2@@std@@@2@V?$allocator@URES_RECORD@@@2@@std@@IAEPAU_Node@12@PAU312@W4_Redbl@12@@Z 10016e20 f i GameDataSet.obj
 0001:00015e40       ?_Insert@?$_Tree@PAXU?$pair@QAXPBD@std@@U_Kfn@?$map@PAXPBDU?$less@PAX@std@@V?$allocator@PBD@2@@2@U?$less@PAX@2@V?$allocator@PBD@2@@std@@IAE?AViterator@12@PAU_Node@12@0ABU?$pair@QAXPBD@2@@Z 10016e40 f i GameDataSet.obj
 0001:000160b0       ?_Freeback@?$deque@PAVCDataThreadObj@@V?$allocator@PAVCDataThreadObj@@@std@@@std@@IAEXXZ 100170b0 f i GameDataSet.obj
 0001:00016140       ?_Inc@const_iterator@?$_Tree@IU?$pair@$$CBIUC3DSimpleObjInfoEx@@@std@@U_Kfn@?$map@IUC3DSimpleObjInfoEx@@U?$less@I@std@@V?$allocator@UC3DSimpleObjInfoEx@@@3@@2@U?$less@I@2@V?$allocator@UC3DSimpleObjInfoEx@@@2@@std@@QAEXXZ 10017140 f i GameDataSet.obj
 0001:00016190       ?_Inc@const_iterator@?$_Tree@V?$basic_string@DU?$char_traits@D@std@@V?$allocator@D@2@@std@@U?$pair@$$CBV?$basic_string@DU?$char_traits@D@std@@V?$allocator@D@2@@std@@H@2@U_Kfn@?$map@V?$basic_string@DU?$char_traits@D@std@@V?$allocator@D@2@@std@@HU?$less@V?$basic_string@DU?$char_traits@D@std@@V?$allocator@D@2@@std@@@2@V?$allocator@H@2@@2@U?$less@V?$basic_string@DU?$char_traits@D@std@@V?$allocator@D@2@@std@@@2@V?$allocator@H@2@@std@@QAEXXZ 10017190 f i GameDataSet.obj
 0001:000161e0       ?_Inc@const_iterator@?$_Tree@V?$basic_string@DU?$char_traits@D@std@@V?$allocator@D@2@@std@@U?$pair@$$CBV?$basic_string@DU?$char_traits@D@std@@V?$allocator@D@2@@std@@UROLE_COMPONENT_INFO@CGameDataSetX@@@2@U_Kfn@?$map@V?$basic_string@DU?$char_traits@D@std@@V?$allocator@D@2@@std@@UROLE_COMPONENT_INFO@CGameDataSetX@@U?$less@V?$basic_string@DU?$char_traits@D@std@@V?$allocator@D@2@@std@@@2@V?$allocator@UROLE_COMPONENT_INFO@CGameDataSetX@@@2@@2@U?$less@V?$basic_string@DU?$char_traits@D@std@@V?$allocator@D@2@@std@@@2@V?$allocator@UROLE_COMPONENT_INFO@CGameDataSetX@@@2@@std@@QAEXXZ 100171e0 f i GameDataSet.obj
 0001:00016230       ?_Inc@const_iterator@?$_Tree@V?$basic_string@DU?$char_traits@D@std@@V?$allocator@D@2@@std@@U?$pair@$$CBV?$basic_string@DU?$char_traits@D@std@@V?$allocator@D@2@@std@@V?$map@IURolePartInfo@@U?$less@I@std@@V?$allocator@URolePartInfo@@@3@@2@@2@U_Kfn@?$map@V?$basic_string@DU?$char_traits@D@std@@V?$allocator@D@2@@std@@V?$map@IURolePartInfo@@U?$less@I@std@@V?$allocator@URolePartInfo@@@3@@2@U?$less@V?$basic_string@DU?$char_traits@D@std@@V?$allocator@D@2@@std@@@2@V?$allocator@V?$map@IURolePartInfo@@U?$less@I@std@@V?$allocator@URolePartInfo@@@3@@std@@@2@@2@U?$less@V?$basic_string@DU?$char_traits@D@std@@V?$allocator@D@2@@std@@@2@V?$allocator@V?$map@IURolePartInfo@@U?$less@I@std@@V?$allocator@URolePartInfo@@@3@@std@@@2@@std@@QAEXXZ 10017230 f i GameDataSet.obj
 0001:00016280       ?_Inc@const_iterator@?$_Tree@_JU?$pair@$$CB_JPBD@std@@U_Kfn@?$map@_JPBDU?$less@_J@std@@V?$allocator@PBD@2@@2@U?$less@_J@2@V?$allocator@PBD@2@@std@@QAEXXZ 10017280 f i GameDataSet.obj
 0001:000162d0       ?_Inc@const_iterator@?$_Tree@V?$basic_string@DU?$char_traits@D@std@@V?$allocator@D@2@@std@@U?$pair@$$CBV?$basic_string@DU?$char_traits@D@std@@V?$allocator@D@2@@std@@V?$map@_JPBDU?$less@_J@std@@V?$allocator@PBD@2@@2@@2@U_Kfn@?$map@V?$basic_string@DU?$char_traits@D@std@@V?$allocator@D@2@@std@@V?$map@_JPBDU?$less@_J@std@@V?$allocator@PBD@2@@2@U?$less@V?$basic_string@DU?$char_traits@D@std@@V?$allocator@D@2@@std@@@2@V?$allocator@V?$map@_JPBDU?$less@_J@std@@V?$allocator@PBD@2@@std@@@2@@2@U?$less@V?$basic_string@DU?$char_traits@D@std@@V?$allocator@D@2@@std@@@2@V?$allocator@V?$map@_JPBDU?$less@_J@std@@V?$allocator@PBD@2@@std@@@2@@std@@QAEXXZ 100172d0 f i GameDataSet.obj
 0001:00016320       ?_Inc@const_iterator@?$_Tree@V?$basic_string@DU?$char_traits@D@std@@V?$allocator@D@2@@std@@V12@U_Kfn@?$set@V?$basic_string@DU?$char_traits@D@std@@V?$allocator@D@2@@std@@U?$less@V?$basic_string@DU?$char_traits@D@std@@V?$allocator@D@2@@std@@@2@V?$allocator@V?$basic_string@DU?$char_traits@D@std@@V?$allocator@D@2@@std@@@2@@2@U?$less@V?$basic_string@DU?$char_traits@D@std@@V?$allocator@D@2@@std@@@2@V?$allocator@V?$basic_string@DU?$char_traits@D@std@@V?$allocator@D@2@@std@@@2@@std@@QAEXXZ 10017320 f i GameDataSet.obj
 0001:00016370       ?_Inc@const_iterator@?$_Tree@KU?$pair@$$CBKV?$map@KKU?$less@K@std@@V?$allocator@K@2@@std@@@std@@U_Kfn@?$map@KV?$map@KKU?$less@K@std@@V?$allocator@K@2@@std@@U?$less@K@2@V?$allocator@V?$map@KKU?$less@K@std@@V?$allocator@K@2@@std@@@2@@2@U?$less@K@2@V?$allocator@V?$map@KKU?$less@K@std@@V?$allocator@K@2@@std@@@2@@std@@QAEXXZ 10017370 f i GameDataSet.obj
 0001:000163c0       ?_Copy@?$_Tree@_JU?$pair@$$CB_JPAUC3DMotionInfo@@@std@@U_Kfn@?$map@_JPAUC3DMotionInfo@@U?$less@_J@std@@V?$allocator@PAUC3DMotionInfo@@@3@@2@U?$less@_J@2@V?$allocator@PAUC3DMotionInfo@@@2@@std@@IAEPAU_Node@12@PAU312@0@Z 100173c0 f i GameDataSet.obj
 0001:00016460       ?_Dec@const_iterator@?$_Tree@_JU?$pair@$$CB_JPAUC3DMotionInfo@@@std@@U_Kfn@?$map@_JPAUC3DMotionInfo@@U?$less@_J@std@@V?$allocator@PAUC3DMotionInfo@@@3@@2@U?$less@_J@2@V?$allocator@PAUC3DMotionInfo@@@2@@std@@QAEXXZ 10017460 f i GameDataSet.obj
 0001:000164c0       ?_Dec@const_iterator@?$_Tree@V?$basic_string@DU?$char_traits@D@std@@V?$allocator@D@2@@std@@U?$pair@$$CBV?$basic_string@DU?$char_traits@D@std@@V?$allocator@D@2@@std@@V?$map@_JPAUC3DMotionInfo@@U?$less@_J@std@@V?$allocator@PAUC3DMotionInfo@@@3@@2@@2@U_Kfn@?$map@V?$basic_string@DU?$char_traits@D@std@@V?$allocator@D@2@@std@@V?$map@_JPAUC3DMotionInfo@@U?$less@_J@std@@V?$allocator@PAUC3DMotionInfo@@@3@@2@U?$less@V?$basic_string@DU?$char_traits@D@std@@V?$allocator@D@2@@std@@@2@V?$allocator@V?$map@_JPAUC3DMotionInfo@@U?$less@_J@std@@V?$allocator@PAUC3DMotionInfo@@@3@@std@@@2@@2@U?$less@V?$basic_string@DU?$char_traits@D@std@@V?$allocator@D@2@@std@@@2@V?$allocator@V?$map@_JPAUC3DMotionInfo@@U?$less@_J@std@@V?$allocator@PAUC3DMotionInfo@@@3@@std@@@2@@std@@QAEXXZ 100174c0 f i GameDataSet.obj
 0001:00016520       ?_Dec@const_iterator@?$_Tree@IU?$pair@$$CBIPAUC3DObjInfo@@@std@@U_Kfn@?$map@IPAUC3DObjInfo@@U?$less@I@std@@V?$allocator@PAUC3DObjInfo@@@3@@2@U?$less@I@2@V?$allocator@PAUC3DObjInfo@@@2@@std@@QAEXXZ 10017520 f i GameDataSet.obj
 0001:00016580       ?_Dec@const_iterator@?$_Tree@IU?$pair@$$CBIPAUC3DTextureInfo@@@std@@U_Kfn@?$map@IPAUC3DTextureInfo@@U?$less@I@std@@V?$allocator@PAUC3DTextureInfo@@@3@@2@U?$less@I@2@V?$allocator@PAUC3DTextureInfo@@@2@@std@@QAEXXZ 10017580 f i GameDataSet.obj
 0001:000165e0       ?_Dec@const_iterator@?$_Tree@IU?$pair@$$CBIPAUC3DEffectInfo@@@std@@U_Kfn@?$map@IPAUC3DEffectInfo@@U?$less@I@std@@V?$allocator@PAUC3DEffectInfo@@@3@@2@U?$less@I@2@V?$allocator@PAUC3DEffectInfo@@@2@@std@@QAEXXZ 100175e0 f i GameDataSet.obj
 0001:00016640       ?_Dec@const_iterator@?$_Tree@IU?$pair@$$CBIPAUC3DSceneRef@@@std@@U_Kfn@?$map@IPAUC3DSceneRef@@U?$less@I@std@@V?$allocator@PAUC3DSceneRef@@@3@@2@U?$less@I@2@V?$allocator@PAUC3DSceneRef@@@2@@std@@QAEXXZ 10017640 f i GameDataSet.obj
 0001:000166a0       ?_Dec@const_iterator@?$_Tree@IU?$pair@$$CBIPAUCAniRef@@@std@@U_Kfn@?$map@IPAUCAniRef@@U?$less@I@std@@V?$allocator@PAUCAniRef@@@3@@2@U?$less@I@2@V?$allocator@PAUCAniRef@@@2@@std@@QAEXXZ 100176a0 f i GameDataSet.obj
 0001:00016700       ?_Dec@const_iterator@?$_Tree@V?$basic_string@DU?$char_traits@D@std@@V?$allocator@D@2@@std@@U?$pair@$$CBV?$basic_string@DU?$char_traits@D@std@@V?$allocator@D@2@@std@@URES_RECORD@@@2@U_Kfn@?$map@V?$basic_string@DU?$char_traits@D@std@@V?$allocator@D@2@@std@@URES_RECORD@@U?$less@V?$basic_string@DU?$char_traits@D@std@@V?$allocator@D@2@@std@@@2@V?$allocator@URES_RECORD@@@2@@2@U?$less@V?$basic_string@DU?$char_traits@D@std@@V?$allocator@D@2@@std@@@2@V?$allocator@URES_RECORD@@@2@@std@@QAEXXZ 10017700 f i GameDataSet.obj
 0001:00016760       ?_Inc@const_iterator@?$_Tree@V?$basic_string@DU?$char_traits@D@std@@V?$allocator@D@2@@std@@U?$pair@$$CBV?$basic_string@DU?$char_traits@D@std@@V?$allocator@D@2@@std@@URES_RECORD@@@2@U_Kfn@?$map@V?$basic_string@DU?$char_traits@D@std@@V?$allocator@D@2@@std@@URES_RECORD@@U?$less@V?$basic_string@DU?$char_traits@D@std@@V?$allocator@D@2@@std@@@2@V?$allocator@URES_RECORD@@@2@@2@U?$less@V?$basic_string@DU?$char_traits@D@std@@V?$allocator@D@2@@std@@@2@V?$allocator@URES_RECORD@@@2@@std@@QAEXXZ 10017760 f i GameDataSet.obj
 0001:000167b0       ?_Dec@const_iterator@?$_Tree@PAXU?$pair@QAXPBD@std@@U_Kfn@?$map@PAXPBDU?$less@PAX@std@@V?$allocator@PBD@2@@2@U?$less@PAX@2@V?$allocator@PBD@2@@std@@QAEXXZ 100177b0 f i GameDataSet.obj
 0001:00016810       ?_Inc@const_iterator@?$_Tree@PAXU?$pair@QAXPBD@std@@U_Kfn@?$map@PAXPBDU?$less@PAX@std@@V?$allocator@PBD@2@@2@U?$less@PAX@2@V?$allocator@PBD@2@@std@@QAEXXZ 10017810 f i GameDataSet.obj
 0001:00016860       ?_Inc@const_iterator@?$_Tree@V?$basic_string@DU?$char_traits@D@std@@V?$allocator@D@2@@std@@U?$pair@$$CBV?$basic_string@DU?$char_traits@D@std@@V?$allocator@D@2@@std@@PAV?$map@_JKU?$less@_J@std@@V?$allocator@K@2@@2@@2@U_Kfn@?$map@V?$basic_string@DU?$char_traits@D@std@@V?$allocator@D@2@@std@@PAV?$map@_JKU?$less@_J@std@@V?$allocator@K@2@@2@U?$less@V?$basic_string@DU?$char_traits@D@std@@V?$allocator@D@2@@std@@@2@V?$allocator@PAV?$map@_JKU?$less@_J@std@@V?$allocator@K@2@@std@@@2@@2@U?$less@V?$basic_string@DU?$char_traits@D@std@@V?$allocator@D@2@@std@@@2@V?$allocator@PAV?$map@_JKU?$less@_J@std@@V?$allocator@K@2@@std@@@2@@std@@QAEXXZ 10017860 f i GameDataSet.obj
 0001:000168b0       ?_Inc@const_iterator@?$_Tree@IU?$pair@$$CBIUDETAIL_INFO@CGameDataSetX@@@std@@U_Kfn@?$map@IUDETAIL_INFO@CGameDataSetX@@U?$less@I@std@@V?$allocator@UDETAIL_INFO@CGameDataSetX@@@4@@2@U?$less@I@2@V?$allocator@UDETAIL_INFO@CGameDataSetX@@@2@@std@@QAEXXZ 100178b0 f i GameDataSet.obj
 0001:00016900       ?_Inc@const_iterator@?$_Tree@HU?$pair@$$CBHUC3_RES_LOD_DESC@CGameDataSetX@@@std@@U_Kfn@?$map@HUC3_RES_LOD_DESC@CGameDataSetX@@U?$less@H@std@@V?$allocator@UC3_RES_LOD_DESC@CGameDataSetX@@@4@@2@U?$less@H@2@V?$allocator@UC3_RES_LOD_DESC@CGameDataSetX@@@2@@std@@QAEXXZ 10017900 f i GameDataSet.obj
 0001:00016950       ?_Construct@std@@YAXPAPAVCDataThreadObj@@ABQAV2@@Z 10017950 f i GameDataSet.obj
 0001:00016970       ?_Construct@std@@YAXPAU?$pair@$$CBV?$basic_string@DU?$char_traits@D@std@@V?$allocator@D@2@@std@@V?$map@_JPAUC3DMotionInfo@@U?$less@_J@std@@V?$allocator@PAUC3DMotionInfo@@@3@@2@@1@ABU21@@Z 10017970 f i GameDataSet.obj
 0001:00016b00       ??1RES_RECORD@@QAE@XZ      10017b00 f i GameDataSet.obj
 0001:00016b00       ??3@YAXPAX0@Z              10017b00 f i GameDataSet.obj
 0001:00016b10       ?_Construct@std@@YAXPAU?$pair@$$CBIPAUC3DTextureInfo@@@1@ABU21@@Z 10017b10 f i GameDataSet.obj
 0001:00016b10       ?_Construct@std@@YAXPAU?$pair@$$CBKK@1@ABU21@@Z 10017b10 f i GameDataSet.obj
 0001:00016b10       ?_Construct@std@@YAXPAU?$pair@$$CBIPAUC3DSceneRef@@@1@ABU21@@Z 10017b10 f i GameDataSet.obj
 0001:00016b10       ?_Construct@std@@YAXPAU?$pair@$$CBIPAUC3DSimpleObjInfo@@@1@ABU21@@Z 10017b10 f i GameDataSet.obj
 0001:00016b10       ?_Construct@std@@YAXPAU?$pair@$$CBIPBD@1@ABU21@@Z 10017b10 f i GameDataSet.obj
 0001:00016b10       ?_Construct@std@@YAXPAU?$pair@$$CBIPAUC3DObjInfo@@@1@ABU21@@Z 10017b10 f i GameDataSet.obj
 0001:00016b10       ?_Construct@std@@YAXPAU?$pair@$$CBIPAUCAniRef@@@1@ABU21@@Z 10017b10 f i GameDataSet.obj
 0001:00016b10       ?_Construct@std@@YAXPAU?$pair@$$CBIPAUC3DEffectInfo@@@1@ABU21@@Z 10017b10 f i GameDataSet.obj
 0001:00016b10       ?_Construct@std@@YAXPAU?$pair@QAXPBD@1@ABU21@@Z 10017b10 f i GameDataSet.obj
 0001:00016b30       ?_Construct@std@@YAXPAU?$pair@$$CBV?$basic_string@DU?$char_traits@D@std@@V?$allocator@D@2@@std@@URES_RECORD@@@1@ABU21@@Z 10017b30 f i GameDataSet.obj
 0001:00016ca0       ??_G?$basic_string@DU?$char_traits@D@std@@V?$allocator@D@2@@std@@QAEPAXI@Z 10017ca0 f i GameDataSet.obj
 0001:00016d00       ??_G?$pair@$$CBV?$basic_string@DU?$char_traits@D@std@@V?$allocator@D@2@@std@@URES_RECORD@@@std@@QAEPAXI@Z 10017d00 f i GameDataSet.obj
 0001:00016d00       ??_G?$pair@$$CBV?$basic_string@DU?$char_traits@D@std@@V?$allocator@D@2@@std@@H@std@@QAEPAXI@Z 10017d00 f i GameDataSet.obj
 0001:00016d00       ??_G?$pair@$$CBV?$basic_string@DU?$char_traits@D@std@@V?$allocator@D@2@@std@@PAUCMy3DEffectInfo@@@std@@QAEPAXI@Z 10017d00 f i GameDataSet.obj
 0001:00016d00       ??_G?$pair@$$CBV?$basic_string@DU?$char_traits@D@std@@V?$allocator@D@2@@std@@PAV?$map@_JKU?$less@_J@std@@V?$allocator@K@2@@2@@std@@QAEPAXI@Z 10017d00 f i GameDataSet.obj
 0001:00016d20       ??_G?$pair@$$CBV?$basic_string@DU?$char_traits@D@std@@V?$allocator@D@2@@std@@UROLE_COMPONENT_INFO@CGameDataSetX@@@std@@QAEPAXI@Z 10017d20 f i GameDataSet.obj
 0001:00016d40       ??_G?$pair@$$CBV?$basic_string@DU?$char_traits@D@std@@V?$allocator@D@2@@std@@V?$map@IURolePartInfo@@U?$less@I@std@@V?$allocator@URolePartInfo@@@3@@2@@std@@QAEPAXI@Z 10017d40 f i GameDataSet.obj
 0001:00016d60       ??_G?$pair@$$CBV?$basic_string@DU?$char_traits@D@std@@V?$allocator@D@2@@std@@V?$map@_JPBDU?$less@_J@std@@V?$allocator@PBD@2@@2@@std@@QAEPAXI@Z 10017d60 f i GameDataSet.obj
 0001:00016d80       ??_G?$pair@$$CBKV?$map@KKU?$less@K@std@@V?$allocator@K@2@@std@@@std@@QAEPAXI@Z 10017d80 f i GameDataSet.obj
 0001:00016da0       ??_G?$pair@$$CBV?$basic_string@DU?$char_traits@D@std@@V?$allocator@D@2@@std@@V?$map@_JPAUC3DMotionInfo@@U?$less@_J@std@@V?$allocator@PAUC3DMotionInfo@@@3@@2@@std@@QAEPAXI@Z 10017da0 f i GameDataSet.obj
 0001:00016dc0       ??_G?$pair@$$CBHUC3_RES_LOD_DESC@CGameDataSetX@@@std@@QAEPAXI@Z 10017dc0 f i GameDataSet.obj
 0001:00016de0       ??1?$pair@$$CBV?$basic_string@DU?$char_traits@D@std@@V?$allocator@D@2@@std@@UROLE_COMPONENT_INFO@CGameDataSetX@@@std@@QAE@XZ 10017de0 f i GameDataSet.obj
 0001:00016e80       ??1?$pair@$$CBV?$basic_string@DU?$char_traits@D@std@@V?$allocator@D@2@@std@@V?$map@IURolePartInfo@@U?$less@I@std@@V?$allocator@URolePartInfo@@@3@@2@@std@@QAE@XZ 10017e80 f i GameDataSet.obj
 0001:00016fd0       ??1?$pair@$$CBV?$basic_string@DU?$char_traits@D@std@@V?$allocator@D@2@@std@@V?$map@_JPBDU?$less@_J@std@@V?$allocator@PBD@2@@2@@std@@QAE@XZ 10017fd0 f i GameDataSet.obj
 0001:00017120       ??Eiterator@?$_Tree@_JU?$pair@$$CB_JPBD@std@@U_Kfn@?$map@_JPBDU?$less@_J@std@@V?$allocator@PBD@2@@2@U?$less@_J@2@V?$allocator@PBD@2@@std@@QAE?AV012@H@Z 10018120 f i GameDataSet.obj
 0001:00017180       ??1?$pair@$$CBKV?$map@KKU?$less@K@std@@V?$allocator@K@2@@std@@@std@@QAE@XZ 10018180 f i GameDataSet.obj
 0001:00017270       ??1?$pair@$$CBV?$basic_string@DU?$char_traits@D@std@@V?$allocator@D@2@@std@@URES_RECORD@@@std@@QAE@XZ 10018270 f i GameDataSet.obj
 0001:00017270       ??1?$pair@$$CBV?$basic_string@DU?$char_traits@D@std@@V?$allocator@D@2@@std@@H@std@@QAE@XZ 10018270 f i GameDataSet.obj
 0001:00017270       ??1?$pair@$$CBV?$basic_string@DU?$char_traits@D@std@@V?$allocator@D@2@@std@@PAV?$map@_JKU?$less@_J@std@@V?$allocator@K@2@@2@@std@@QAE@XZ 10018270 f i GameDataSet.obj
 0001:00017270       ??1?$pair@$$CBV?$basic_string@DU?$char_traits@D@std@@V?$allocator@D@2@@std@@PAUCMy3DEffectInfo@@@std@@QAE@XZ 10018270 f i GameDataSet.obj
 0001:000172b0       ??1?$pair@$$CBHUC3_RES_LOD_DESC@CGameDataSetX@@@std@@QAE@XZ 100182b0 f i GameDataSet.obj
 0001:000174b0       ??Fiterator@?$deque@PAVCDataThreadObj@@V?$allocator@PAVCDataThreadObj@@@std@@@std@@QAEAAV012@XZ 100184b0 f i GameDataSet.obj
 0001:000174f0       ?erase@?$_Tree@IU?$pair@$$CBIURolePartInfo@@@std@@U_Kfn@?$map@IURolePartInfo@@U?$less@I@std@@V?$allocator@URolePartInfo@@@3@@2@U?$less@I@2@V?$allocator@URolePartInfo@@@2@@std@@QAE?AViterator@12@V312@0@Z 100184f0 f i GameDataSet.obj
 0001:000175c0       ?erase@?$_Tree@IU?$pair@$$CBIURolePartInfo@@@std@@U_Kfn@?$map@IURolePartInfo@@U?$less@I@std@@V?$allocator@URolePartInfo@@@3@@2@U?$less@I@2@V?$allocator@URolePartInfo@@@2@@std@@QAE?AViterator@12@V312@@Z 100185c0 f i GameDataSet.obj
 0001:00017a20       ?_Erase@?$_Tree@IU?$pair@$$CBIURolePartInfo@@@std@@U_Kfn@?$map@IURolePartInfo@@U?$less@I@std@@V?$allocator@URolePartInfo@@@3@@2@U?$less@I@2@V?$allocator@URolePartInfo@@@2@@std@@IAEXPAU_Node@12@@Z 10018a20 f i GameDataSet.obj
 0001:00017a60       ??Eiterator@?$_Tree@IU?$pair@$$CBIURolePartInfo@@@std@@U_Kfn@?$map@IURolePartInfo@@U?$less@I@std@@V?$allocator@URolePartInfo@@@3@@2@U?$less@I@2@V?$allocator@URolePartInfo@@@2@@std@@QAE?AV012@H@Z 10018a60 f i GameDataSet.obj
 0001:00017ac0       ?erase@?$_Tree@KU?$pair@$$CBKK@std@@U_Kfn@?$map@KKU?$less@K@std@@V?$allocator@K@2@@2@U?$less@K@2@V?$allocator@K@2@@std@@QAE?AViterator@12@V312@@Z 10018ac0 f i GameDataSet.obj
 0001:00017ec0       ?_Erase@?$_Tree@KU?$pair@$$CBKK@std@@U_Kfn@?$map@KKU?$less@K@std@@V?$allocator@K@2@@2@U?$less@K@2@V?$allocator@K@2@@std@@IAEXPAU_Node@12@@Z 10018ec0 f i GameDataSet.obj
 0001:00017f00       ?_Lmost@?$_Tree@KU?$pair@$$CBKK@std@@U_Kfn@?$map@KKU?$less@K@std@@V?$allocator@K@2@@2@U?$less@K@2@V?$allocator@K@2@@std@@IAEAAPAU_Node@12@XZ 10018f00 f i GameDataSet.obj
 0001:00017f10       ??Eiterator@?$_Tree@KU?$pair@$$CBKK@std@@U_Kfn@?$map@KKU?$less@K@std@@V?$allocator@K@2@@2@U?$less@K@2@V?$allocator@K@2@@std@@QAE?AV012@H@Z 10018f10 f i GameDataSet.obj
 0001:00017f70       ?_Min@?$_Tree@IU?$pair@$$CBIURolePartInfo@@@std@@U_Kfn@?$map@IURolePartInfo@@U?$less@I@std@@V?$allocator@URolePartInfo@@@3@@2@U?$less@I@2@V?$allocator@URolePartInfo@@@2@@std@@KAPAU_Node@12@PAU312@@Z 10018f70 f i GameDataSet.obj
 0001:00017f90       ?_Parent@?$_Tree@KU?$pair@$$CBKK@std@@U_Kfn@?$map@KKU?$less@K@std@@V?$allocator@K@2@@2@U?$less@K@2@V?$allocator@K@2@@std@@KAAAPAU_Node@12@PAU312@@Z 10018f90 f i GameDataSet.obj
 0001:00017fa0       ?_Right@?$_Tree@KU?$pair@$$CBKK@std@@U_Kfn@?$map@KKU?$less@K@std@@V?$allocator@K@2@@2@U?$less@K@2@V?$allocator@K@2@@std@@KAAAPAU_Node@12@PAU312@@Z 10018fa0 f i GameDataSet.obj
 0001:00017fb0       ??8iterator@?$_Tree@KU?$pair@$$CBKK@std@@U_Kfn@?$map@KKU?$less@K@std@@V?$allocator@K@2@@2@U?$less@K@2@V?$allocator@K@2@@std@@QBE_NABV012@@Z 10018fb0 f i GameDataSet.obj
 0001:00017fd0       ?_Inc@const_iterator@?$_Tree@IU?$pair@$$CBIURolePartInfo@@@std@@U_Kfn@?$map@IURolePartInfo@@U?$less@I@std@@V?$allocator@URolePartInfo@@@3@@2@U?$less@I@2@V?$allocator@URolePartInfo@@@2@@std@@QAEXXZ 10018fd0 f i GameDataSet.obj
 0001:00018020       ?_Inc@const_iterator@?$_Tree@KU?$pair@$$CBKK@std@@U_Kfn@?$map@KKU?$less@K@std@@V?$allocator@K@2@@2@U?$less@K@2@V?$allocator@K@2@@std@@QAEXXZ 10019020 f i GameDataSet.obj
 0001:00018070       ?SynchronizeResource@CGameDataSetX@@UAE?AW4RESOURCE_SYN_RESULT@CGameDataSet@@AAUIResourceDemand@3@K@Z 10019070 f   GameDataSynchronize.obj
 0001:00018080       ?lower_bound@?$_Tree@V?$basic_string@DU?$char_traits@D@std@@V?$allocator@D@2@@std@@U?$pair@$$CBV?$basic_string@DU?$char_traits@D@std@@V?$allocator@D@2@@std@@V?$map@_JPBDU?$less@_J@std@@V?$allocator@PBD@2@@2@@2@U_Kfn@?$map@V?$basic_string@DU?$char_traits@D@std@@V?$allocator@D@2@@std@@V?$map@_JPBDU?$less@_J@std@@V?$allocator@PBD@2@@2@U?$less@V?$basic_string@DU?$char_traits@D@std@@V?$allocator@D@2@@std@@@2@V?$allocator@V?$map@_JPBDU?$less@_J@std@@V?$allocator@PBD@2@@std@@@2@@2@U?$less@V?$basic_string@DU?$char_traits@D@std@@V?$allocator@D@2@@std@@@2@V?$allocator@V?$map@_JPBDU?$less@_J@std@@V?$allocator@PBD@2@@std@@@2@@std@@QBE?AVconst_iterator@12@ABV?$basic_string@DU?$char_traits@D@std@@V?$allocator@D@2@@2@@Z 10019080 f i GameDataSynchronize.obj
 0001:00018080       ?lower_bound@?$_Tree@V?$basic_string@DU?$char_traits@D@std@@V?$allocator@D@2@@std@@U?$pair@$$CBV?$basic_string@DU?$char_traits@D@std@@V?$allocator@D@2@@std@@V?$map@_JPBDU?$less@_J@std@@V?$allocator@PBD@2@@2@@2@U_Kfn@?$map@V?$basic_string@DU?$char_traits@D@std@@V?$allocator@D@2@@std@@V?$map@_JPBDU?$less@_J@std@@V?$allocator@PBD@2@@2@U?$less@V?$basic_string@DU?$char_traits@D@std@@V?$allocator@D@2@@std@@@2@V?$allocator@V?$map@_JPBDU?$less@_J@std@@V?$allocator@PBD@2@@std@@@2@@2@U?$less@V?$basic_string@DU?$char_traits@D@std@@V?$allocator@D@2@@std@@@2@V?$allocator@V?$map@_JPBDU?$less@_J@std@@V?$allocator@PBD@2@@std@@@2@@std@@QAE?AViterator@12@ABV?$basic_string@DU?$char_traits@D@std@@V?$allocator@D@2@@2@@Z 10019080 f i GameDataSynchronize.obj
 0001:000180e0       ?_Lbound@?$_Tree@_JU?$pair@$$CB_JPBD@std@@U_Kfn@?$map@_JPBDU?$less@_J@std@@V?$allocator@PBD@2@@2@U?$less@_J@2@V?$allocator@PBD@2@@std@@IBEPAU_Node@12@AB_J@Z 100190e0 f i GameDataSynchronize.obj
 0001:00018120       ?OpenPackage@CGameDataSetX@@AAE_NPBD@Z 10019120 f   GameDBConfig.obj
 0001:00018220       ?ClearResLodInfo@CGameDataSetX@@QAEXXZ 10019220 f   GameDBConfig.obj
 0001:00018340       ?LoadRes@CGameDataSetX@@AAEXPBDAAV?$map@_JPBDU?$less@_J@std@@V?$allocator@PBD@2@@std@@@Z 10019340 f   GameDBConfig.obj
 0001:00018610       ?LoadResBin64@CGameDataSetX@@QAEXPBDAAV?$map@_JPBDU?$less@_J@std@@V?$allocator@PBD@2@@std@@@Z 10019610 f   GameDBConfig.obj
 0001:00018900       ?CreateRoleComponentMotionInfo@CGameDataSetX@@AAE_NPBD@Z 10019900 f   GameDBConfig.obj
 0001:00018b40       ?GetRoleRartInfoBySet@CGameDataSetX@@ABEPBURolePartInfo@@ABV?$map@IURolePartInfo@@U?$less@I@std@@V?$allocator@URolePartInfo@@@3@@std@@I@Z 10019b40 f   GameDBConfig.obj
 0001:00018b90       ?GetRoleRartInfo@CGameDataSetX@@UBEPBURolePartInfo@@PBDI@Z 10019b90 f   GameDBConfig.obj
 0001:00018cf0       ?CreateNewRoleComponentInfo@CGameDataSetX@@AAE_NAAPAEK_NAAV?$map@V?$basic_string@DU?$char_traits@D@std@@V?$allocator@D@2@@std@@UROLE_COMPONENT_INFO@CGameDataSetX@@U?$less@V?$basic_string@DU?$char_traits@D@std@@V?$allocator@D@2@@std@@@2@V?$allocator@UROLE_COMPONENT_INFO@CGameDataSetX@@@2@@std@@@Z 10019cf0 f   GameDBConfig.obj
 0001:00018f60       ?CreateRoleComponentInfo@CGameDataSetX@@AAE_NXZ 10019f60 f   GameDBConfig.obj
 0001:00019150       ?CreateCustomRoleComponentInfo@CGameDataSetX@@AAEPAV?$map@V?$basic_string@DU?$char_traits@D@std@@V?$allocator@D@2@@std@@UROLE_COMPONENT_INFO@CGameDataSetX@@U?$less@V?$basic_string@DU?$char_traits@D@std@@V?$allocator@D@2@@std@@@2@V?$allocator@UROLE_COMPONENT_INFO@CGameDataSetX@@@2@@std@@PBD@Z 1001a150 f   GameDBConfig.obj
 0001:000193d0       ?CreateRoleComponentMeshInfo@CGameDataSetX@@AAE_NPBD@Z 1001a3d0 f   GameDBConfig.obj
 0001:00019780       ?CreateMaterialInfo@CGameDataSetX@@AAE_NXZ 1001a780 f   GameDBConfig.obj
 0001:00019c20       ?GetMaterial@CGameDataSetX@@EAEPBUD3DMATERIAL@@PBD@Z 1001ac20 f   GameDBConfig.obj
 0001:00019d20       ?CreateMy3DEffectInfo@CGameDataSetX@@AAE_NXZ 1001ad20 f   GameDBConfig.obj
 0001:00019d40       ?CreateMy3DEffectInfoBin@CGameDataSetX@@AAE_NXZ 1001ad40 f   GameDBConfig.obj
 0001:0001a1e0       ?CreateMy3DEffect2InfoBin@CGameDataSetX@@AAE_NXZ 1001b1e0 f   GameDBConfig.obj
 0001:0001a660       ?GetMy3DEffectInfo@CGameDataSetX@@UBEPBUCMy3DEffectInfo@@PBD@Z 1001b660 f   GameDBConfig.obj
 0001:0001a770       ?GetMy3DEffectInfo@CGameDataSetX@@UAEPAUCMy3DEffectInfo@@PBD@Z 1001b770 f   GameDBConfig.obj
 0001:0001a8b0       ?AddMy3DEffectInfo@CGameDataSetX@@UAEXPBUCMy3DEffectInfo@@@Z 1001b8b0 f   GameDBConfig.obj
 0001:0001a9f0       ?Get3DSimpleObjInfoEx@CGameDataSetX@@UBEPBUC3DSimpleObjInfoEx@@I@Z 1001b9f0 f   GameDBConfig.obj
 0001:0001aa40       ?Create3DSimpleObjInfo@CGameDataSetX@@AAE_NXZ 1001ba40 f   GameDBConfig.obj
 0001:0001aa60       ?Create3DSimpleObjInfoBin@CGameDataSetX@@AAE_NXZ 1001ba60 f   GameDBConfig.obj
 0001:0001abf0       ?Create3DSimpleObjInfoBinEx@CGameDataSetX@@AAE_NXZ 1001bbf0 f   GameDBConfig.obj
 0001:0001aea0       ?Get3DSimpleObjInfo@CGameDataSetX@@UBEPBUC3DSimpleObjInfo@@I@Z 1001bea0 f   GameDBConfig.obj
 0001:0001af00       ?CreateEmotionIconInfo@CGameDataSetX@@AAE_NXZ 1001bf00 f   GameDBConfig.obj
 0001:0001b0c0       ?GetEmotionIconInfoAmount@CGameDataSetX@@UBEHXZ 1001c0c0 f   GameDBConfig.obj
 0001:0001b0e0       ?GetEmotionIconInfo@CGameDataSetX@@UBEPBDH@Z 1001c0e0 f   GameDBConfig.obj
 0001:0001b130       ?CreateActionTransitionInfo@CGameDataSetX@@AAE_NXZ 1001c130 f   GameDBConfig.obj
 0001:0001b540       ??1?$map@KKU?$less@K@std@@V?$allocator@K@2@@std@@QAE@XZ 1001c540 f i GameDBConfig.obj
 0001:0001b630       ?GetActionTransitionTime@CGameDataSetX@@UBEKKK@Z 1001c630 f   GameDBConfig.obj
 0001:0001b6e0       ?CreateMotionBufferInfo@CGameDataSetX@@AAE_NXZ 1001c6e0 f   GameDBConfig.obj
 0001:0001b880       ?BuildBin@CGameDataSetX@@UAEXXZ 1001c880 f   GameDBConfig.obj
 0001:0001b890       ?IsDummyObj@CGameDataSetX@@UBE_NPBD@Z 1001c890 f   GameDBConfig.obj
 0001:0001b990       ?GetRoleComponentInfo@CGameDataSetX@@ABEPBUROLE_COMPONENT_INFO@1@PBD@Z 1001c990 f   GameDBConfig.obj
 0001:0001baa0       ?Get3DMotionRes@CGameDataSetX@@UBEPBDPBD_J@Z 1001caa0 f   GameDBConfig.obj
 0001:0001bb80       ?GetIconAni@CGameDataSetX@@UAEPAVCAni@@H@Z 1001cb80 f   GameDBConfig.obj
 0001:0001bc00       ?GetSound@CGameDataSetX@@UAEPBDI@Z 1001cc00 f   GameDBConfig.obj
 0001:0001bc80       ?InitDBStrRes@CGameDataSetX@@UAE_NXZ 1001cc80 f   GameDBConfig.obj
 0001:0001bca0       ?InitStrRes@CGameDataSetX@@UAE_NXZ 1001cca0 f   GameDBConfig.obj
 0001:0001bcd0       ?GetVersionInfo@CGameDataSetX@@UAEPBDXZ 1001ccd0 f   GameDBConfig.obj
 0001:0001bce0       ?LoadImmediateIni@CGameDataSetX@@AAEXXZ 1001cce0 f   GameDBConfig.obj
 0001:0001bfa0       ?DestroyImmediateIni@CGameDataSetX@@AAEXXZ 1001cfa0 f   GameDBConfig.obj
 0001:0001c0d0       ??1?$map@_JKU?$less@_J@std@@V?$allocator@K@2@@std@@QAE@XZ 1001d0d0 f i GameDBConfig.obj
 0001:0001c1c0       ?IsImmediate@CGameDataSetX@@AAE_NPBD_J@Z 1001d1c0 f   GameDBConfig.obj
 0001:0001c310       ?GetRolePartConfig@CGameDataSetX@@UAEHPAPBDH@Z 1001d310 f   GameDBConfig.obj
 0001:0001c390       ?CreateDetailMeshRes@CGameDataSetX@@AAEXXZ 1001d390 f   GameDBConfig.obj
 0001:0001c560       ?AddResLodConfig@CGameDataSetX@@QAE_NHPBD000@Z 1001d560 f   GameDBConfig.obj
 0001:0001c760       ?SetCurrentResLod@CGameDataSetX@@QAE_NH_N@Z 1001d760 f   GameDBConfig.obj
 0001:0001cd10       ?EnableReturnDefaultAni@CGameDataSetX@@UAEX_N@Z 1001dd10 f   GameDBConfig.obj
 0001:0001cd20       ?SetResourceDefaultLife@CGameDataSetX@@UAEXKKKK@Z 1001dd20 f   GameDBConfig.obj
 0001:0001cd50       ??1?$_Tree@KU?$pair@$$CBKK@std@@U_Kfn@?$map@KKU?$less@K@std@@V?$allocator@K@2@@2@U?$less@K@2@V?$allocator@K@2@@std@@QAE@XZ 1001dd50 f i GameDBConfig.obj
 0001:0001ce30       ?push_back@?$deque@PAVCDataThreadObj@@V?$allocator@PAVCDataThreadObj@@@std@@@std@@QAEXABQAVCDataThreadObj@@@Z 1001de30 f i GameDBConfig.obj
 0001:0001d130       ??A?$map@HUC3_RES_LOD_DESC@CGameDataSetX@@U?$less@H@std@@V?$allocator@UC3_RES_LOD_DESC@CGameDataSetX@@@4@@std@@QAEAAUC3_RES_LOD_DESC@CGameDataSetX@@ABH@Z 1001e130 f i GameDBConfig.obj
 0001:0001d350       ??1ROLE_COMPONENT_INFO@CGameDataSetX@@QAE@XZ 1001e350 f i GameDBConfig.obj
 0001:0001d3c0       ??1?$map@IURolePartInfo@@U?$less@I@std@@V?$allocator@URolePartInfo@@@3@@std@@QAE@XZ 1001e3c0 f i GameDBConfig.obj
 0001:0001d4b0       ??1C3_RES_LOD_DESC@CGameDataSetX@@QAE@XZ 1001e4b0 f i GameDBConfig.obj
 0001:0001d6d0       ?find@?$_Tree@V?$basic_string@DU?$char_traits@D@std@@V?$allocator@D@2@@std@@U?$pair@$$CBV?$basic_string@DU?$char_traits@D@std@@V?$allocator@D@2@@std@@H@2@U_Kfn@?$map@V?$basic_string@DU?$char_traits@D@std@@V?$allocator@D@2@@std@@HU?$less@V?$basic_string@DU?$char_traits@D@std@@V?$allocator@D@2@@std@@@2@V?$allocator@H@2@@2@U?$less@V?$basic_string@DU?$char_traits@D@std@@V?$allocator@D@2@@std@@@2@V?$allocator@H@2@@std@@QAE?AViterator@12@ABV?$basic_string@DU?$char_traits@D@std@@V?$allocator@D@2@@2@@Z 1001e6d0 f i GameDBConfig.obj
 0001:0001d760       ?insert@?$map@V?$basic_string@DU?$char_traits@D@std@@V?$allocator@D@2@@std@@UROLE_COMPONENT_INFO@CGameDataSetX@@U?$less@V?$basic_string@DU?$char_traits@D@std@@V?$allocator@D@2@@std@@@2@V?$allocator@UROLE_COMPONENT_INFO@CGameDataSetX@@@2@@std@@QAE?AU?$pair@Viterator@?$_Tree@V?$basic_string@DU?$char_traits@D@std@@V?$allocator@D@2@@std@@U?$pair@$$CBV?$basic_string@DU?$char_traits@D@std@@V?$allocator@D@2@@std@@UROLE_COMPONENT_INFO@CGameDataSetX@@@2@U_Kfn@?$map@V?$basic_string@DU?$char_traits@D@std@@V?$allocator@D@2@@std@@UROLE_COMPONENT_INFO@CGameDataSetX@@U?$less@V?$basic_string@DU?$char_traits@D@std@@V?$allocator@D@2@@std@@@2@V?$allocator@UROLE_COMPONENT_INFO@CGameDataSetX@@@2@@2@U?$less@V?$basic_string@DU?$char_traits@D@std@@V?$allocator@D@2@@std@@@2@V?$allocator@UROLE_COMPONENT_INFO@CGameDataSetX@@@2@@std@@_N@2@ABU?$pair@$$CBV?$basic_string@DU?$char_traits@D@std@@V?$allocator@D@2@@std@@UROLE_COMPONENT_INFO@CGameDataSetX@@@2@@Z 1001e760 f i GameDBConfig.obj
 0001:0001d860       ??0?$pair@$$CBV?$basic_string@DU?$char_traits@D@std@@V?$allocator@D@2@@std@@UROLE_COMPONENT_INFO@CGameDataSetX@@@std@@QAE@ABV?$basic_string@DU?$char_traits@D@std@@V?$allocator@D@2@@1@ABUROLE_COMPONENT_INFO@CGameDataSetX@@@Z 1001e860 f i GameDBConfig.obj
 0001:0001d9c0       ?find@?$_Tree@V?$basic_string@DU?$char_traits@D@std@@V?$allocator@D@2@@std@@U?$pair@$$CBV?$basic_string@DU?$char_traits@D@std@@V?$allocator@D@2@@std@@V?$map@IURolePartInfo@@U?$less@I@std@@V?$allocator@URolePartInfo@@@3@@2@@2@U_Kfn@?$map@V?$basic_string@DU?$char_traits@D@std@@V?$allocator@D@2@@std@@V?$map@IURolePartInfo@@U?$less@I@std@@V?$allocator@URolePartInfo@@@3@@2@U?$less@V?$basic_string@DU?$char_traits@D@std@@V?$allocator@D@2@@std@@@2@V?$allocator@V?$map@IURolePartInfo@@U?$less@I@std@@V?$allocator@URolePartInfo@@@3@@std@@@2@@2@U?$less@V?$basic_string@DU?$char_traits@D@std@@V?$allocator@D@2@@std@@@2@V?$allocator@V?$map@IURolePartInfo@@U?$less@I@std@@V?$allocator@URolePartInfo@@@3@@std@@@2@@std@@QAE?AViterator@12@ABV?$basic_string@DU?$char_traits@D@std@@V?$allocator@D@2@@2@@Z 1001e9c0 f i GameDBConfig.obj
 0001:0001da50       ??0?$pair@$$CBV?$basic_string@DU?$char_traits@D@std@@V?$allocator@D@2@@std@@V?$map@IURolePartInfo@@U?$less@I@std@@V?$allocator@URolePartInfo@@@3@@2@@std@@QAE@ABV?$basic_string@DU?$char_traits@D@std@@V?$allocator@D@2@@1@ABV?$map@IURolePartInfo@@U?$less@I@std@@V?$allocator@URolePartInfo@@@3@@1@@Z 1001ea50 f i GameDBConfig.obj
 0001:0001dc10       ??1?$_Tree@IU?$pair@$$CBIURolePartInfo@@@std@@U_Kfn@?$map@IURolePartInfo@@U?$less@I@std@@V?$allocator@URolePartInfo@@@3@@2@U?$less@I@2@V?$allocator@URolePartInfo@@@2@@std@@QAE@XZ 1001ec10 f i GameDBConfig.obj
 0001:0001dcf0       ?insert@?$map@V?$basic_string@DU?$char_traits@D@std@@V?$allocator@D@2@@std@@V?$map@_JPBDU?$less@_J@std@@V?$allocator@PBD@2@@2@U?$less@V?$basic_string@DU?$char_traits@D@std@@V?$allocator@D@2@@std@@@2@V?$allocator@V?$map@_JPBDU?$less@_J@std@@V?$allocator@PBD@2@@std@@@2@@std@@QAE?AU?$pair@Viterator@?$_Tree@V?$basic_string@DU?$char_traits@D@std@@V?$allocator@D@2@@std@@U?$pair@$$CBV?$basic_string@DU?$char_traits@D@std@@V?$allocator@D@2@@std@@V?$map@_JPBDU?$less@_J@std@@V?$allocator@PBD@2@@2@@2@U_Kfn@?$map@V?$basic_string@DU?$char_traits@D@std@@V?$allocator@D@2@@std@@V?$map@_JPBDU?$less@_J@std@@V?$allocator@PBD@2@@2@U?$less@V?$basic_string@DU?$char_traits@D@std@@V?$allocator@D@2@@std@@@2@V?$allocator@V?$map@_JPBDU?$less@_J@std@@V?$allocator@PBD@2@@std@@@2@@2@U?$less@V?$basic_string@DU?$char_traits@D@std@@V?$allocator@D@2@@std@@@2@V?$allocator@V?$map@_JPBDU?$less@_J@std@@V?$allocator@PBD@2@@std@@@2@@std@@_N@2@ABU?$pair@$$CBV?$basic_string@DU?$char_traits@D@std@@V?$allocator@D@2@@std@@V?$map@_JPBDU?$less@_J@std@@V?$allocator@PBD@2@@2@@2@@Z 1001ecf0 f i GameDBConfig.obj
 0001:0001ddf0       ??0?$pair@$$CBV?$basic_string@DU?$char_traits@D@std@@V?$allocator@D@2@@std@@V?$map@_JPBDU?$less@_J@std@@V?$allocator@PBD@2@@2@@std@@QAE@ABV?$basic_string@DU?$char_traits@D@std@@V?$allocator@D@2@@1@ABV?$map@_JPBDU?$less@_J@std@@V?$allocator@PBD@2@@1@@Z 1001edf0 f i GameDBConfig.obj
 0001:0001dfb0       ??0?$map@_JPBDU?$less@_J@std@@V?$allocator@PBD@2@@std@@QAE@ABU?$less@_J@1@ABV?$allocator@PBD@1@@Z 1001efb0 f i GameDBConfig.obj
 0001:0001e060       ?insert@?$_Tree@V?$basic_string@DU?$char_traits@D@std@@V?$allocator@D@2@@std@@V12@U_Kfn@?$set@V?$basic_string@DU?$char_traits@D@std@@V?$allocator@D@2@@std@@U?$less@V?$basic_string@DU?$char_traits@D@std@@V?$allocator@D@2@@std@@@2@V?$allocator@V?$basic_string@DU?$char_traits@D@std@@V?$allocator@D@2@@std@@@2@@2@U?$less@V?$basic_string@DU?$char_traits@D@std@@V?$allocator@D@2@@std@@@2@V?$allocator@V?$basic_string@DU?$char_traits@D@std@@V?$allocator@D@2@@std@@@2@@std@@QAE?AU?$pair@Viterator@?$_Tree@V?$basic_string@DU?$char_traits@D@std@@V?$allocator@D@2@@std@@V12@U_Kfn@?$set@V?$basic_string@DU?$char_traits@D@std@@V?$allocator@D@2@@std@@U?$less@V?$basic_string@DU?$char_traits@D@std@@V?$allocator@D@2@@std@@@2@V?$allocator@V?$basic_string@DU?$char_traits@D@std@@V?$allocator@D@2@@std@@@2@@2@U?$less@V?$basic_string@DU?$char_traits@D@std@@V?$allocator@D@2@@std@@@2@V?$allocator@V?$basic_string@DU?$char_traits@D@std@@V?$allocator@D@2@@std@@@2@@std@@_N@2@ABV?$basic_string@DU?$char_traits@D@std@@V?$allocator@D@2@@2@@Z 1001f060 f i GameDBConfig.obj
 0001:0001e2b0       ?insert@?$map@KV?$map@KKU?$less@K@std@@V?$allocator@K@2@@std@@U?$less@K@2@V?$allocator@V?$map@KKU?$less@K@std@@V?$allocator@K@2@@std@@@2@@std@@QAE?AU?$pair@Viterator@?$_Tree@KU?$pair@$$CBKV?$map@KKU?$less@K@std@@V?$allocator@K@2@@std@@@std@@U_Kfn@?$map@KV?$map@KKU?$less@K@std@@V?$allocator@K@2@@std@@U?$less@K@2@V?$allocator@V?$map@KKU?$less@K@std@@V?$allocator@K@2@@std@@@2@@2@U?$less@K@2@V?$allocator@V?$map@KKU?$less@K@std@@V?$allocator@K@2@@std@@@2@@std@@_N@2@ABU?$pair@$$CBKV?$map@KKU?$less@K@std@@V?$allocator@K@2@@std@@@2@@Z 1001f2b0 f i GameDBConfig.obj
 0001:0001e3a0       ??0?$_Tree@KU?$pair@$$CBKK@std@@U_Kfn@?$map@KKU?$less@K@std@@V?$allocator@K@2@@2@U?$less@K@2@V?$allocator@K@2@@std@@QAE@ABU?$less@K@1@_NABV?$allocator@K@1@@Z 1001f3a0 f i GameDBConfig.obj
 0001:0001e3d0       ?erase@?$_Tree@KU?$pair@$$CBKK@std@@U_Kfn@?$map@KKU?$less@K@std@@V?$allocator@K@2@@2@U?$less@K@2@V?$allocator@K@2@@std@@QAE?AViterator@12@V312@0@Z 1001f3d0 f i GameDBConfig.obj
 0001:0001e4a0       ?find@?$_Tree@V?$basic_string@DU?$char_traits@D@std@@V?$allocator@D@2@@std@@U?$pair@$$CBV?$basic_string@DU?$char_traits@D@std@@V?$allocator@D@2@@std@@PAV?$map@_JKU?$less@_J@std@@V?$allocator@K@2@@2@@2@U_Kfn@?$map@V?$basic_string@DU?$char_traits@D@std@@V?$allocator@D@2@@std@@PAV?$map@_JKU?$less@_J@std@@V?$allocator@K@2@@2@U?$less@V?$basic_string@DU?$char_traits@D@std@@V?$allocator@D@2@@std@@@2@V?$allocator@PAV?$map@_JKU?$less@_J@std@@V?$allocator@K@2@@std@@@2@@2@U?$less@V?$basic_string@DU?$char_traits@D@std@@V?$allocator@D@2@@std@@@2@V?$allocator@PAV?$map@_JKU?$less@_J@std@@V?$allocator@K@2@@std@@@2@@std@@QAE?AViterator@12@ABV?$basic_string@DU?$char_traits@D@std@@V?$allocator@D@2@@2@@Z 1001f4a0 f i GameDBConfig.obj
 0001:0001e530       ?find@?$_Tree@HU?$pair@$$CBHUC3_RES_LOD_DESC@CGameDataSetX@@@std@@U_Kfn@?$map@HUC3_RES_LOD_DESC@CGameDataSetX@@U?$less@H@std@@V?$allocator@UC3_RES_LOD_DESC@CGameDataSetX@@@4@@2@U?$less@H@2@V?$allocator@UC3_RES_LOD_DESC@CGameDataSetX@@@2@@std@@QAE?AViterator@12@ABH@Z 1001f530 f i GameDBConfig.obj
 0001:0001e5a0       ?erase@?$_Tree@_JU?$pair@$$CB_JK@std@@U_Kfn@?$map@_JKU?$less@_J@std@@V?$allocator@K@2@@2@U?$less@_J@2@V?$allocator@K@2@@std@@QAE?AViterator@12@V312@0@Z 1001f5a0 f i GameDBConfig.obj
 0001:0001e670       ??0?$map@KKU?$less@K@std@@V?$allocator@K@2@@std@@QAE@ABV01@@Z 1001f670 f i GameDBConfig.obj
 0001:0001e7f0       ??0C3_RES_LOD_DESC@CGameDataSetX@@QAE@ABU01@@Z 1001f7f0 f i GameDBConfig.obj
 0001:0001e940       ?insert@?$_Tree@IU?$pair@$$CBIPAUC3DSimpleObjInfo@@@std@@U_Kfn@?$map@IPAUC3DSimpleObjInfo@@U?$less@I@std@@V?$allocator@PAUC3DSimpleObjInfo@@@3@@2@U?$less@I@2@V?$allocator@PAUC3DSimpleObjInfo@@@2@@std@@QAE?AU?$pair@Viterator@?$_Tree@IU?$pair@$$CBIPAUC3DSimpleObjInfo@@@std@@U_Kfn@?$map@IPAUC3DSimpleObjInfo@@U?$less@I@std@@V?$allocator@PAUC3DSimpleObjInfo@@@3@@2@U?$less@I@2@V?$allocator@PAUC3DSimpleObjInfo@@@2@@std@@_N@2@ABU?$pair@$$CBIPAUC3DSimpleObjInfo@@@2@@Z 1001f940 f i GameDBConfig.obj
 0001:0001eb80       ?_Lrotate@?$_Tree@IU?$pair@$$CBIPAUC3DSimpleObjInfo@@@std@@U_Kfn@?$map@IPAUC3DSimpleObjInfo@@U?$less@I@std@@V?$allocator@PAUC3DSimpleObjInfo@@@3@@2@U?$less@I@2@V?$allocator@PAUC3DSimpleObjInfo@@@2@@std@@IAEXPAU_Node@12@@Z 1001fb80 f i GameDBConfig.obj
 0001:0001ebe0       ?_Rrotate@?$_Tree@IU?$pair@$$CBIPAUC3DSimpleObjInfo@@@std@@U_Kfn@?$map@IPAUC3DSimpleObjInfo@@U?$less@I@std@@V?$allocator@PAUC3DSimpleObjInfo@@@3@@2@U?$less@I@2@V?$allocator@PAUC3DSimpleObjInfo@@@2@@std@@IAEXPAU_Node@12@@Z 1001fbe0 f i GameDBConfig.obj
 0001:0001ec40       ?insert@?$_Tree@V?$basic_string@DU?$char_traits@D@std@@V?$allocator@D@2@@std@@U?$pair@$$CBV?$basic_string@DU?$char_traits@D@std@@V?$allocator@D@2@@std@@PAUCMy3DEffectInfo@@@2@U_Kfn@?$map@V?$basic_string@DU?$char_traits@D@std@@V?$allocator@D@2@@std@@PAUCMy3DEffectInfo@@U?$less@V?$basic_string@DU?$char_traits@D@std@@V?$allocator@D@2@@std@@@2@V?$allocator@PAUCMy3DEffectInfo@@@2@@2@U?$less@V?$basic_string@DU?$char_traits@D@std@@V?$allocator@D@2@@std@@@2@V?$allocator@PAUCMy3DEffectInfo@@@2@@std@@QAE?AU?$pair@Viterator@?$_Tree@V?$basic_string@DU?$char_traits@D@std@@V?$allocator@D@2@@std@@U?$pair@$$CBV?$basic_string@DU?$char_traits@D@std@@V?$allocator@D@2@@std@@PAUCMy3DEffectInfo@@@2@U_Kfn@?$map@V?$basic_string@DU?$char_traits@D@std@@V?$allocator@D@2@@std@@PAUCMy3DEffectInfo@@U?$less@V?$basic_string@DU?$char_traits@D@std@@V?$allocator@D@2@@std@@@2@V?$allocator@PAUCMy3DEffectInfo@@@2@@2@U?$less@V?$basic_string@DU?$char_traits@D@std@@V?$allocator@D@2@@std@@@2@V?$allocator@PAUCMy3DEffectInfo@@@2@@std@@_N@2@ABU?$pair@$$CBV?$basic_string@DU?$char_traits@D@std@@V?$allocator@D@2@@std@@PAUCMy3DEffectInfo@@@2@@Z 1001fc40 f i GameDBConfig.obj
 0001:0001ee90       ?lower_bound@?$_Tree@V?$basic_string@DU?$char_traits@D@std@@V?$allocator@D@2@@std@@U?$pair@$$CBV?$basic_string@DU?$char_traits@D@std@@V?$allocator@D@2@@std@@PAUCMy3DEffectInfo@@@2@U_Kfn@?$map@V?$basic_string@DU?$char_traits@D@std@@V?$allocator@D@2@@std@@PAUCMy3DEffectInfo@@U?$less@V?$basic_string@DU?$char_traits@D@std@@V?$allocator@D@2@@std@@@2@V?$allocator@PAUCMy3DEffectInfo@@@2@@2@U?$less@V?$basic_string@DU?$char_traits@D@std@@V?$allocator@D@2@@std@@@2@V?$allocator@PAUCMy3DEffectInfo@@@2@@std@@QBE?AVconst_iterator@12@ABV?$basic_string@DU?$char_traits@D@std@@V?$allocator@D@2@@2@@Z 1001fe90 f i GameDBConfig.obj
 0001:0001ee90       ?lower_bound@?$_Tree@V?$basic_string@DU?$char_traits@D@std@@V?$allocator@D@2@@std@@U?$pair@$$CBV?$basic_string@DU?$char_traits@D@std@@V?$allocator@D@2@@std@@PAUCMy3DEffectInfo@@@2@U_Kfn@?$map@V?$basic_string@DU?$char_traits@D@std@@V?$allocator@D@2@@std@@PAUCMy3DEffectInfo@@U?$less@V?$basic_string@DU?$char_traits@D@std@@V?$allocator@D@2@@std@@@2@V?$allocator@PAUCMy3DEffectInfo@@@2@@2@U?$less@V?$basic_string@DU?$char_traits@D@std@@V?$allocator@D@2@@std@@@2@V?$allocator@PAUCMy3DEffectInfo@@@2@@std@@QAE?AViterator@12@ABV?$basic_string@DU?$char_traits@D@std@@V?$allocator@D@2@@2@@Z 1001fe90 f i GameDBConfig.obj
 0001:0001eef0       ?_Lrotate@?$_Tree@V?$basic_string@DU?$char_traits@D@std@@V?$allocator@D@2@@std@@U?$pair@$$CBV?$basic_string@DU?$char_traits@D@std@@V?$allocator@D@2@@std@@PAUCMy3DEffectInfo@@@2@U_Kfn@?$map@V?$basic_string@DU?$char_traits@D@std@@V?$allocator@D@2@@std@@PAUCMy3DEffectInfo@@U?$less@V?$basic_string@DU?$char_traits@D@std@@V?$allocator@D@2@@std@@@2@V?$allocator@PAUCMy3DEffectInfo@@@2@@2@U?$less@V?$basic_string@DU?$char_traits@D@std@@V?$allocator@D@2@@std@@@2@V?$allocator@PAUCMy3DEffectInfo@@@2@@std@@IAEXPAU_Node@12@@Z 1001fef0 f i GameDBConfig.obj
 0001:0001ef50       ?_Rrotate@?$_Tree@V?$basic_string@DU?$char_traits@D@std@@V?$allocator@D@2@@std@@U?$pair@$$CBV?$basic_string@DU?$char_traits@D@std@@V?$allocator@D@2@@std@@PAUCMy3DEffectInfo@@@2@U_Kfn@?$map@V?$basic_string@DU?$char_traits@D@std@@V?$allocator@D@2@@std@@PAUCMy3DEffectInfo@@U?$less@V?$basic_string@DU?$char_traits@D@std@@V?$allocator@D@2@@std@@@2@V?$allocator@PAUCMy3DEffectInfo@@@2@@2@U?$less@V?$basic_string@DU?$char_traits@D@std@@V?$allocator@D@2@@std@@@2@V?$allocator@PAUCMy3DEffectInfo@@@2@@std@@IAEXPAU_Node@12@@Z 1001ff50 f i GameDBConfig.obj
 0001:0001efb0       ?insert@?$vector@UD3DMATERIAL@@V?$allocator@UD3DMATERIAL@@@std@@@std@@QAEXPAUD3DMATERIAL@@IABU3@@Z 1001ffb0 f i GameDBConfig.obj
 0001:0001f2d0       ?insert@?$_Tree@V?$basic_string@DU?$char_traits@D@std@@V?$allocator@D@2@@std@@U?$pair@$$CBV?$basic_string@DU?$char_traits@D@std@@V?$allocator@D@2@@std@@H@2@U_Kfn@?$map@V?$basic_string@DU?$char_traits@D@std@@V?$allocator@D@2@@std@@HU?$less@V?$basic_string@DU?$char_traits@D@std@@V?$allocator@D@2@@std@@@2@V?$allocator@H@2@@2@U?$less@V?$basic_string@DU?$char_traits@D@std@@V?$allocator@D@2@@std@@@2@V?$allocator@H@2@@std@@QAE?AU?$pair@Viterator@?$_Tree@V?$basic_string@DU?$char_traits@D@std@@V?$allocator@D@2@@std@@U?$pair@$$CBV?$basic_string@DU?$char_traits@D@std@@V?$allocator@D@2@@std@@H@2@U_Kfn@?$map@V?$basic_string@DU?$char_traits@D@std@@V?$allocator@D@2@@std@@HU?$less@V?$basic_string@DU?$char_traits@D@std@@V?$allocator@D@2@@std@@@2@V?$allocator@H@2@@2@U?$less@V?$basic_string@DU?$char_traits@D@std@@V?$allocator@D@2@@std@@@2@V?$allocator@H@2@@std@@_N@2@ABU?$pair@$$CBV?$basic_string@DU?$char_traits@D@std@@V?$allocator@D@2@@std@@H@2@@Z 100202d0 f i GameDBConfig.obj
 0001:0001f520       ?lower_bound@?$_Tree@V?$basic_string@DU?$char_traits@D@std@@V?$allocator@D@2@@std@@U?$pair@$$CBV?$basic_string@DU?$char_traits@D@std@@V?$allocator@D@2@@std@@UROLE_COMPONENT_INFO@CGameDataSetX@@@2@U_Kfn@?$map@V?$basic_string@DU?$char_traits@D@std@@V?$allocator@D@2@@std@@UROLE_COMPONENT_INFO@CGameDataSetX@@U?$less@V?$basic_string@DU?$char_traits@D@std@@V?$allocator@D@2@@std@@@2@V?$allocator@UROLE_COMPONENT_INFO@CGameDataSetX@@@2@@2@U?$less@V?$basic_string@DU?$char_traits@D@std@@V?$allocator@D@2@@std@@@2@V?$allocator@UROLE_COMPONENT_INFO@CGameDataSetX@@@2@@std@@QBE?AVconst_iterator@12@ABV?$basic_string@DU?$char_traits@D@std@@V?$allocator@D@2@@2@@Z 10020520 f i GameDBConfig.obj
 0001:0001f580       ?insert@?$_Tree@V?$basic_string@DU?$char_traits@D@std@@V?$allocator@D@2@@std@@U?$pair@$$CBV?$basic_string@DU?$char_traits@D@std@@V?$allocator@D@2@@std@@V?$map@IURolePartInfo@@U?$less@I@std@@V?$allocator@URolePartInfo@@@3@@2@@2@U_Kfn@?$map@V?$basic_string@DU?$char_traits@D@std@@V?$allocator@D@2@@std@@V?$map@IURolePartInfo@@U?$less@I@std@@V?$allocator@URolePartInfo@@@3@@2@U?$less@V?$basic_string@DU?$char_traits@D@std@@V?$allocator@D@2@@std@@@2@V?$allocator@V?$map@IURolePartInfo@@U?$less@I@std@@V?$allocator@URolePartInfo@@@3@@std@@@2@@2@U?$less@V?$basic_string@DU?$char_traits@D@std@@V?$allocator@D@2@@std@@@2@V?$allocator@V?$map@IURolePartInfo@@U?$less@I@std@@V?$allocator@URolePartInfo@@@3@@std@@@2@@std@@QAE?AU?$pair@Viterator@?$_Tree@V?$basic_string@DU?$char_traits@D@std@@V?$allocator@D@2@@std@@U?$pair@$$CBV?$basic_string@DU?$char_traits@D@std@@V?$allocator@D@2@@std@@V?$map@IURolePartInfo@@U?$less@I@std@@V?$allocator@URolePartInfo@@@3@@2@@2@U_Kfn@?$map@V?$basic_string@DU?$char_traits@D@std@@V?$allocator@D@2@@std@@V?$map@IURolePartInfo@@U?$less@I@std@@V?$allocator@URolePartInfo@@@3@@2@U?$less@V?$basic_string@DU?$char_traits@D@std@@V?$allocator@D@2@@std@@@2@V?$allocator@V?$map@IURolePartInfo@@U?$less@I@std@@V?$allocator@URolePartInfo@@@3@@std@@@2@@2@U?$less@V?$basic_string@DU?$char_traits@D@std@@V?$allocator@D@2@@std@@@2@V?$allocator@V?$map@IURolePartInfo@@U?$less@I@std@@V?$allocator@URolePartInfo@@@3@@std@@@2@@std@@_N@2@ABU?$pair@$$CBV?$basic_string@DU?$char_traits@D@std@@V?$allocator@D@2@@std@@V?$map@IURolePartInfo@@U?$less@I@std@@V?$allocator@URolePartInfo@@@3@@2@@2@@Z 10020580 f i GameDBConfig.obj
 0001:0001f7d0       ??0?$_Tree@IU?$pair@$$CBIURolePartInfo@@@std@@U_Kfn@?$map@IURolePartInfo@@U?$less@I@std@@V?$allocator@URolePartInfo@@@3@@2@U?$less@I@2@V?$allocator@URolePartInfo@@@2@@std@@QAE@ABU?$less@I@1@_NABV?$allocator@URolePartInfo@@@1@@Z 100207d0 f i GameDBConfig.obj
 0001:0001f800       ?insert@?$_Tree@IU?$pair@$$CBIURolePartInfo@@@std@@U_Kfn@?$map@IURolePartInfo@@U?$less@I@std@@V?$allocator@URolePartInfo@@@3@@2@U?$less@I@2@V?$allocator@URolePartInfo@@@2@@std@@QAE?AU?$pair@Viterator@?$_Tree@IU?$pair@$$CBIURolePartInfo@@@std@@U_Kfn@?$map@IURolePartInfo@@U?$less@I@std@@V?$allocator@URolePartInfo@@@3@@2@U?$less@I@2@V?$allocator@URolePartInfo@@@2@@std@@_N@2@ABU?$pair@$$CBIURolePartInfo@@@2@@Z 10020800 f i GameDBConfig.obj
 0001:0001fa70       ?insert@?$_Tree@_JU?$pair@$$CB_JPBD@std@@U_Kfn@?$map@_JPBDU?$less@_J@std@@V?$allocator@PBD@2@@2@U?$less@_J@2@V?$allocator@PBD@2@@std@@QAE?AU?$pair@Viterator@?$_Tree@_JU?$pair@$$CB_JPBD@std@@U_Kfn@?$map@_JPBDU?$less@_J@std@@V?$allocator@PBD@2@@2@U?$less@_J@2@V?$allocator@PBD@2@@std@@_N@2@ABU?$pair@$$CB_JPBD@2@@Z 10020a70 f i GameDBConfig.obj
 0001:0001fce0       ?insert@?$vector@V?$basic_string@DU?$char_traits@D@std@@V?$allocator@D@2@@std@@V?$allocator@V?$basic_string@DU?$char_traits@D@std@@V?$allocator@D@2@@std@@@2@@std@@QAEXPAV?$basic_string@DU?$char_traits@D@std@@V?$allocator@D@2@@2@IABV32@@Z 10020ce0 f i GameDBConfig.obj
 0001:0001ffa0       ?erase@?$_Tree@V?$basic_string@DU?$char_traits@D@std@@V?$allocator@D@2@@std@@V12@U_Kfn@?$set@V?$basic_string@DU?$char_traits@D@std@@V?$allocator@D@2@@std@@U?$less@V?$basic_string@DU?$char_traits@D@std@@V?$allocator@D@2@@std@@@2@V?$allocator@V?$basic_string@DU?$char_traits@D@std@@V?$allocator@D@2@@std@@@2@@2@U?$less@V?$basic_string@DU?$char_traits@D@std@@V?$allocator@D@2@@std@@@2@V?$allocator@V?$basic_string@DU?$char_traits@D@std@@V?$allocator@D@2@@std@@@2@@std@@QAE?AViterator@12@V312@0@Z 10020fa0 f i GameDBConfig.obj
 0001:00020080       ?_Insert@?$_Tree@V?$basic_string@DU?$char_traits@D@std@@V?$allocator@D@2@@std@@V12@U_Kfn@?$set@V?$basic_string@DU?$char_traits@D@std@@V?$allocator@D@2@@std@@U?$less@V?$basic_string@DU?$char_traits@D@std@@V?$allocator@D@2@@std@@@2@V?$allocator@V?$basic_string@DU?$char_traits@D@std@@V?$allocator@D@2@@std@@@2@@2@U?$less@V?$basic_string@DU?$char_traits@D@std@@V?$allocator@D@2@@std@@@2@V?$allocator@V?$basic_string@DU?$char_traits@D@std@@V?$allocator@D@2@@std@@@2@@std@@IAE?AViterator@12@PAU_Node@12@0ABV?$basic_string@DU?$char_traits@D@std@@V?$allocator@D@2@@2@@Z 10021080 f i GameDBConfig.obj
 0001:000202f0       ?lower_bound@?$_Tree@KU?$pair@$$CBKV?$map@KKU?$less@K@std@@V?$allocator@K@2@@std@@@std@@U_Kfn@?$map@KV?$map@KKU?$less@K@std@@V?$allocator@K@2@@std@@U?$less@K@2@V?$allocator@V?$map@KKU?$less@K@std@@V?$allocator@K@2@@std@@@2@@2@U?$less@K@2@V?$allocator@V?$map@KKU?$less@K@std@@V?$allocator@K@2@@std@@@2@@std@@QBE?AVconst_iterator@12@ABK@Z 100212f0 f i GameDBConfig.obj
 0001:00020330       ?insert@?$_Tree@KU?$pair@$$CBKK@std@@U_Kfn@?$map@KKU?$less@K@std@@V?$allocator@K@2@@2@U?$less@K@2@V?$allocator@K@2@@std@@QAE?AU?$pair@Viterator@?$_Tree@KU?$pair@$$CBKK@std@@U_Kfn@?$map@KKU?$less@K@std@@V?$allocator@K@2@@2@U?$less@K@2@V?$allocator@K@2@@std@@_N@2@ABU?$pair@$$CBKK@2@@Z 10021330 f i GameDBConfig.obj
 0001:00020570       ?_Copy@?$_Tree@KU?$pair@$$CBKK@std@@U_Kfn@?$map@KKU?$less@K@std@@V?$allocator@K@2@@2@U?$less@K@2@V?$allocator@K@2@@std@@IAEXABV12@@Z 10021570 f i GameDBConfig.obj
 0001:00020660       ?_Init@?$_Tree@KU?$pair@$$CBKK@std@@U_Kfn@?$map@KKU?$less@K@std@@V?$allocator@K@2@@2@U?$less@K@2@V?$allocator@K@2@@std@@IAEXXZ 10021660 f i GameDBConfig.obj
 0001:00020700       ?_Growmap@?$deque@PAVCDataThreadObj@@V?$allocator@PAVCDataThreadObj@@@std@@@std@@IAEPAPAPAVCDataThreadObj@@I@Z 10021700 f i GameDBConfig.obj
 0001:00020770       ?insert@?$_Tree@V?$basic_string@DU?$char_traits@D@std@@V?$allocator@D@2@@std@@U?$pair@$$CBV?$basic_string@DU?$char_traits@D@std@@V?$allocator@D@2@@std@@PAV?$map@_JKU?$less@_J@std@@V?$allocator@K@2@@2@@2@U_Kfn@?$map@V?$basic_string@DU?$char_traits@D@std@@V?$allocator@D@2@@std@@PAV?$map@_JKU?$less@_J@std@@V?$allocator@K@2@@2@U?$less@V?$basic_string@DU?$char_traits@D@std@@V?$allocator@D@2@@std@@@2@V?$allocator@PAV?$map@_JKU?$less@_J@std@@V?$allocator@K@2@@std@@@2@@2@U?$less@V?$basic_string@DU?$char_traits@D@std@@V?$allocator@D@2@@std@@@2@V?$allocator@PAV?$map@_JKU?$less@_J@std@@V?$allocator@K@2@@std@@@2@@std@@QAE?AU?$pair@Viterator@?$_Tree@V?$basic_string@DU?$char_traits@D@std@@V?$allocator@D@2@@std@@U?$pair@$$CBV?$basic_string@DU?$char_traits@D@std@@V?$allocator@D@2@@std@@PAV?$map@_JKU?$less@_J@std@@V?$allocator@K@2@@2@@2@U_Kfn@?$map@V?$basic_string@DU?$char_traits@D@std@@V?$allocator@D@2@@std@@PAV?$map@_JKU?$less@_J@std@@V?$allocator@K@2@@2@U?$less@V?$basic_string@DU?$char_traits@D@std@@V?$allocator@D@2@@std@@@2@V?$allocator@PAV?$map@_JKU?$less@_J@std@@V?$allocator@K@2@@std@@@2@@2@U?$less@V?$basic_string@DU?$char_traits@D@std@@V?$allocator@D@2@@std@@@2@V?$allocator@PAV?$map@_JKU?$less@_J@std@@V?$allocator@K@2@@std@@@2@@std@@_N@2@ABU?$pair@$$CBV?$basic_string@DU?$char_traits@D@std@@V?$allocator@D@2@@std@@PAV?$map@_JKU?$less@_J@std@@V?$allocator@K@2@@2@@2@@Z 10021770 f i GameDBConfig.obj
 0001:000209c0       ?insert@?$_Tree@IU?$pair@$$CBIUDETAIL_INFO@CGameDataSetX@@@std@@U_Kfn@?$map@IUDETAIL_INFO@CGameDataSetX@@U?$less@I@std@@V?$allocator@UDETAIL_INFO@CGameDataSetX@@@4@@2@U?$less@I@2@V?$allocator@UDETAIL_INFO@CGameDataSetX@@@2@@std@@QAE?AU?$pair@Viterator@?$_Tree@IU?$pair@$$CBIUDETAIL_INFO@CGameDataSetX@@@std@@U_Kfn@?$map@IUDETAIL_INFO@CGameDataSetX@@U?$less@I@std@@V?$allocator@UDETAIL_INFO@CGameDataSetX@@@4@@2@U?$less@I@2@V?$allocator@UDETAIL_INFO@CGameDataSetX@@@2@@std@@_N@2@ABU?$pair@$$CBIUDETAIL_INFO@CGameDataSetX@@@2@@Z 100219c0 f i GameDBConfig.obj
 0001:00020c00       ?insert@?$_Tree@HU?$pair@$$CBHUC3_RES_LOD_DESC@CGameDataSetX@@@std@@U_Kfn@?$map@HUC3_RES_LOD_DESC@CGameDataSetX@@U?$less@H@std@@V?$allocator@UC3_RES_LOD_DESC@CGameDataSetX@@@4@@2@U?$less@H@2@V?$allocator@UC3_RES_LOD_DESC@CGameDataSetX@@@2@@std@@QAE?AU?$pair@Viterator@?$_Tree@HU?$pair@$$CBHUC3_RES_LOD_DESC@CGameDataSetX@@@std@@U_Kfn@?$map@HUC3_RES_LOD_DESC@CGameDataSetX@@U?$less@H@std@@V?$allocator@UC3_RES_LOD_DESC@CGameDataSetX@@@4@@2@U?$less@H@2@V?$allocator@UC3_RES_LOD_DESC@CGameDataSetX@@@2@@std@@_N@2@ABU?$pair@$$CBHUC3_RES_LOD_DESC@CGameDataSetX@@@2@@Z 10021c00 f i GameDBConfig.obj
 0001:00020e40       ?_Min@?$_Tree@HU?$pair@$$CBHUC3_RES_LOD_DESC@CGameDataSetX@@@std@@U_Kfn@?$map@HUC3_RES_LOD_DESC@CGameDataSetX@@U?$less@H@std@@V?$allocator@UC3_RES_LOD_DESC@CGameDataSetX@@@4@@2@U?$less@H@2@V?$allocator@UC3_RES_LOD_DESC@CGameDataSetX@@@2@@std@@KAPAU_Node@12@PAU312@@Z 10021e40 f i GameDBConfig.obj
 0001:00020e60       ?insert@?$_Tree@_JU?$pair@$$CB_JK@std@@U_Kfn@?$map@_JKU?$less@_J@std@@V?$allocator@K@2@@2@U?$less@_J@2@V?$allocator@K@2@@std@@QAE?AU?$pair@Viterator@?$_Tree@_JU?$pair@$$CB_JK@std@@U_Kfn@?$map@_JKU?$less@_J@std@@V?$allocator@K@2@@2@U?$less@_J@2@V?$allocator@K@2@@std@@_N@2@ABU?$pair@$$CB_JK@2@@Z 10021e60 f i GameDBConfig.obj
 0001:000210d0       ?erase@?$_Tree@_JU?$pair@$$CB_JK@std@@U_Kfn@?$map@_JKU?$less@_J@std@@V?$allocator@K@2@@2@U?$less@_J@2@V?$allocator@K@2@@std@@QAE?AViterator@12@V312@@Z 100220d0 f i GameDBConfig.obj
 0001:000214d0       ?_Erase@?$_Tree@_JU?$pair@$$CB_JK@std@@U_Kfn@?$map@_JKU?$less@_J@std@@V?$allocator@K@2@@2@U?$less@_J@2@V?$allocator@K@2@@std@@IAEXPAU_Node@12@@Z 100224d0 f i GameDBConfig.obj
 0001:00021510       ?_Init@?$_Tree@_JU?$pair@$$CB_JK@std@@U_Kfn@?$map@_JKU?$less@_J@std@@V?$allocator@K@2@@2@U?$less@_J@2@V?$allocator@K@2@@std@@IAEXXZ 10022510 f i GameDBConfig.obj
 0001:000215b0       ?_Insert@?$_Tree@IU?$pair@$$CBIPAUC3DSimpleObjInfo@@@std@@U_Kfn@?$map@IPAUC3DSimpleObjInfo@@U?$less@I@std@@V?$allocator@PAUC3DSimpleObjInfo@@@3@@2@U?$less@I@2@V?$allocator@PAUC3DSimpleObjInfo@@@2@@std@@IAE?AViterator@12@PAU_Node@12@0ABU?$pair@$$CBIPAUC3DSimpleObjInfo@@@2@@Z 100225b0 f i GameDBConfig.obj
 0001:00021820       ?_Lbound@?$_Tree@IU?$pair@$$CBIPAUC3DSimpleObjInfo@@@std@@U_Kfn@?$map@IPAUC3DSimpleObjInfo@@U?$less@I@std@@V?$allocator@PAUC3DSimpleObjInfo@@@3@@2@U?$less@I@2@V?$allocator@PAUC3DSimpleObjInfo@@@2@@std@@IBEPAU_Node@12@ABI@Z 10022820 f i GameDBConfig.obj
 0001:00021850       ?_Insert@?$_Tree@IU?$pair@$$CBIUC3DSimpleObjInfoEx@@@std@@U_Kfn@?$map@IUC3DSimpleObjInfoEx@@U?$less@I@std@@V?$allocator@UC3DSimpleObjInfoEx@@@3@@2@U?$less@I@2@V?$allocator@UC3DSimpleObjInfoEx@@@2@@std@@IAE?AViterator@12@PAU_Node@12@0ABU?$pair@$$CBIUC3DSimpleObjInfoEx@@@2@@Z 10022850 f i GameDBConfig.obj
 0001:00021af0       ?_Lbound@?$_Tree@IU?$pair@$$CBIUC3DSimpleObjInfoEx@@@std@@U_Kfn@?$map@IUC3DSimpleObjInfoEx@@U?$less@I@std@@V?$allocator@UC3DSimpleObjInfoEx@@@3@@2@U?$less@I@2@V?$allocator@UC3DSimpleObjInfoEx@@@2@@std@@IBEPAU_Node@12@ABI@Z 10022af0 f i GameDBConfig.obj
 0001:00021b20       ?_Insert@?$_Tree@V?$basic_string@DU?$char_traits@D@std@@V?$allocator@D@2@@std@@U?$pair@$$CBV?$basic_string@DU?$char_traits@D@std@@V?$allocator@D@2@@std@@PAUCMy3DEffectInfo@@@2@U_Kfn@?$map@V?$basic_string@DU?$char_traits@D@std@@V?$allocator@D@2@@std@@PAUCMy3DEffectInfo@@U?$less@V?$basic_string@DU?$char_traits@D@std@@V?$allocator@D@2@@std@@@2@V?$allocator@PAUCMy3DEffectInfo@@@2@@2@U?$less@V?$basic_string@DU?$char_traits@D@std@@V?$allocator@D@2@@std@@@2@V?$allocator@PAUCMy3DEffectInfo@@@2@@std@@IAE?AViterator@12@PAU_Node@12@0ABU?$pair@$$CBV?$basic_string@DU?$char_traits@D@std@@V?$allocator@D@2@@std@@PAUCMy3DEffectInfo@@@2@@Z 10022b20 f i GameDBConfig.obj
 0001:00021d90       ?_Insert@?$_Tree@V?$basic_string@DU?$char_traits@D@std@@V?$allocator@D@2@@std@@U?$pair@$$CBV?$basic_string@DU?$char_traits@D@std@@V?$allocator@D@2@@std@@H@2@U_Kfn@?$map@V?$basic_string@DU?$char_traits@D@std@@V?$allocator@D@2@@std@@HU?$less@V?$basic_string@DU?$char_traits@D@std@@V?$allocator@D@2@@std@@@2@V?$allocator@H@2@@2@U?$less@V?$basic_string@DU?$char_traits@D@std@@V?$allocator@D@2@@std@@@2@V?$allocator@H@2@@std@@IAE?AViterator@12@PAU_Node@12@0ABU?$pair@$$CBV?$basic_string@DU?$char_traits@D@std@@V?$allocator@D@2@@std@@H@2@@Z 10022d90 f i GameDBConfig.obj
 0001:00022000       ?_Copy@?$_Tree@V?$basic_string@DU?$char_traits@D@std@@V?$allocator@D@2@@std@@U?$pair@$$CBV?$basic_string@DU?$char_traits@D@std@@V?$allocator@D@2@@std@@UROLE_COMPONENT_INFO@CGameDataSetX@@@2@U_Kfn@?$map@V?$basic_string@DU?$char_traits@D@std@@V?$allocator@D@2@@std@@UROLE_COMPONENT_INFO@CGameDataSetX@@U?$less@V?$basic_string@DU?$char_traits@D@std@@V?$allocator@D@2@@std@@@2@V?$allocator@UROLE_COMPONENT_INFO@CGameDataSetX@@@2@@2@U?$less@V?$basic_string@DU?$char_traits@D@std@@V?$allocator@D@2@@std@@@2@V?$allocator@UROLE_COMPONENT_INFO@CGameDataSetX@@@2@@std@@IAEPAU_Node@12@PAU312@0@Z 10023000 f i GameDBConfig.obj
 0001:00022090       ?_Insert@?$_Tree@V?$basic_string@DU?$char_traits@D@std@@V?$allocator@D@2@@std@@U?$pair@$$CBV?$basic_string@DU?$char_traits@D@std@@V?$allocator@D@2@@std@@UROLE_COMPONENT_INFO@CGameDataSetX@@@2@U_Kfn@?$map@V?$basic_string@DU?$char_traits@D@std@@V?$allocator@D@2@@std@@UROLE_COMPONENT_INFO@CGameDataSetX@@U?$less@V?$basic_string@DU?$char_traits@D@std@@V?$allocator@D@2@@std@@@2@V?$allocator@UROLE_COMPONENT_INFO@CGameDataSetX@@@2@@2@U?$less@V?$basic_string@DU?$char_traits@D@std@@V?$allocator@D@2@@std@@@2@V?$allocator@UROLE_COMPONENT_INFO@CGameDataSetX@@@2@@std@@IAE?AViterator@12@PAU_Node@12@0ABU?$pair@$$CBV?$basic_string@DU?$char_traits@D@std@@V?$allocator@D@2@@std@@UROLE_COMPONENT_INFO@CGameDataSetX@@@2@@Z 10023090 f i GameDBConfig.obj
 0001:00022300       ?_Max@?$_Tree@V?$basic_string@DU?$char_traits@D@std@@V?$allocator@D@2@@std@@U?$pair@$$CBV?$basic_string@DU?$char_traits@D@std@@V?$allocator@D@2@@std@@UROLE_COMPONENT_INFO@CGameDataSetX@@@2@U_Kfn@?$map@V?$basic_string@DU?$char_traits@D@std@@V?$allocator@D@2@@std@@UROLE_COMPONENT_INFO@CGameDataSetX@@U?$less@V?$basic_string@DU?$char_traits@D@std@@V?$allocator@D@2@@std@@@2@V?$allocator@UROLE_COMPONENT_INFO@CGameDataSetX@@@2@@2@U?$less@V?$basic_string@DU?$char_traits@D@std@@V?$allocator@D@2@@std@@@2@V?$allocator@UROLE_COMPONENT_INFO@CGameDataSetX@@@2@@std@@KAPAU_Node@12@PAU312@@Z 10023300 f i GameDBConfig.obj
 0001:00022320       ?_Buynode@?$_Tree@V?$basic_string@DU?$char_traits@D@std@@V?$allocator@D@2@@std@@U?$pair@$$CBV?$basic_string@DU?$char_traits@D@std@@V?$allocator@D@2@@std@@UROLE_COMPONENT_INFO@CGameDataSetX@@@2@U_Kfn@?$map@V?$basic_string@DU?$char_traits@D@std@@V?$allocator@D@2@@std@@UROLE_COMPONENT_INFO@CGameDataSetX@@U?$less@V?$basic_string@DU?$char_traits@D@std@@V?$allocator@D@2@@std@@@2@V?$allocator@UROLE_COMPONENT_INFO@CGameDataSetX@@@2@@2@U?$less@V?$basic_string@DU?$char_traits@D@std@@V?$allocator@D@2@@std@@@2@V?$allocator@UROLE_COMPONENT_INFO@CGameDataSetX@@@2@@std@@IAEPAU_Node@12@PAU312@W4_Redbl@12@@Z 10023320 f i GameDBConfig.obj
 0001:00022340       ?_Insert@?$_Tree@V?$basic_string@DU?$char_traits@D@std@@V?$allocator@D@2@@std@@U?$pair@$$CBV?$basic_string@DU?$char_traits@D@std@@V?$allocator@D@2@@std@@V?$map@IURolePartInfo@@U?$less@I@std@@V?$allocator@URolePartInfo@@@3@@2@@2@U_Kfn@?$map@V?$basic_string@DU?$char_traits@D@std@@V?$allocator@D@2@@std@@V?$map@IURolePartInfo@@U?$less@I@std@@V?$allocator@URolePartInfo@@@3@@2@U?$less@V?$basic_string@DU?$char_traits@D@std@@V?$allocator@D@2@@std@@@2@V?$allocator@V?$map@IURolePartInfo@@U?$less@I@std@@V?$allocator@URolePartInfo@@@3@@std@@@2@@2@U?$less@V?$basic_string@DU?$char_traits@D@std@@V?$allocator@D@2@@std@@@2@V?$allocator@V?$map@IURolePartInfo@@U?$less@I@std@@V?$allocator@URolePartInfo@@@3@@std@@@2@@std@@IAE?AViterator@12@PAU_Node@12@0ABU?$pair@$$CBV?$basic_string@DU?$char_traits@D@std@@V?$allocator@D@2@@std@@V?$map@IURolePartInfo@@U?$less@I@std@@V?$allocator@URolePartInfo@@@3@@2@@2@@Z 10023340 f i GameDBConfig.obj
 0001:000225b0       ?_Lbound@?$_Tree@V?$basic_string@DU?$char_traits@D@std@@V?$allocator@D@2@@std@@U?$pair@$$CBV?$basic_string@DU?$char_traits@D@std@@V?$allocator@D@2@@std@@V?$map@IURolePartInfo@@U?$less@I@std@@V?$allocator@URolePartInfo@@@3@@2@@2@U_Kfn@?$map@V?$basic_string@DU?$char_traits@D@std@@V?$allocator@D@2@@std@@V?$map@IURolePartInfo@@U?$less@I@std@@V?$allocator@URolePartInfo@@@3@@2@U?$less@V?$basic_string@DU?$char_traits@D@std@@V?$allocator@D@2@@std@@@2@V?$allocator@V?$map@IURolePartInfo@@U?$less@I@std@@V?$allocator@URolePartInfo@@@3@@std@@@2@@2@U?$less@V?$basic_string@DU?$char_traits@D@std@@V?$allocator@D@2@@std@@@2@V?$allocator@V?$map@IURolePartInfo@@U?$less@I@std@@V?$allocator@URolePartInfo@@@3@@std@@@2@@std@@IBEPAU_Node@12@ABV?$basic_string@DU?$char_traits@D@std@@V?$allocator@D@2@@2@@Z 100235b0 f i GameDBConfig.obj
 0001:00022600       ?_Copy@?$_Tree@IU?$pair@$$CBIURolePartInfo@@@std@@U_Kfn@?$map@IURolePartInfo@@U?$less@I@std@@V?$allocator@URolePartInfo@@@3@@2@U?$less@I@2@V?$allocator@URolePartInfo@@@2@@std@@IAEXABV12@@Z 10023600 f i GameDBConfig.obj
 0001:00022700       ?_Init@?$_Tree@IU?$pair@$$CBIURolePartInfo@@@std@@U_Kfn@?$map@IURolePartInfo@@U?$less@I@std@@V?$allocator@URolePartInfo@@@3@@2@U?$less@I@2@V?$allocator@URolePartInfo@@@2@@std@@IAEXXZ 10023700 f i GameDBConfig.obj
 0001:000227a0       ?_Insert@?$_Tree@IU?$pair@$$CBIURolePartInfo@@@std@@U_Kfn@?$map@IURolePartInfo@@U?$less@I@std@@V?$allocator@URolePartInfo@@@3@@2@U?$less@I@2@V?$allocator@URolePartInfo@@@2@@std@@IAE?AViterator@12@PAU_Node@12@0ABU?$pair@$$CBIURolePartInfo@@@2@@Z 100237a0 f i GameDBConfig.obj
 0001:00022a40       ?_Lbound@?$_Tree@IU?$pair@$$CBIURolePartInfo@@@std@@U_Kfn@?$map@IURolePartInfo@@U?$less@I@std@@V?$allocator@URolePartInfo@@@3@@2@U?$less@I@2@V?$allocator@URolePartInfo@@@2@@std@@IBEPAU_Node@12@ABI@Z 10023a40 f i GameDBConfig.obj
 0001:00022a70       ?_Insert@?$_Tree@V?$basic_string@DU?$char_traits@D@std@@V?$allocator@D@2@@std@@U?$pair@$$CBV?$basic_string@DU?$char_traits@D@std@@V?$allocator@D@2@@std@@V?$map@_JPBDU?$less@_J@std@@V?$allocator@PBD@2@@2@@2@U_Kfn@?$map@V?$basic_string@DU?$char_traits@D@std@@V?$allocator@D@2@@std@@V?$map@_JPBDU?$less@_J@std@@V?$allocator@PBD@2@@2@U?$less@V?$basic_string@DU?$char_traits@D@std@@V?$allocator@D@2@@std@@@2@V?$allocator@V?$map@_JPBDU?$less@_J@std@@V?$allocator@PBD@2@@std@@@2@@2@U?$less@V?$basic_string@DU?$char_traits@D@std@@V?$allocator@D@2@@std@@@2@V?$allocator@V?$map@_JPBDU?$less@_J@std@@V?$allocator@PBD@2@@std@@@2@@std@@IAE?AViterator@12@PAU_Node@12@0ABU?$pair@$$CBV?$basic_string@DU?$char_traits@D@std@@V?$allocator@D@2@@std@@V?$map@_JPBDU?$less@_J@std@@V?$allocator@PBD@2@@2@@2@@Z 10023a70 f i GameDBConfig.obj
 0001:00022ce0       ?_Copy@?$_Tree@_JU?$pair@$$CB_JPBD@std@@U_Kfn@?$map@_JPBDU?$less@_J@std@@V?$allocator@PBD@2@@2@U?$less@_J@2@V?$allocator@PBD@2@@std@@IAEXABV12@@Z 10023ce0 f i GameDBConfig.obj
 0001:00022dd0       ?_Insert@?$_Tree@_JU?$pair@$$CB_JPBD@std@@U_Kfn@?$map@_JPBDU?$less@_J@std@@V?$allocator@PBD@2@@2@U?$less@_J@2@V?$allocator@PBD@2@@std@@IAE?AViterator@12@PAU_Node@12@0ABU?$pair@$$CB_JPBD@2@@Z 10023dd0 f i GameDBConfig.obj
 0001:00023050       ?_Lrotate@?$_Tree@V?$basic_string@DU?$char_traits@D@std@@V?$allocator@D@2@@std@@V12@U_Kfn@?$set@V?$basic_string@DU?$char_traits@D@std@@V?$allocator@D@2@@std@@U?$less@V?$basic_string@DU?$char_traits@D@std@@V?$allocator@D@2@@std@@@2@V?$allocator@V?$basic_string@DU?$char_traits@D@std@@V?$allocator@D@2@@std@@@2@@2@U?$less@V?$basic_string@DU?$char_traits@D@std@@V?$allocator@D@2@@std@@@2@V?$allocator@V?$basic_string@DU?$char_traits@D@std@@V?$allocator@D@2@@std@@@2@@std@@IAEXPAU_Node@12@@Z 10024050 f i GameDBConfig.obj
 0001:000230b0       ?_Rrotate@?$_Tree@V?$basic_string@DU?$char_traits@D@std@@V?$allocator@D@2@@std@@V12@U_Kfn@?$set@V?$basic_string@DU?$char_traits@D@std@@V?$allocator@D@2@@std@@U?$less@V?$basic_string@DU?$char_traits@D@std@@V?$allocator@D@2@@std@@@2@V?$allocator@V?$basic_string@DU?$char_traits@D@std@@V?$allocator@D@2@@std@@@2@@2@U?$less@V?$basic_string@DU?$char_traits@D@std@@V?$allocator@D@2@@std@@@2@V?$allocator@V?$basic_string@DU?$char_traits@D@std@@V?$allocator@D@2@@std@@@2@@std@@IAEXPAU_Node@12@@Z 100240b0 f i GameDBConfig.obj
 0001:00023110       ?_Dec@const_iterator@?$_Tree@V?$basic_string@DU?$char_traits@D@std@@V?$allocator@D@2@@std@@V12@U_Kfn@?$set@V?$basic_string@DU?$char_traits@D@std@@V?$allocator@D@2@@std@@U?$less@V?$basic_string@DU?$char_traits@D@std@@V?$allocator@D@2@@std@@@2@V?$allocator@V?$basic_string@DU?$char_traits@D@std@@V?$allocator@D@2@@std@@@2@@2@U?$less@V?$basic_string@DU?$char_traits@D@std@@V?$allocator@D@2@@std@@@2@V?$allocator@V?$basic_string@DU?$char_traits@D@std@@V?$allocator@D@2@@std@@@2@@std@@QAEXXZ 10024110 f i GameDBConfig.obj
 0001:00023170       ?_Insert@?$_Tree@KU?$pair@$$CBKV?$map@KKU?$less@K@std@@V?$allocator@K@2@@std@@@std@@U_Kfn@?$map@KV?$map@KKU?$less@K@std@@V?$allocator@K@2@@std@@U?$less@K@2@V?$allocator@V?$map@KKU?$less@K@std@@V?$allocator@K@2@@std@@@2@@2@U?$less@K@2@V?$allocator@V?$map@KKU?$less@K@std@@V?$allocator@K@2@@std@@@2@@std@@IAE?AViterator@12@PAU_Node@12@0ABU?$pair@$$CBKV?$map@KKU?$less@K@std@@V?$allocator@K@2@@std@@@2@@Z 10024170 f i GameDBConfig.obj
 0001:000233e0       ?_Copy@?$_Tree@KU?$pair@$$CBKK@std@@U_Kfn@?$map@KKU?$less@K@std@@V?$allocator@K@2@@2@U?$less@K@2@V?$allocator@K@2@@std@@IAEPAU_Node@12@PAU312@0@Z 100243e0 f i GameDBConfig.obj
 0001:00023470       ?_Insert@?$_Tree@KU?$pair@$$CBKK@std@@U_Kfn@?$map@KKU?$less@K@std@@V?$allocator@K@2@@2@U?$less@K@2@V?$allocator@K@2@@std@@IAE?AViterator@12@PAU_Node@12@0ABU?$pair@$$CBKK@2@@Z 10024470 f i GameDBConfig.obj
 0001:000236e0       ?_Lbound@?$_Tree@KU?$pair@$$CBKK@std@@U_Kfn@?$map@KKU?$less@K@std@@V?$allocator@K@2@@2@U?$less@K@2@V?$allocator@K@2@@std@@IBEPAU_Node@12@ABK@Z 100246e0 f i GameDBConfig.obj
 0001:00023710       ?_Lrotate@?$_Tree@KU?$pair@$$CBKK@std@@U_Kfn@?$map@KKU?$less@K@std@@V?$allocator@K@2@@2@U?$less@K@2@V?$allocator@K@2@@std@@IAEXPAU_Node@12@@Z 10024710 f i GameDBConfig.obj
 0001:00023770       ?_Min@?$_Tree@KU?$pair@$$CBKK@std@@U_Kfn@?$map@KKU?$less@K@std@@V?$allocator@K@2@@2@U?$less@K@2@V?$allocator@K@2@@std@@KAPAU_Node@12@PAU312@@Z 10024770 f i GameDBConfig.obj
 0001:00023790       ?_Rrotate@?$_Tree@KU?$pair@$$CBKK@std@@U_Kfn@?$map@KKU?$less@K@std@@V?$allocator@K@2@@2@U?$less@K@2@V?$allocator@K@2@@std@@IAEXPAU_Node@12@@Z 10024790 f i GameDBConfig.obj
 0001:000237f0       ??0const_iterator@?$deque@PAVCDataThreadObj@@V?$allocator@PAVCDataThreadObj@@@std@@@std@@QAE@PAPAVCDataThreadObj@@PAPAPAV3@@Z 100247f0 f i GameDBConfig.obj
 0001:00023820       ?_Insert@?$_Tree@V?$basic_string@DU?$char_traits@D@std@@V?$allocator@D@2@@std@@U?$pair@$$CBV?$basic_string@DU?$char_traits@D@std@@V?$allocator@D@2@@std@@PAV?$map@_JKU?$less@_J@std@@V?$allocator@K@2@@2@@2@U_Kfn@?$map@V?$basic_string@DU?$char_traits@D@std@@V?$allocator@D@2@@std@@PAV?$map@_JKU?$less@_J@std@@V?$allocator@K@2@@2@U?$less@V?$basic_string@DU?$char_traits@D@std@@V?$allocator@D@2@@std@@@2@V?$allocator@PAV?$map@_JKU?$less@_J@std@@V?$allocator@K@2@@std@@@2@@2@U?$less@V?$basic_string@DU?$char_traits@D@std@@V?$allocator@D@2@@std@@@2@V?$allocator@PAV?$map@_JKU?$less@_J@std@@V?$allocator@K@2@@std@@@2@@std@@IAE?AViterator@12@PAU_Node@12@0ABU?$pair@$$CBV?$basic_string@DU?$char_traits@D@std@@V?$allocator@D@2@@std@@PAV?$map@_JKU?$less@_J@std@@V?$allocator@K@2@@2@@2@@Z 10024820 f i GameDBConfig.obj
 0001:00023a90       ?_Insert@?$_Tree@IU?$pair@$$CBIUDETAIL_INFO@CGameDataSetX@@@std@@U_Kfn@?$map@IUDETAIL_INFO@CGameDataSetX@@U?$less@I@std@@V?$allocator@UDETAIL_INFO@CGameDataSetX@@@4@@2@U?$less@I@2@V?$allocator@UDETAIL_INFO@CGameDataSetX@@@2@@std@@IAE?AViterator@12@PAU_Node@12@0ABU?$pair@$$CBIUDETAIL_INFO@CGameDataSetX@@@2@@Z 10024a90 f i GameDBConfig.obj
 0001:00023d00       ?_Insert@?$_Tree@HU?$pair@$$CBHUC3_RES_LOD_DESC@CGameDataSetX@@@std@@U_Kfn@?$map@HUC3_RES_LOD_DESC@CGameDataSetX@@U?$less@H@std@@V?$allocator@UC3_RES_LOD_DESC@CGameDataSetX@@@4@@2@U?$less@H@2@V?$allocator@UC3_RES_LOD_DESC@CGameDataSetX@@@2@@std@@IAE?AViterator@12@PAU_Node@12@0ABU?$pair@$$CBHUC3_RES_LOD_DESC@CGameDataSetX@@@2@@Z 10024d00 f i GameDBConfig.obj
 0001:00023f70       ?size@?$vector@PAXV?$allocator@PAX@std@@@std@@QBEIXZ 10024f70 f i GameDBConfig.obj
 0001:00023f90       ?_Ucopy@?$vector@PAXV?$allocator@PAX@std@@@std@@IAEPAPAXPBQAX0PAPAX@Z 10024f90 f i GameDBConfig.obj
 0001:00023fc0       ?_Ufill@?$vector@PAXV?$allocator@PAX@std@@@std@@IAEXPAPAXIABQAX@Z 10024fc0 f i GameDBConfig.obj
 0001:00023ff0       ?_Insert@?$_Tree@_JU?$pair@$$CB_JK@std@@U_Kfn@?$map@_JKU?$less@_J@std@@V?$allocator@K@2@@2@U?$less@_J@2@V?$allocator@K@2@@std@@IAE?AViterator@12@PAU_Node@12@0ABU?$pair@$$CB_JK@2@@Z 10024ff0 f i GameDBConfig.obj
 0001:00024270       ?_Lbound@?$_Tree@_JU?$pair@$$CB_JK@std@@U_Kfn@?$map@_JKU?$less@_J@std@@V?$allocator@K@2@@2@U?$less@_J@2@V?$allocator@K@2@@std@@IBEPAU_Node@12@AB_J@Z 10025270 f i GameDBConfig.obj
 0001:000242b0       ?_Lrotate@?$_Tree@_JU?$pair@$$CB_JK@std@@U_Kfn@?$map@_JKU?$less@_J@std@@V?$allocator@K@2@@2@U?$less@_J@2@V?$allocator@K@2@@std@@IAEXPAU_Node@12@@Z 100252b0 f i GameDBConfig.obj
 0001:00024310       ?_Min@?$_Tree@_JU?$pair@$$CB_JK@std@@U_Kfn@?$map@_JKU?$less@_J@std@@V?$allocator@K@2@@2@U?$less@_J@2@V?$allocator@K@2@@std@@KAPAU_Node@12@PAU312@@Z 10025310 f i GameDBConfig.obj
 0001:00024330       ?_Rrotate@?$_Tree@_JU?$pair@$$CB_JK@std@@U_Kfn@?$map@_JKU?$less@_J@std@@V?$allocator@K@2@@2@U?$less@_J@2@V?$allocator@K@2@@std@@IAEXPAU_Node@12@@Z 10025330 f i GameDBConfig.obj
 0001:00024390       ?_Dec@const_iterator@?$_Tree@IU?$pair@$$CBIPAUC3DSimpleObjInfo@@@std@@U_Kfn@?$map@IPAUC3DSimpleObjInfo@@U?$less@I@std@@V?$allocator@PAUC3DSimpleObjInfo@@@3@@2@U?$less@I@2@V?$allocator@PAUC3DSimpleObjInfo@@@2@@std@@QAEXXZ 10025390 f i GameDBConfig.obj
 0001:000243f0       ?_Dec@const_iterator@?$_Tree@IU?$pair@$$CBIUC3DSimpleObjInfoEx@@@std@@U_Kfn@?$map@IUC3DSimpleObjInfoEx@@U?$less@I@std@@V?$allocator@UC3DSimpleObjInfoEx@@@3@@2@U?$less@I@2@V?$allocator@UC3DSimpleObjInfoEx@@@2@@std@@QAEXXZ 100253f0 f i GameDBConfig.obj
 0001:00024450       ?_Dec@const_iterator@?$_Tree@V?$basic_string@DU?$char_traits@D@std@@V?$allocator@D@2@@std@@U?$pair@$$CBV?$basic_string@DU?$char_traits@D@std@@V?$allocator@D@2@@std@@PAUCMy3DEffectInfo@@@2@U_Kfn@?$map@V?$basic_string@DU?$char_traits@D@std@@V?$allocator@D@2@@std@@PAUCMy3DEffectInfo@@U?$less@V?$basic_string@DU?$char_traits@D@std@@V?$allocator@D@2@@std@@@2@V?$allocator@PAUCMy3DEffectInfo@@@2@@2@U?$less@V?$basic_string@DU?$char_traits@D@std@@V?$allocator@D@2@@std@@@2@V?$allocator@PAUCMy3DEffectInfo@@@2@@std@@QAEXXZ 10025450 f i GameDBConfig.obj
 0001:000244b0       ?_Lrotate@?$_Tree@V?$basic_string@DU?$char_traits@D@std@@V?$allocator@D@2@@std@@U?$pair@$$CBV?$basic_string@DU?$char_traits@D@std@@V?$allocator@D@2@@std@@H@2@U_Kfn@?$map@V?$basic_string@DU?$char_traits@D@std@@V?$allocator@D@2@@std@@HU?$less@V?$basic_string@DU?$char_traits@D@std@@V?$allocator@D@2@@std@@@2@V?$allocator@H@2@@2@U?$less@V?$basic_string@DU?$char_traits@D@std@@V?$allocator@D@2@@std@@@2@V?$allocator@H@2@@std@@IAEXPAU_Node@12@@Z 100254b0 f i GameDBConfig.obj
 0001:00024510       ?_Rrotate@?$_Tree@V?$basic_string@DU?$char_traits@D@std@@V?$allocator@D@2@@std@@U?$pair@$$CBV?$basic_string@DU?$char_traits@D@std@@V?$allocator@D@2@@std@@H@2@U_Kfn@?$map@V?$basic_string@DU?$char_traits@D@std@@V?$allocator@D@2@@std@@HU?$less@V?$basic_string@DU?$char_traits@D@std@@V?$allocator@D@2@@std@@@2@V?$allocator@H@2@@2@U?$less@V?$basic_string@DU?$char_traits@D@std@@V?$allocator@D@2@@std@@@2@V?$allocator@H@2@@std@@IAEXPAU_Node@12@@Z 10025510 f i GameDBConfig.obj
 0001:00024570       ?_Dec@const_iterator@?$_Tree@V?$basic_string@DU?$char_traits@D@std@@V?$allocator@D@2@@std@@U?$pair@$$CBV?$basic_string@DU?$char_traits@D@std@@V?$allocator@D@2@@std@@H@2@U_Kfn@?$map@V?$basic_string@DU?$char_traits@D@std@@V?$allocator@D@2@@std@@HU?$less@V?$basic_string@DU?$char_traits@D@std@@V?$allocator@D@2@@std@@@2@V?$allocator@H@2@@2@U?$less@V?$basic_string@DU?$char_traits@D@std@@V?$allocator@D@2@@std@@@2@V?$allocator@H@2@@std@@QAEXXZ 10025570 f i GameDBConfig.obj
 0001:000245d0       ?_Dec@const_iterator@?$_Tree@V?$basic_string@DU?$char_traits@D@std@@V?$allocator@D@2@@std@@U?$pair@$$CBV?$basic_string@DU?$char_traits@D@std@@V?$allocator@D@2@@std@@UROLE_COMPONENT_INFO@CGameDataSetX@@@2@U_Kfn@?$map@V?$basic_string@DU?$char_traits@D@std@@V?$allocator@D@2@@std@@UROLE_COMPONENT_INFO@CGameDataSetX@@U?$less@V?$basic_string@DU?$char_traits@D@std@@V?$allocator@D@2@@std@@@2@V?$allocator@UROLE_COMPONENT_INFO@CGameDataSetX@@@2@@2@U?$less@V?$basic_string@DU?$char_traits@D@std@@V?$allocator@D@2@@std@@@2@V?$allocator@UROLE_COMPONENT_INFO@CGameDataSetX@@@2@@std@@QAEXXZ 100255d0 f i GameDBConfig.obj
 0001:00024630       ?_Lrotate@?$_Tree@V?$basic_string@DU?$char_traits@D@std@@V?$allocator@D@2@@std@@U?$pair@$$CBV?$basic_string@DU?$char_traits@D@std@@V?$allocator@D@2@@std@@V?$map@IURolePartInfo@@U?$less@I@std@@V?$allocator@URolePartInfo@@@3@@2@@2@U_Kfn@?$map@V?$basic_string@DU?$char_traits@D@std@@V?$allocator@D@2@@std@@V?$map@IURolePartInfo@@U?$less@I@std@@V?$allocator@URolePartInfo@@@3@@2@U?$less@V?$basic_string@DU?$char_traits@D@std@@V?$allocator@D@2@@std@@@2@V?$allocator@V?$map@IURolePartInfo@@U?$less@I@std@@V?$allocator@URolePartInfo@@@3@@std@@@2@@2@U?$less@V?$basic_string@DU?$char_traits@D@std@@V?$allocator@D@2@@std@@@2@V?$allocator@V?$map@IURolePartInfo@@U?$less@I@std@@V?$allocator@URolePartInfo@@@3@@std@@@2@@std@@IAEXPAU_Node@12@@Z 10025630 f i GameDBConfig.obj
 0001:00024690       ?_Rrotate@?$_Tree@V?$basic_string@DU?$char_traits@D@std@@V?$allocator@D@2@@std@@U?$pair@$$CBV?$basic_string@DU?$char_traits@D@std@@V?$allocator@D@2@@std@@V?$map@IURolePartInfo@@U?$less@I@std@@V?$allocator@URolePartInfo@@@3@@2@@2@U_Kfn@?$map@V?$basic_string@DU?$char_traits@D@std@@V?$allocator@D@2@@std@@V?$map@IURolePartInfo@@U?$less@I@std@@V?$allocator@URolePartInfo@@@3@@2@U?$less@V?$basic_string@DU?$char_traits@D@std@@V?$allocator@D@2@@std@@@2@V?$allocator@V?$map@IURolePartInfo@@U?$less@I@std@@V?$allocator@URolePartInfo@@@3@@std@@@2@@2@U?$less@V?$basic_string@DU?$char_traits@D@std@@V?$allocator@D@2@@std@@@2@V?$allocator@V?$map@IURolePartInfo@@U?$less@I@std@@V?$allocator@URolePartInfo@@@3@@std@@@2@@std@@IAEXPAU_Node@12@@Z 10025690 f i GameDBConfig.obj
 0001:000246f0       ?_Buynode@?$_Tree@V?$basic_string@DU?$char_traits@D@std@@V?$allocator@D@2@@std@@U?$pair@$$CBV?$basic_string@DU?$char_traits@D@std@@V?$allocator@D@2@@std@@V?$map@IURolePartInfo@@U?$less@I@std@@V?$allocator@URolePartInfo@@@3@@2@@2@U_Kfn@?$map@V?$basic_string@DU?$char_traits@D@std@@V?$allocator@D@2@@std@@V?$map@IURolePartInfo@@U?$less@I@std@@V?$allocator@URolePartInfo@@@3@@2@U?$less@V?$basic_string@DU?$char_traits@D@std@@V?$allocator@D@2@@std@@@2@V?$allocator@V?$map@IURolePartInfo@@U?$less@I@std@@V?$allocator@URolePartInfo@@@3@@std@@@2@@2@U?$less@V?$basic_string@DU?$char_traits@D@std@@V?$allocator@D@2@@std@@@2@V?$allocator@V?$map@IURolePartInfo@@U?$less@I@std@@V?$allocator@URolePartInfo@@@3@@std@@@2@@std@@IAEPAU_Node@12@PAU312@W4_Redbl@12@@Z 100256f0 f i GameDBConfig.obj
 0001:00024710       ?_Copy@?$_Tree@IU?$pair@$$CBIURolePartInfo@@@std@@U_Kfn@?$map@IURolePartInfo@@U?$less@I@std@@V?$allocator@URolePartInfo@@@3@@2@U?$less@I@2@V?$allocator@URolePartInfo@@@2@@std@@IAEPAU_Node@12@PAU312@0@Z 10025710 f i GameDBConfig.obj
 0001:000247b0       ?_Lrotate@?$_Tree@IU?$pair@$$CBIURolePartInfo@@@std@@U_Kfn@?$map@IURolePartInfo@@U?$less@I@std@@V?$allocator@URolePartInfo@@@3@@2@U?$less@I@2@V?$allocator@URolePartInfo@@@2@@std@@IAEXPAU_Node@12@@Z 100257b0 f i GameDBConfig.obj
 0001:00024810       ?_Rrotate@?$_Tree@IU?$pair@$$CBIURolePartInfo@@@std@@U_Kfn@?$map@IURolePartInfo@@U?$less@I@std@@V?$allocator@URolePartInfo@@@3@@2@U?$less@I@2@V?$allocator@URolePartInfo@@@2@@std@@IAEXPAU_Node@12@@Z 10025810 f i GameDBConfig.obj
 0001:00024870       ?_Buynode@?$_Tree@IU?$pair@$$CBIURolePartInfo@@@std@@U_Kfn@?$map@IURolePartInfo@@U?$less@I@std@@V?$allocator@URolePartInfo@@@3@@2@U?$less@I@2@V?$allocator@URolePartInfo@@@2@@std@@IAEPAU_Node@12@PAU312@W4_Redbl@12@@Z 10025870 f i GameDBConfig.obj
 0001:000248a0       ?_Dec@const_iterator@?$_Tree@IU?$pair@$$CBIURolePartInfo@@@std@@U_Kfn@?$map@IURolePartInfo@@U?$less@I@std@@V?$allocator@URolePartInfo@@@3@@2@U?$less@I@2@V?$allocator@URolePartInfo@@@2@@std@@QAEXXZ 100258a0 f i GameDBConfig.obj
 0001:00024900       ?_Dec@const_iterator@?$_Tree@V?$basic_string@DU?$char_traits@D@std@@V?$allocator@D@2@@std@@U?$pair@$$CBV?$basic_string@DU?$char_traits@D@std@@V?$allocator@D@2@@std@@V?$map@IURolePartInfo@@U?$less@I@std@@V?$allocator@URolePartInfo@@@3@@2@@2@U_Kfn@?$map@V?$basic_string@DU?$char_traits@D@std@@V?$allocator@D@2@@std@@V?$map@IURolePartInfo@@U?$less@I@std@@V?$allocator@URolePartInfo@@@3@@2@U?$less@V?$basic_string@DU?$char_traits@D@std@@V?$allocator@D@2@@std@@@2@V?$allocator@V?$map@IURolePartInfo@@U?$less@I@std@@V?$allocator@URolePartInfo@@@3@@std@@@2@@2@U?$less@V?$basic_string@DU?$char_traits@D@std@@V?$allocator@D@2@@std@@@2@V?$allocator@V?$map@IURolePartInfo@@U?$less@I@std@@V?$allocator@URolePartInfo@@@3@@std@@@2@@std@@QAEXXZ 10025900 f i GameDBConfig.obj
 0001:00024960       ?_Copy@?$_Tree@_JU?$pair@$$CB_JPBD@std@@U_Kfn@?$map@_JPBDU?$less@_J@std@@V?$allocator@PBD@2@@2@U?$less@_J@2@V?$allocator@PBD@2@@std@@IAEPAU_Node@12@PAU312@0@Z 10025960 f i GameDBConfig.obj
 0001:00024a00       ?_Lrotate@?$_Tree@_JU?$pair@$$CB_JPBD@std@@U_Kfn@?$map@_JPBDU?$less@_J@std@@V?$allocator@PBD@2@@2@U?$less@_J@2@V?$allocator@PBD@2@@std@@IAEXPAU_Node@12@@Z 10025a00 f i GameDBConfig.obj
 0001:00024a60       ?_Rrotate@?$_Tree@_JU?$pair@$$CB_JPBD@std@@U_Kfn@?$map@_JPBDU?$less@_J@std@@V?$allocator@PBD@2@@2@U?$less@_J@2@V?$allocator@PBD@2@@std@@IAEXPAU_Node@12@@Z 10025a60 f i GameDBConfig.obj
 0001:00024ac0       ?_Buynode@?$_Tree@_JU?$pair@$$CB_JPAUC3DMotionInfo@@@std@@U_Kfn@?$map@_JPAUC3DMotionInfo@@U?$less@_J@std@@V?$allocator@PAUC3DMotionInfo@@@3@@2@U?$less@_J@2@V?$allocator@PAUC3DMotionInfo@@@2@@std@@IAEPAU_Node@12@PAU312@W4_Redbl@12@@Z 10025ac0 f i GameDBConfig.obj
 0001:00024ac0       ?_Buynode@?$_Tree@_JU?$pair@$$CB_JPBD@std@@U_Kfn@?$map@_JPBDU?$less@_J@std@@V?$allocator@PBD@2@@2@U?$less@_J@2@V?$allocator@PBD@2@@std@@IAEPAU_Node@12@PAU312@W4_Redbl@12@@Z 10025ac0 f i GameDBConfig.obj
 0001:00024ac0       ?_Buynode@?$_Tree@_JU?$pair@$$CB_JK@std@@U_Kfn@?$map@_JKU?$less@_J@std@@V?$allocator@K@2@@2@U?$less@_J@2@V?$allocator@K@2@@std@@IAEPAU_Node@12@PAU312@W4_Redbl@12@@Z 10025ac0 f i GameDBConfig.obj
 0001:00024ae0       ?_Dec@const_iterator@?$_Tree@_JU?$pair@$$CB_JPBD@std@@U_Kfn@?$map@_JPBDU?$less@_J@std@@V?$allocator@PBD@2@@2@U?$less@_J@2@V?$allocator@PBD@2@@std@@QAEXXZ 10025ae0 f i GameDBConfig.obj
 0001:00024b40       ?_Dec@const_iterator@?$_Tree@V?$basic_string@DU?$char_traits@D@std@@V?$allocator@D@2@@std@@U?$pair@$$CBV?$basic_string@DU?$char_traits@D@std@@V?$allocator@D@2@@std@@V?$map@_JPBDU?$less@_J@std@@V?$allocator@PBD@2@@2@@2@U_Kfn@?$map@V?$basic_string@DU?$char_traits@D@std@@V?$allocator@D@2@@std@@V?$map@_JPBDU?$less@_J@std@@V?$allocator@PBD@2@@2@U?$less@V?$basic_string@DU?$char_traits@D@std@@V?$allocator@D@2@@std@@@2@V?$allocator@V?$map@_JPBDU?$less@_J@std@@V?$allocator@PBD@2@@std@@@2@@2@U?$less@V?$basic_string@DU?$char_traits@D@std@@V?$allocator@D@2@@std@@@2@V?$allocator@V?$map@_JPBDU?$less@_J@std@@V?$allocator@PBD@2@@std@@@2@@std@@QAEXXZ 10025b40 f i GameDBConfig.obj
 0001:00024ba0       ?_Min@?$_Tree@V?$basic_string@DU?$char_traits@D@std@@V?$allocator@D@2@@std@@V12@U_Kfn@?$set@V?$basic_string@DU?$char_traits@D@std@@V?$allocator@D@2@@std@@U?$less@V?$basic_string@DU?$char_traits@D@std@@V?$allocator@D@2@@std@@@2@V?$allocator@V?$basic_string@DU?$char_traits@D@std@@V?$allocator@D@2@@std@@@2@@2@U?$less@V?$basic_string@DU?$char_traits@D@std@@V?$allocator@D@2@@std@@@2@V?$allocator@V?$basic_string@DU?$char_traits@D@std@@V?$allocator@D@2@@std@@@2@@std@@KAPAU_Node@12@PAU312@@Z 10025ba0 f i GameDBConfig.obj
 0001:00024bc0       ?_Dec@const_iterator@?$_Tree@KU?$pair@$$CBKK@std@@U_Kfn@?$map@KKU?$less@K@std@@V?$allocator@K@2@@2@U?$less@K@2@V?$allocator@K@2@@std@@QAEXXZ 10025bc0 f i GameDBConfig.obj
 0001:00024c20       ?_Dec@const_iterator@?$_Tree@KU?$pair@$$CBKV?$map@KKU?$less@K@std@@V?$allocator@K@2@@std@@@std@@U_Kfn@?$map@KV?$map@KKU?$less@K@std@@V?$allocator@K@2@@std@@U?$less@K@2@V?$allocator@V?$map@KKU?$less@K@std@@V?$allocator@K@2@@std@@@2@@2@U?$less@K@2@V?$allocator@V?$map@KKU?$less@K@std@@V?$allocator@K@2@@std@@@2@@std@@QAEXXZ 10025c20 f i GameDBConfig.obj
 0001:00024c80       ?_Lrotate@?$_Tree@V?$basic_string@DU?$char_traits@D@std@@V?$allocator@D@2@@std@@U?$pair@$$CBV?$basic_string@DU?$char_traits@D@std@@V?$allocator@D@2@@std@@PAV?$map@_JKU?$less@_J@std@@V?$allocator@K@2@@2@@2@U_Kfn@?$map@V?$basic_string@DU?$char_traits@D@std@@V?$allocator@D@2@@std@@PAV?$map@_JKU?$less@_J@std@@V?$allocator@K@2@@2@U?$less@V?$basic_string@DU?$char_traits@D@std@@V?$allocator@D@2@@std@@@2@V?$allocator@PAV?$map@_JKU?$less@_J@std@@V?$allocator@K@2@@std@@@2@@2@U?$less@V?$basic_string@DU?$char_traits@D@std@@V?$allocator@D@2@@std@@@2@V?$allocator@PAV?$map@_JKU?$less@_J@std@@V?$allocator@K@2@@std@@@2@@std@@IAEXPAU_Node@12@@Z 10025c80 f i GameDBConfig.obj
 0001:00024ce0       ?_Rrotate@?$_Tree@V?$basic_string@DU?$char_traits@D@std@@V?$allocator@D@2@@std@@U?$pair@$$CBV?$basic_string@DU?$char_traits@D@std@@V?$allocator@D@2@@std@@PAV?$map@_JKU?$less@_J@std@@V?$allocator@K@2@@2@@2@U_Kfn@?$map@V?$basic_string@DU?$char_traits@D@std@@V?$allocator@D@2@@std@@PAV?$map@_JKU?$less@_J@std@@V?$allocator@K@2@@2@U?$less@V?$basic_string@DU?$char_traits@D@std@@V?$allocator@D@2@@std@@@2@V?$allocator@PAV?$map@_JKU?$less@_J@std@@V?$allocator@K@2@@std@@@2@@2@U?$less@V?$basic_string@DU?$char_traits@D@std@@V?$allocator@D@2@@std@@@2@V?$allocator@PAV?$map@_JKU?$less@_J@std@@V?$allocator@K@2@@std@@@2@@std@@IAEXPAU_Node@12@@Z 10025ce0 f i GameDBConfig.obj
 0001:00024d40       ?_Buynode@?$_Tree@V?$basic_string@DU?$char_traits@D@std@@V?$allocator@D@2@@std@@U?$pair@$$CBV?$basic_string@DU?$char_traits@D@std@@V?$allocator@D@2@@std@@PAUCMy3DEffectInfo@@@2@U_Kfn@?$map@V?$basic_string@DU?$char_traits@D@std@@V?$allocator@D@2@@std@@PAUCMy3DEffectInfo@@U?$less@V?$basic_string@DU?$char_traits@D@std@@V?$allocator@D@2@@std@@@2@V?$allocator@PAUCMy3DEffectInfo@@@2@@2@U?$less@V?$basic_string@DU?$char_traits@D@std@@V?$allocator@D@2@@std@@@2@V?$allocator@PAUCMy3DEffectInfo@@@2@@std@@IAEPAU_Node@12@PAU312@W4_Redbl@12@@Z 10025d40 f i GameDBConfig.obj
 0001:00024d40       ?_Buynode@?$_Tree@V?$basic_string@DU?$char_traits@D@std@@V?$allocator@D@2@@std@@U?$pair@$$CBV?$basic_string@DU?$char_traits@D@std@@V?$allocator@D@2@@std@@PAV?$map@_JKU?$less@_J@std@@V?$allocator@K@2@@2@@2@U_Kfn@?$map@V?$basic_string@DU?$char_traits@D@std@@V?$allocator@D@2@@std@@PAV?$map@_JKU?$less@_J@std@@V?$allocator@K@2@@2@U?$less@V?$basic_string@DU?$char_traits@D@std@@V?$allocator@D@2@@std@@@2@V?$allocator@PAV?$map@_JKU?$less@_J@std@@V?$allocator@K@2@@std@@@2@@2@U?$less@V?$basic_string@DU?$char_traits@D@std@@V?$allocator@D@2@@std@@@2@V?$allocator@PAV?$map@_JKU?$less@_J@std@@V?$allocator@K@2@@std@@@2@@std@@IAEPAU_Node@12@PAU312@W4_Redbl@12@@Z 10025d40 f i GameDBConfig.obj
 0001:00024d40       ?_Buynode@?$_Tree@V?$basic_string@DU?$char_traits@D@std@@V?$allocator@D@2@@std@@U?$pair@$$CBV?$basic_string@DU?$char_traits@D@std@@V?$allocator@D@2@@std@@H@2@U_Kfn@?$map@V?$basic_string@DU?$char_traits@D@std@@V?$allocator@D@2@@std@@HU?$less@V?$basic_string@DU?$char_traits@D@std@@V?$allocator@D@2@@std@@@2@V?$allocator@H@2@@2@U?$less@V?$basic_string@DU?$char_traits@D@std@@V?$allocator@D@2@@std@@@2@V?$allocator@H@2@@std@@IAEPAU_Node@12@PAU312@W4_Redbl@12@@Z 10025d40 f i GameDBConfig.obj
 0001:00024d40       ?_Buynode@?$_Tree@IU?$pair@$$CBIV?$basic_string@DU?$char_traits@D@std@@V?$allocator@D@2@@std@@@std@@U_Kfn@?$map@IV?$basic_string@DU?$char_traits@D@std@@V?$allocator@D@2@@std@@U?$less@I@2@V?$allocator@V?$basic_string@DU?$char_traits@D@std@@V?$allocator@D@2@@std@@@2@@2@U?$less@I@2@V?$allocator@V?$basic_string@DU?$char_traits@D@std@@V?$allocator@D@2@@std@@@2@@std@@IAEPAU_Node@12@PAU312@W4_Redbl@12@@Z 10025d40 f i GameDBConfig.obj
 0001:00024d60       ?_Dec@const_iterator@?$_Tree@V?$basic_string@DU?$char_traits@D@std@@V?$allocator@D@2@@std@@U?$pair@$$CBV?$basic_string@DU?$char_traits@D@std@@V?$allocator@D@2@@std@@PAV?$map@_JKU?$less@_J@std@@V?$allocator@K@2@@2@@2@U_Kfn@?$map@V?$basic_string@DU?$char_traits@D@std@@V?$allocator@D@2@@std@@PAV?$map@_JKU?$less@_J@std@@V?$allocator@K@2@@2@U?$less@V?$basic_string@DU?$char_traits@D@std@@V?$allocator@D@2@@std@@@2@V?$allocator@PAV?$map@_JKU?$less@_J@std@@V?$allocator@K@2@@std@@@2@@2@U?$less@V?$basic_string@DU?$char_traits@D@std@@V?$allocator@D@2@@std@@@2@V?$allocator@PAV?$map@_JKU?$less@_J@std@@V?$allocator@K@2@@std@@@2@@std@@QAEXXZ 10025d60 f i GameDBConfig.obj
 0001:00024dc0       ?_Lrotate@?$_Tree@IU?$pair@$$CBIUDETAIL_INFO@CGameDataSetX@@@std@@U_Kfn@?$map@IUDETAIL_INFO@CGameDataSetX@@U?$less@I@std@@V?$allocator@UDETAIL_INFO@CGameDataSetX@@@4@@2@U?$less@I@2@V?$allocator@UDETAIL_INFO@CGameDataSetX@@@2@@std@@IAEXPAU_Node@12@@Z 10025dc0 f i GameDBConfig.obj
 0001:00024e20       ?_Rrotate@?$_Tree@IU?$pair@$$CBIUDETAIL_INFO@CGameDataSetX@@@std@@U_Kfn@?$map@IUDETAIL_INFO@CGameDataSetX@@U?$less@I@std@@V?$allocator@UDETAIL_INFO@CGameDataSetX@@@4@@2@U?$less@I@2@V?$allocator@UDETAIL_INFO@CGameDataSetX@@@2@@std@@IAEXPAU_Node@12@@Z 10025e20 f i GameDBConfig.obj
 0001:00024e80       ?_Buynode@?$_Tree@IU?$pair@$$CBIUDETAIL_INFO@CGameDataSetX@@@std@@U_Kfn@?$map@IUDETAIL_INFO@CGameDataSetX@@U?$less@I@std@@V?$allocator@UDETAIL_INFO@CGameDataSetX@@@4@@2@U?$less@I@2@V?$allocator@UDETAIL_INFO@CGameDataSetX@@@2@@std@@IAEPAU_Node@12@PAU312@W4_Redbl@12@@Z 10025e80 f i GameDBConfig.obj
 0001:00024e80       ?_Buynode@?$_Tree@V?$basic_string@DU?$char_traits@D@std@@V?$allocator@D@2@@std@@V12@U_Kfn@?$set@V?$basic_string@DU?$char_traits@D@std@@V?$allocator@D@2@@std@@U?$less@V?$basic_string@DU?$char_traits@D@std@@V?$allocator@D@2@@std@@@2@V?$allocator@V?$basic_string@DU?$char_traits@D@std@@V?$allocator@D@2@@std@@@2@@2@U?$less@V?$basic_string@DU?$char_traits@D@std@@V?$allocator@D@2@@std@@@2@V?$allocator@V?$basic_string@DU?$char_traits@D@std@@V?$allocator@D@2@@std@@@2@@std@@IAEPAU_Node@12@PAU312@W4_Redbl@12@@Z 10025e80 f i GameDBConfig.obj
 0001:00024ea0       ?_Dec@const_iterator@?$_Tree@IU?$pair@$$CBIUDETAIL_INFO@CGameDataSetX@@@std@@U_Kfn@?$map@IUDETAIL_INFO@CGameDataSetX@@U?$less@I@std@@V?$allocator@UDETAIL_INFO@CGameDataSetX@@@4@@2@U?$less@I@2@V?$allocator@UDETAIL_INFO@CGameDataSetX@@@2@@std@@QAEXXZ 10025ea0 f i GameDBConfig.obj
 0001:00024f00       ?_Lrotate@?$_Tree@HU?$pair@$$CBHUC3_RES_LOD_DESC@CGameDataSetX@@@std@@U_Kfn@?$map@HUC3_RES_LOD_DESC@CGameDataSetX@@U?$less@H@std@@V?$allocator@UC3_RES_LOD_DESC@CGameDataSetX@@@4@@2@U?$less@H@2@V?$allocator@UC3_RES_LOD_DESC@CGameDataSetX@@@2@@std@@IAEXPAU_Node@12@@Z 10025f00 f i GameDBConfig.obj
 0001:00024f60       ?_Rrotate@?$_Tree@HU?$pair@$$CBHUC3_RES_LOD_DESC@CGameDataSetX@@@std@@U_Kfn@?$map@HUC3_RES_LOD_DESC@CGameDataSetX@@U?$less@H@std@@V?$allocator@UC3_RES_LOD_DESC@CGameDataSetX@@@4@@2@U?$less@H@2@V?$allocator@UC3_RES_LOD_DESC@CGameDataSetX@@@2@@std@@IAEXPAU_Node@12@@Z 10025f60 f i GameDBConfig.obj
 0001:00024fc0       ?_Buynode@?$_Tree@HU?$pair@$$CBHUC3_RES_LOD_DESC@CGameDataSetX@@@std@@U_Kfn@?$map@HUC3_RES_LOD_DESC@CGameDataSetX@@U?$less@H@std@@V?$allocator@UC3_RES_LOD_DESC@CGameDataSetX@@@4@@2@U?$less@H@2@V?$allocator@UC3_RES_LOD_DESC@CGameDataSetX@@@2@@std@@IAEPAU_Node@12@PAU312@W4_Redbl@12@@Z 10025fc0 f i GameDBConfig.obj
 0001:00024fe0       ?_Dec@const_iterator@?$_Tree@HU?$pair@$$CBHUC3_RES_LOD_DESC@CGameDataSetX@@@std@@U_Kfn@?$map@HUC3_RES_LOD_DESC@CGameDataSetX@@U?$less@H@std@@V?$allocator@UC3_RES_LOD_DESC@CGameDataSetX@@@4@@2@U?$less@H@2@V?$allocator@UC3_RES_LOD_DESC@CGameDataSetX@@@2@@std@@QAEXXZ 10025fe0 f i GameDBConfig.obj
 0001:00025040       ?_Dec@const_iterator@?$_Tree@_JU?$pair@$$CB_JK@std@@U_Kfn@?$map@_JKU?$less@_J@std@@V?$allocator@K@2@@2@U?$less@_J@2@V?$allocator@K@2@@std@@QAEXXZ 10026040 f i GameDBConfig.obj
 0001:000250a0       ?_Inc@const_iterator@?$_Tree@_JU?$pair@$$CB_JK@std@@U_Kfn@?$map@_JKU?$less@_J@std@@V?$allocator@K@2@@2@U?$less@_J@2@V?$allocator@K@2@@std@@QAEXXZ 100260a0 f i GameDBConfig.obj
 0001:000250f0       ?_Construct@std@@YAXPAV?$basic_string@DU?$char_traits@D@std@@V?$allocator@D@2@@1@ABV21@@Z 100260f0 f i GameDBConfig.obj
 0001:00025260       ?_Construct@std@@YAXPAU?$pair@$$CBIUC3DSimpleObjInfoEx@@@1@ABU21@@Z 10026260 f i GameDBConfig.obj
 0001:00025280       ?_Construct@std@@YAXPAU?$pair@$$CBV?$basic_string@DU?$char_traits@D@std@@V?$allocator@D@2@@std@@PAUCMy3DEffectInfo@@@1@ABU21@@Z 10026280 f i GameDBConfig.obj
 0001:000253e0       ?_Construct@std@@YAXPAU?$pair@$$CBV?$basic_string@DU?$char_traits@D@std@@V?$allocator@D@2@@std@@H@1@ABU21@@Z 100263e0 f i GameDBConfig.obj
 0001:00025540       ?_Construct@std@@YAXPAU?$pair@$$CBV?$basic_string@DU?$char_traits@D@std@@V?$allocator@D@2@@std@@UROLE_COMPONENT_INFO@CGameDataSetX@@@1@ABU21@@Z 10026540 f i GameDBConfig.obj
 0001:00025600       ?_Construct@std@@YAXPAU?$pair@$$CBV?$basic_string@DU?$char_traits@D@std@@V?$allocator@D@2@@std@@V?$map@IURolePartInfo@@U?$less@I@std@@V?$allocator@URolePartInfo@@@3@@2@@1@ABU21@@Z 10026600 f i GameDBConfig.obj
 0001:00025790       ?_Construct@std@@YAXPAU?$pair@$$CBIURolePartInfo@@@1@ABU21@@Z 10026790 f i GameDBConfig.obj
 0001:000257b0       ?_Construct@std@@YAXPAU?$pair@$$CBV?$basic_string@DU?$char_traits@D@std@@V?$allocator@D@2@@std@@V?$map@_JPBDU?$less@_J@std@@V?$allocator@PBD@2@@2@@1@ABU21@@Z 100267b0 f i GameDBConfig.obj
 0001:00025940       ?_Construct@std@@YAXPAU?$pair@$$CB_JPBD@1@ABU21@@Z 10026940 f i GameDBConfig.obj
 0001:00025940       ?_Construct@std@@YAXPAU?$pair@$$CB_JK@1@ABU21@@Z 10026940 f i GameDBConfig.obj
 0001:00025940       ?_Construct@std@@YAXPAU?$pair@$$CBIUDETAIL_INFO@CGameDataSetX@@@1@ABU21@@Z 10026940 f i GameDBConfig.obj
 0001:00025940       ?_Construct@std@@YAXPAU?$pair@$$CB_JPAUC3DMotionInfo@@@1@ABU21@@Z 10026940 f i GameDBConfig.obj
 0001:00025970       ?_Construct@std@@YAXPAU?$pair@$$CBKV?$map@KKU?$less@K@std@@V?$allocator@K@2@@std@@@1@ABU21@@Z 10026970 f i GameDBConfig.obj
 0001:00025b30       ?_Construct@std@@YAXPAU?$pair@$$CBV?$basic_string@DU?$char_traits@D@std@@V?$allocator@D@2@@std@@PAV?$map@_JKU?$less@_J@std@@V?$allocator@K@2@@2@@1@ABU21@@Z 10026b30 f i GameDBConfig.obj
 0001:00025c90       ?_Construct@std@@YAXPAU?$pair@$$CBHUC3_RES_LOD_DESC@CGameDataSetX@@@1@ABU21@@Z 10026c90 f i GameDBConfig.obj
 0001:00025e00       ??0CGameDBPack@@AAE@XZ     10026e00 f   GameDBPack.obj
 0001:00025ee0       ??1?$map@KUPACK_FILE_ENTRY@@U?$less@K@std@@V?$allocator@UPACK_FILE_ENTRY@@@3@@std@@QAE@XZ 10026ee0 f i GameDBPack.obj
 0001:00025fd0       ??1CGameDBPack@@QAE@XZ     10026fd0 f   GameDBPack.obj
 0001:000260c0       ?Instance@CGameDBPack@@SAAAV1@XZ 100270c0 f   GameDBPack.obj
 0001:00026110       ?ExtractCnfgMeshMotionDBs@CGameDBPack@@AAEXPAEAAV?$vector@V?$basic_string@DU?$char_traits@D@std@@V?$allocator@D@2@@std@@V?$allocator@V?$basic_string@DU?$char_traits@D@std@@V?$allocator@D@2@@std@@@2@@std@@@Z 10027110 f   GameDBPack.obj
 0001:00026400       ?IsFileExist@CGameDBPack@@AAE_NPBD@Z 10027400 f   GameDBPack.obj
 0001:00026420       ?UpdateAndOpen@CGameDBPack@@QAE_NPBD@Z 10027420 f   GameDBPack.obj
 0001:000270e0       ?Open@CGameDBPack@@AAE_NPBD@Z 100280e0 f   GameDBPack.obj
 0001:00027140       ?GetDBFileLenth@CGameDBPack@@QAEKPBD@Z 10028140 f   GameDBPack.obj
 0001:00027230       ?LoadDBFile@CGameDBPack@@QAE_NPBDPAXK@Z 10028230 f   GameDBPack.obj
 0001:00027330       ?Close@CGameDBPack@@QAEXXZ 10028330 f   GameDBPack.obj
 0001:000273e0       ?PrepareStormBuffer@@YA_NXZ 100283e0 f   GameDBPack.obj
 0001:00027460       ?EncryptData@@YAXPAKK@Z    10028460 f   GameDBPack.obj
 0001:000274d0       ?DecryptData@@YAXPAKK@Z    100284d0 f   GameDBPack.obj
 0001:00027540       ?DecryptName@@YAKPBDH@Z    10028540 f   GameDBPack.obj
 0001:000275a0       ?erase@?$_Tree@KU?$pair@$$CBKUPACK_FILE_ENTRY@@@std@@U_Kfn@?$map@KUPACK_FILE_ENTRY@@U?$less@K@std@@V?$allocator@UPACK_FILE_ENTRY@@@3@@2@U?$less@K@2@V?$allocator@UPACK_FILE_ENTRY@@@2@@std@@QAE?AViterator@12@V312@0@Z 100285a0 f i GameDBPack.obj
 0001:00027670       ?_Inc@const_iterator@?$_Tree@KU?$pair@$$CBKUPACK_FILE_ENTRY@@@std@@U_Kfn@?$map@KUPACK_FILE_ENTRY@@U?$less@K@std@@V?$allocator@UPACK_FILE_ENTRY@@@3@@2@U?$less@K@2@V?$allocator@UPACK_FILE_ENTRY@@@2@@std@@QAEXXZ 10028670 f i GameDBPack.obj
 0001:000276c0       ?insert@?$_Tree@KU?$pair@$$CBKUPACK_FILE_ENTRY@@@std@@U_Kfn@?$map@KUPACK_FILE_ENTRY@@U?$less@K@std@@V?$allocator@UPACK_FILE_ENTRY@@@3@@2@U?$less@K@2@V?$allocator@UPACK_FILE_ENTRY@@@2@@std@@QAE?AU?$pair@Viterator@?$_Tree@KU?$pair@$$CBKUPACK_FILE_ENTRY@@@std@@U_Kfn@?$map@KUPACK_FILE_ENTRY@@U?$less@K@std@@V?$allocator@UPACK_FILE_ENTRY@@@3@@2@U?$less@K@2@V?$allocator@UPACK_FILE_ENTRY@@@2@@std@@_N@2@ABU?$pair@$$CBKUPACK_FILE_ENTRY@@@2@@Z 100286c0 f i GameDBPack.obj
 0001:00027900       ?erase@?$_Tree@KU?$pair@$$CBKUPACK_FILE_ENTRY@@@std@@U_Kfn@?$map@KUPACK_FILE_ENTRY@@U?$less@K@std@@V?$allocator@UPACK_FILE_ENTRY@@@3@@2@U?$less@K@2@V?$allocator@UPACK_FILE_ENTRY@@@2@@std@@QAE?AViterator@12@V312@@Z 10028900 f i GameDBPack.obj
 0001:00027d00       ?lower_bound@?$_Tree@KU?$pair@$$CBKUPACK_FILE_ENTRY@@@std@@U_Kfn@?$map@KUPACK_FILE_ENTRY@@U?$less@K@std@@V?$allocator@UPACK_FILE_ENTRY@@@3@@2@U?$less@K@2@V?$allocator@UPACK_FILE_ENTRY@@@2@@std@@QAE?AViterator@12@ABK@Z 10028d00 f i GameDBPack.obj
 0001:00027d40       ?_Erase@?$_Tree@KU?$pair@$$CBKUPACK_FILE_ENTRY@@@std@@U_Kfn@?$map@KUPACK_FILE_ENTRY@@U?$less@K@std@@V?$allocator@UPACK_FILE_ENTRY@@@3@@2@U?$less@K@2@V?$allocator@UPACK_FILE_ENTRY@@@2@@std@@IAEXPAU_Node@12@@Z 10028d40 f i GameDBPack.obj
 0001:00027d80       ?_Min@?$_Tree@KU?$pair@$$CBKUPACK_FILE_ENTRY@@@std@@U_Kfn@?$map@KUPACK_FILE_ENTRY@@U?$less@K@std@@V?$allocator@UPACK_FILE_ENTRY@@@3@@2@U?$less@K@2@V?$allocator@UPACK_FILE_ENTRY@@@2@@std@@KAPAU_Node@12@PAU312@@Z 10028d80 f i GameDBPack.obj
 0001:00027da0       ??Eiterator@?$_Tree@V?$basic_string@DU?$char_traits@D@std@@V?$allocator@D@2@@std@@V12@U_Kfn@?$set@V?$basic_string@DU?$char_traits@D@std@@V?$allocator@D@2@@std@@U?$less@V?$basic_string@DU?$char_traits@D@std@@V?$allocator@D@2@@std@@@2@V?$allocator@V?$basic_string@DU?$char_traits@D@std@@V?$allocator@D@2@@std@@@2@@2@U?$less@V?$basic_string@DU?$char_traits@D@std@@V?$allocator@D@2@@std@@@2@V?$allocator@V?$basic_string@DU?$char_traits@D@std@@V?$allocator@D@2@@std@@@2@@std@@QAE?AV012@H@Z 10028da0 f i GameDBPack.obj
 0001:00027e00       ?_Insert@?$_Tree@KU?$pair@$$CBKUPACK_FILE_ENTRY@@@std@@U_Kfn@?$map@KUPACK_FILE_ENTRY@@U?$less@K@std@@V?$allocator@UPACK_FILE_ENTRY@@@3@@2@U?$less@K@2@V?$allocator@UPACK_FILE_ENTRY@@@2@@std@@IAE?AViterator@12@PAU_Node@12@0ABU?$pair@$$CBKUPACK_FILE_ENTRY@@@2@@Z 10028e00 f i GameDBPack.obj
 0001:00028070       ?_Lbound@?$_Tree@KU?$pair@$$CBKUPACK_FILE_ENTRY@@@std@@U_Kfn@?$map@KUPACK_FILE_ENTRY@@U?$less@K@std@@V?$allocator@UPACK_FILE_ENTRY@@@3@@2@U?$less@K@2@V?$allocator@UPACK_FILE_ENTRY@@@2@@std@@IBEPAU_Node@12@ABK@Z 10029070 f i GameDBPack.obj
 0001:000280a0       ?_Lrotate@?$_Tree@KU?$pair@$$CBKUPACK_FILE_ENTRY@@@std@@U_Kfn@?$map@KUPACK_FILE_ENTRY@@U?$less@K@std@@V?$allocator@UPACK_FILE_ENTRY@@@3@@2@U?$less@K@2@V?$allocator@UPACK_FILE_ENTRY@@@2@@std@@IAEXPAU_Node@12@@Z 100290a0 f i GameDBPack.obj
 0001:00028100       ?_Rrotate@?$_Tree@KU?$pair@$$CBKUPACK_FILE_ENTRY@@@std@@U_Kfn@?$map@KUPACK_FILE_ENTRY@@U?$less@K@std@@V?$allocator@UPACK_FILE_ENTRY@@@3@@2@U?$less@K@2@V?$allocator@UPACK_FILE_ENTRY@@@2@@std@@IAEXPAU_Node@12@@Z 10029100 f i GameDBPack.obj
 0001:00028160       ?_Buynode@?$_Tree@KU?$pair@$$CBKUPACK_FILE_ENTRY@@@std@@U_Kfn@?$map@KUPACK_FILE_ENTRY@@U?$less@K@std@@V?$allocator@UPACK_FILE_ENTRY@@@3@@2@U?$less@K@2@V?$allocator@UPACK_FILE_ENTRY@@@2@@std@@IAEPAU_Node@12@PAU312@W4_Redbl@12@@Z 10029160 f i GameDBPack.obj
 0001:00028180       ?_Dec@const_iterator@?$_Tree@KU?$pair@$$CBKUPACK_FILE_ENTRY@@@std@@U_Kfn@?$map@KUPACK_FILE_ENTRY@@U?$less@K@std@@V?$allocator@UPACK_FILE_ENTRY@@@3@@2@U?$less@K@2@V?$allocator@UPACK_FILE_ENTRY@@@2@@std@@QAEXXZ 10029180 f i GameDBPack.obj
 0001:000281e0       ?_Construct@std@@YAXPAU?$pair@$$CBKUPACK_FILE_ENTRY@@@1@ABU21@@Z 100291e0 f i GameDBPack.obj
 0001:00028200       _DllMain@12                10029200 f   GraphicData.obj
 0001:00028210       ??0CStrRes@@QAE@XZ         10029210 f   StrRes.obj
 0001:00028380       ??1?$map@IV?$basic_string@DU?$char_traits@D@std@@V?$allocator@D@2@@std@@U?$less@I@2@V?$allocator@V?$basic_string@DU?$char_traits@D@std@@V?$allocator@D@2@@std@@@2@@std@@QAE@XZ 10029380 f i StrRes.obj
 0001:00028480       ??1CStrRes@@QAE@XZ         10029480 f   StrRes.obj
 0001:00028680       ??1?$map@IPBDU?$less@I@std@@V?$allocator@PBD@2@@std@@QAE@XZ 10029680 f i StrRes.obj
 0001:00028770       ?InitBinDB@CStrRes@@QAE_NXZ 10029770 f   StrRes.obj
 0001:00028a80       ?InitTextIni@CStrRes@@QAE_NXZ 10029a80 f   StrRes.obj
 0001:00028c40       ?Destroy@CStrRes@@QAEXXZ   10029c40 f   StrRes.obj
 0001:00028da0       ?GetStr@CStrRes@@QBEPBDI@Z 10029da0 f   StrRes.obj
 0001:00028e70       ?SetStr@CStrRes@@QAEXIPBD@Z 10029e70 f   StrRes.obj
 0001:00028f30       ??A?$map@IV?$basic_string@DU?$char_traits@D@std@@V?$allocator@D@2@@std@@U?$less@I@2@V?$allocator@V?$basic_string@DU?$char_traits@D@std@@V?$allocator@D@2@@std@@@2@@std@@QAEAAV?$basic_string@DU?$char_traits@D@std@@V?$allocator@D@2@@1@ABI@Z 10029f30 f i StrRes.obj
 0001:00029050       ??1?$pair@$$CBIV?$basic_string@DU?$char_traits@D@std@@V?$allocator@D@2@@std@@@std@@QAE@XZ 1002a050 f i StrRes.obj
 0001:00029090       ?insert@?$_Tree@IU?$pair@$$CBIV?$basic_string@DU?$char_traits@D@std@@V?$allocator@D@2@@std@@@std@@U_Kfn@?$map@IV?$basic_string@DU?$char_traits@D@std@@V?$allocator@D@2@@std@@U?$less@I@2@V?$allocator@V?$basic_string@DU?$char_traits@D@std@@V?$allocator@D@2@@std@@@2@@2@U?$less@I@2@V?$allocator@V?$basic_string@DU?$char_traits@D@std@@V?$allocator@D@2@@std@@@2@@std@@QAE?AU?$pair@Viterator@?$_Tree@IU?$pair@$$CBIV?$basic_string@DU?$char_traits@D@std@@V?$allocator@D@2@@std@@@std@@U_Kfn@?$map@IV?$basic_string@DU?$char_traits@D@std@@V?$allocator@D@2@@std@@U?$less@I@2@V?$allocator@V?$basic_string@DU?$char_traits@D@std@@V?$allocator@D@2@@std@@@2@@2@U?$less@I@2@V?$allocator@V?$basic_string@DU?$char_traits@D@std@@V?$allocator@D@2@@std@@@2@@std@@_N@2@ABU?$pair@$$CBIV?$basic_string@DU?$char_traits@D@std@@V?$allocator@D@2@@std@@@2@@Z 1002a090 f i StrRes.obj
 0001:000292d0       ?erase@?$_Tree@IU?$pair@$$CBIV?$basic_string@DU?$char_traits@D@std@@V?$allocator@D@2@@std@@@std@@U_Kfn@?$map@IV?$basic_string@DU?$char_traits@D@std@@V?$allocator@D@2@@std@@U?$less@I@2@V?$allocator@V?$basic_string@DU?$char_traits@D@std@@V?$allocator@D@2@@std@@@2@@2@U?$less@I@2@V?$allocator@V?$basic_string@DU?$char_traits@D@std@@V?$allocator@D@2@@std@@@2@@std@@QAE?AViterator@12@V312@@Z 1002a2d0 f i StrRes.obj
 0001:00029700       ?_Erase@?$_Tree@IU?$pair@$$CBIV?$basic_string@DU?$char_traits@D@std@@V?$allocator@D@2@@std@@@std@@U_Kfn@?$map@IV?$basic_string@DU?$char_traits@D@std@@V?$allocator@D@2@@std@@U?$less@I@2@V?$allocator@V?$basic_string@DU?$char_traits@D@std@@V?$allocator@D@2@@std@@@2@@2@U?$less@I@2@V?$allocator@V?$basic_string@DU?$char_traits@D@std@@V?$allocator@D@2@@std@@@2@@std@@IAEXPAU_Node@12@@Z 1002a700 f i StrRes.obj
 0001:00029750       ??Eiterator@?$_Tree@IU?$pair@$$CBIV?$basic_string@DU?$char_traits@D@std@@V?$allocator@D@2@@std@@@std@@U_Kfn@?$map@IV?$basic_string@DU?$char_traits@D@std@@V?$allocator@D@2@@std@@U?$less@I@2@V?$allocator@V?$basic_string@DU?$char_traits@D@std@@V?$allocator@D@2@@std@@@2@@2@U?$less@I@2@V?$allocator@V?$basic_string@DU?$char_traits@D@std@@V?$allocator@D@2@@std@@@2@@std@@QAE?AV012@H@Z 1002a750 f i StrRes.obj
 0001:000297b0       ?erase@?$_Tree@IU?$pair@$$CBIPBD@std@@U_Kfn@?$map@IPBDU?$less@I@std@@V?$allocator@PBD@2@@2@U?$less@I@2@V?$allocator@PBD@2@@std@@QAE?AViterator@12@V312@@Z 1002a7b0 f i StrRes.obj
 0001:00029bb0       ?lower_bound@?$_Tree@IU?$pair@$$CBIPBD@std@@U_Kfn@?$map@IPBDU?$less@I@std@@V?$allocator@PBD@2@@2@U?$less@I@2@V?$allocator@PBD@2@@std@@QBE?AVconst_iterator@12@ABI@Z 1002abb0 f i StrRes.obj
 0001:00029bf0       ?_Erase@?$_Tree@IU?$pair@$$CBIPBD@std@@U_Kfn@?$map@IPBDU?$less@I@std@@V?$allocator@PBD@2@@2@U?$less@I@2@V?$allocator@PBD@2@@std@@IAEXPAU_Node@12@@Z 1002abf0 f i StrRes.obj
 0001:00029c30       ??Eiterator@?$_Tree@IU?$pair@$$CBIPBD@std@@U_Kfn@?$map@IPBDU?$less@I@std@@V?$allocator@PBD@2@@2@U?$less@I@2@V?$allocator@PBD@2@@std@@QAE?AV012@H@Z 1002ac30 f i StrRes.obj
 0001:00029c90       ?_Insert@?$_Tree@IU?$pair@$$CBIV?$basic_string@DU?$char_traits@D@std@@V?$allocator@D@2@@std@@@std@@U_Kfn@?$map@IV?$basic_string@DU?$char_traits@D@std@@V?$allocator@D@2@@std@@U?$less@I@2@V?$allocator@V?$basic_string@DU?$char_traits@D@std@@V?$allocator@D@2@@std@@@2@@2@U?$less@I@2@V?$allocator@V?$basic_string@DU?$char_traits@D@std@@V?$allocator@D@2@@std@@@2@@std@@IAE?AViterator@12@PAU_Node@12@0ABU?$pair@$$CBIV?$basic_string@DU?$char_traits@D@std@@V?$allocator@D@2@@std@@@2@@Z 1002ac90 f i StrRes.obj
 0001:00029f00       ?_Lbound@?$_Tree@IU?$pair@$$CBIV?$basic_string@DU?$char_traits@D@std@@V?$allocator@D@2@@std@@@std@@U_Kfn@?$map@IV?$basic_string@DU?$char_traits@D@std@@V?$allocator@D@2@@std@@U?$less@I@2@V?$allocator@V?$basic_string@DU?$char_traits@D@std@@V?$allocator@D@2@@std@@@2@@2@U?$less@I@2@V?$allocator@V?$basic_string@DU?$char_traits@D@std@@V?$allocator@D@2@@std@@@2@@std@@IBEPAU_Node@12@ABI@Z 1002af00 f i StrRes.obj
 0001:00029f30       ?_Lrotate@?$_Tree@IU?$pair@$$CBIV?$basic_string@DU?$char_traits@D@std@@V?$allocator@D@2@@std@@@std@@U_Kfn@?$map@IV?$basic_string@DU?$char_traits@D@std@@V?$allocator@D@2@@std@@U?$less@I@2@V?$allocator@V?$basic_string@DU?$char_traits@D@std@@V?$allocator@D@2@@std@@@2@@2@U?$less@I@2@V?$allocator@V?$basic_string@DU?$char_traits@D@std@@V?$allocator@D@2@@std@@@2@@std@@IAEXPAU_Node@12@@Z 1002af30 f i StrRes.obj
 0001:00029f90       ?_Rrotate@?$_Tree@IU?$pair@$$CBIV?$basic_string@DU?$char_traits@D@std@@V?$allocator@D@2@@std@@@std@@U_Kfn@?$map@IV?$basic_string@DU?$char_traits@D@std@@V?$allocator@D@2@@std@@U?$less@I@2@V?$allocator@V?$basic_string@DU?$char_traits@D@std@@V?$allocator@D@2@@std@@@2@@2@U?$less@I@2@V?$allocator@V?$basic_string@DU?$char_traits@D@std@@V?$allocator@D@2@@std@@@2@@std@@IAEXPAU_Node@12@@Z 1002af90 f i StrRes.obj
 0001:00029ff0       ?_Insert@?$_Tree@IU?$pair@$$CBIPBD@std@@U_Kfn@?$map@IPBDU?$less@I@std@@V?$allocator@PBD@2@@2@U?$less@I@2@V?$allocator@PBD@2@@std@@IAE?AViterator@12@PAU_Node@12@0ABU?$pair@$$CBIPBD@2@@Z 1002aff0 f i StrRes.obj
 0001:0002a260       ?_Dec@const_iterator@?$_Tree@IU?$pair@$$CBIV?$basic_string@DU?$char_traits@D@std@@V?$allocator@D@2@@std@@@std@@U_Kfn@?$map@IV?$basic_string@DU?$char_traits@D@std@@V?$allocator@D@2@@std@@U?$less@I@2@V?$allocator@V?$basic_string@DU?$char_traits@D@std@@V?$allocator@D@2@@std@@@2@@2@U?$less@I@2@V?$allocator@V?$basic_string@DU?$char_traits@D@std@@V?$allocator@D@2@@std@@@2@@std@@QAEXXZ 1002b260 f i StrRes.obj
 0001:0002a2c0       ?_Inc@const_iterator@?$_Tree@IU?$pair@$$CBIV?$basic_string@DU?$char_traits@D@std@@V?$allocator@D@2@@std@@@std@@U_Kfn@?$map@IV?$basic_string@DU?$char_traits@D@std@@V?$allocator@D@2@@std@@U?$less@I@2@V?$allocator@V?$basic_string@DU?$char_traits@D@std@@V?$allocator@D@2@@std@@@2@@2@U?$less@I@2@V?$allocator@V?$basic_string@DU?$char_traits@D@std@@V?$allocator@D@2@@std@@@2@@std@@QAEXXZ 1002b2c0 f i StrRes.obj
 0001:0002a310       ?_Dec@const_iterator@?$_Tree@IU?$pair@$$CBIPBD@std@@U_Kfn@?$map@IPBDU?$less@I@std@@V?$allocator@PBD@2@@2@U?$less@I@2@V?$allocator@PBD@2@@std@@QAEXXZ 1002b310 f i StrRes.obj
 0001:0002a370       ?_Inc@const_iterator@?$_Tree@IU?$pair@$$CBIPBD@std@@U_Kfn@?$map@IPBDU?$less@I@std@@V?$allocator@PBD@2@@2@U?$less@I@2@V?$allocator@PBD@2@@std@@QAEXXZ 1002b370 f i StrRes.obj
 0001:0002a3c0       ?_Construct@std@@YAXPAU?$pair@$$CBIV?$basic_string@DU?$char_traits@D@std@@V?$allocator@D@2@@std@@@1@ABU21@@Z 1002b3c0 f i StrRes.obj
 0001:0002a540       ??_G?$pair@$$CBIV?$basic_string@DU?$char_traits@D@std@@V?$allocator@D@2@@std@@@std@@QAEPAXI@Z 1002b540 f i StrRes.obj
 0001:0002a560       ??3@YAXPAX@Z               1002b560 f   msvcprt:delop_s.obj
 0001:0002a56c       ??2@YAPAXI@Z               1002b56c f   MSVCRT:MSVCRT.dll
 0001:0002a572       __purecall                 1002b572 f   MSVCRT:MSVCRT.dll
 0001:0002a578       ___CxxFrameHandler         1002b578 f   MSVCRT:MSVCRT.dll
 0001:0002a580       _free                      1002b580 f   MSVCRT:MSVCRT.dll
 0001:0002a586       __ftol                     1002b586 f   MSVCRT:MSVCRT.dll
 0001:0002a58c       __onexit                   1002b58c f   MSVCRT:atonexit.obj
 0001:0002a5b8       _atexit                    1002b5b8 f   MSVCRT:atonexit.obj
 0001:0002a5ca       __CRT_INIT@12              1002b5ca f   MSVCRT:crtdll.obj
 0001:0002a675       __DllMainCRTStartup@12     1002b675 f   MSVCRT:crtdll.obj
 0001:0002a712       ___dllonexit               1002b712 f   MSVCRT:MSVCRT.dll
 0001:0002a718       __initterm                 1002b718 f   MSVCRT:MSVCRT.dll
 0002:00000000       __imp_?DataThreadCreateNew@@YAPAVIDataThread@@KK@Z 1002d000     DataThread:DataThread.dll
 0002:00000004       \177DataThread_NULL_THUNK_DATA 1002d004     DataThread:DataThread.dll
 0002:00000008       __imp__TlsSetValue@8       1002d008     kernel32:KERNEL32.dll
 0002:0000000c       __imp__TlsAlloc@0          1002d00c     kernel32:KERNEL32.dll
 0002:00000010       __imp__Sleep@4             1002d010     kernel32:KERNEL32.dll
 0002:00000014       __imp__TlsFree@4           1002d014     kernel32:KERNEL32.dll
 0002:00000018       __imp__LeaveCriticalSection@4 1002d018     kernel32:KERNEL32.dll
 0002:0000001c       __imp__DeleteCriticalSection@4 1002d01c     kernel32:KERNEL32.dll
 0002:00000020       __imp__TlsGetValue@4       1002d020     kernel32:KERNEL32.dll
 0002:00000024       __imp__GetFileAttributesA@4 1002d024     kernel32:KERNEL32.dll
 0002:00000028       __imp__MoveFileA@8         1002d028     kernel32:KERNEL32.dll
 0002:0000002c       __imp__DeleteFileA@4       1002d02c     kernel32:KERNEL32.dll
 0002:00000030       __imp__EnterCriticalSection@4 1002d030     kernel32:KERNEL32.dll
 0002:00000034       __imp__InitializeCriticalSection@4 1002d034     kernel32:KERNEL32.dll
 0002:00000038       \177KERNEL32_NULL_THUNK_DATA 1002d038     kernel32:KERNEL32.dll
 0002:0000003c       __imp_?max_size@?$basic_string@DU?$char_traits@D@std@@V?$allocator@D@2@@std@@QBEIXZ 1002d03c     msvcprt:MSVCP60.dll
 0002:00000040       __imp_?_Xlen@std@@YAXXZ    1002d040     msvcprt:MSVCP60.dll
 0002:00000044       __imp_?_Copy@?$basic_string@DU?$char_traits@D@std@@V?$allocator@D@2@@std@@AAEXI@Z 1002d044     msvcprt:MSVCP60.dll
 0002:00000048       __imp_?assign@?$basic_string@DU?$char_traits@D@std@@V?$allocator@D@2@@std@@QAEAAV12@ABV12@II@Z 1002d048     msvcprt:MSVCP60.dll
 0002:0000004c       __imp_?_Xran@std@@YAXXZ    1002d04c     msvcprt:MSVCP60.dll
 0002:00000050       __imp_?_Split@?$basic_string@DU?$char_traits@D@std@@V?$allocator@D@2@@std@@AAEXXZ 1002d050     msvcprt:MSVCP60.dll
 0002:00000054       __imp_?npos@?$basic_string@DU?$char_traits@D@std@@V?$allocator@D@2@@std@@2IB 1002d054     msvcprt:MSVCP60.dll
 0002:00000058       __imp_?erase@?$basic_string@DU?$char_traits@D@std@@V?$allocator@D@2@@std@@QAEAAV12@II@Z 1002d058     msvcprt:MSVCP60.dll
 0002:0000005c       __imp_??Mstd@@YA_NABV?$basic_string@DU?$char_traits@D@std@@V?$allocator@D@2@@0@0@Z 1002d05c     msvcprt:MSVCP60.dll
 0002:00000060       __imp_??0?$basic_string@DU?$char_traits@D@std@@V?$allocator@D@2@@std@@QAE@ABV01@@Z 1002d060     msvcprt:MSVCP60.dll
 0002:00000064       __imp_??0?$basic_string@DU?$char_traits@D@std@@V?$allocator@D@2@@std@@QAE@ABV?$allocator@D@1@@Z 1002d064     msvcprt:MSVCP60.dll
 0002:00000068       __imp_?_C@?1??_Nullstr@?$basic_string@DU?$char_traits@D@std@@V?$allocator@D@2@@std@@CAPBDXZ@4DB 1002d068     msvcprt:MSVCP60.dll
 0002:0000006c       __imp_?_Grow@?$basic_string@DU?$char_traits@D@std@@V?$allocator@D@2@@std@@AAE_NI_N@Z 1002d06c     msvcprt:MSVCP60.dll
 0002:00000070       __imp_?_Eos@?$basic_string@DU?$char_traits@D@std@@V?$allocator@D@2@@std@@AAEXI@Z 1002d070     msvcprt:MSVCP60.dll
 0002:00000074       __imp_?assign@?$basic_string@DU?$char_traits@D@std@@V?$allocator@D@2@@std@@QAEAAV12@PBDI@Z 1002d074     msvcprt:MSVCP60.dll
 0002:00000078       __imp_??1?$basic_string@DU?$char_traits@D@std@@V?$allocator@D@2@@std@@QAE@XZ 1002d078     msvcprt:MSVCP60.dll
 0002:0000007c       __imp_?_Tidy@?$basic_string@DU?$char_traits@D@std@@V?$allocator@D@2@@std@@AAEX_N@Z 1002d07c     msvcprt:MSVCP60.dll
 0002:00000080       __imp_??0_Lockit@std@@QAE@XZ 1002d080     msvcprt:MSVCP60.dll
 0002:00000084       __imp_??1_Lockit@std@@QAE@XZ 1002d084     msvcprt:MSVCP60.dll
 0002:00000088       \177MSVCP60_NULL_THUNK_DATA 1002d088     msvcprt:MSVCP60.dll
 0002:0000008c       __imp__free                1002d08c     MSVCRT:MSVCRT.dll
 0002:00000090       __imp___adjust_fdiv        1002d090     MSVCRT:MSVCRT.dll
 0002:00000094       __imp___initterm           1002d094     MSVCRT:MSVCRT.dll
 0002:00000098       __imp___onexit             1002d098     MSVCRT:MSVCRT.dll
 0002:0000009c       __imp____dllonexit         1002d09c     MSVCRT:MSVCRT.dll
 0002:000000a0       __imp__strchr              1002d0a0     MSVCRT:MSVCRT.dll
 0002:000000a4       __imp__toupper             1002d0a4     MSVCRT:MSVCRT.dll
 0002:000000a8       __imp___stricmp            1002d0a8     MSVCRT:MSVCRT.dll
 0002:000000ac       __imp__fread               1002d0ac     MSVCRT:MSVCRT.dll
 0002:000000b0       __imp__fseek               1002d0b0     MSVCRT:MSVCRT.dll
 0002:000000b4       __imp__fwrite              1002d0b4     MSVCRT:MSVCRT.dll
 0002:000000b8       __imp__ftell               1002d0b8     MSVCRT:MSVCRT.dll
 0002:000000bc       __imp__fgets               1002d0bc     MSVCRT:MSVCRT.dll
 0002:000000c0       __imp__sscanf              1002d0c0     MSVCRT:MSVCRT.dll
 0002:000000c4       __imp__atoi                1002d0c4     MSVCRT:MSVCRT.dll
 0002:000000c8       __imp___ftol               1002d0c8     MSVCRT:MSVCRT.dll
 0002:000000cc       __imp__malloc              1002d0cc     MSVCRT:MSVCRT.dll
 0002:000000d0       __imp__sprintf             1002d0d0     MSVCRT:MSVCRT.dll
 0002:000000d4       __imp__fopen               1002d0d4     MSVCRT:MSVCRT.dll
 0002:000000d8       __imp_??2@YAPAXI@Z         1002d0d8     MSVCRT:MSVCRT.dll
 0002:000000dc       __imp___purecall           1002d0dc     MSVCRT:MSVCRT.dll
 0002:000000e0       __imp____CxxFrameHandler   1002d0e0     MSVCRT:MSVCRT.dll
 0002:000000e4       __imp__strlwr              1002d0e4     MSVCRT:MSVCRT.dll
 0002:000000e4       __imp___strlwr             1002d0e4     MSVCRT:MSVCRT.dll
 0002:000000e8       __imp__memmove             1002d0e8     MSVCRT:MSVCRT.dll
 0002:000000ec       __imp__fclose              1002d0ec     MSVCRT:MSVCRT.dll
 0002:000000f0       __imp__fscanf              1002d0f0     MSVCRT:MSVCRT.dll
 0002:000000f4       \177MSVCRT_NULL_THUNK_DATA 1002d0f4     MSVCRT:MSVCRT.dll
 0002:000000f8       __imp_?TqPackagesInit@@YA?AW4TQPRESULT@@PBD@Z 1002d0f8     TqPackage:TqPackage.dll
 0002:000000fc       __imp_?TqPackagesClose@@YAXPBD@Z 1002d0fc     TqPackage:TqPackage.dll
 0002:00000100       __imp_?TqPackagesOpen@@YA?AW4TQPRESULT@@PBD@Z 1002d100     TqPackage:TqPackage.dll
 0002:00000104       \177TqPackage_NULL_THUNK_DATA 1002d104     TqPackage:TqPackage.dll
 0002:00000108       __imp__timeGetTime@0       1002d108     winmm:WINMM.dll
 0002:0000010c       \177WINMM_NULL_THUNK_DATA  1002d10c     winmm:WINMM.dll
 0002:00000110       __imp_?DebugMsg@@YAXPBDZZ  1002d110     graphic:graphic.dll
 0002:00000114       __imp_?LogMsg@@YAXPBDZZ    1002d114     graphic:graphic.dll
 0002:00000118       __imp__ClearAniFileSet     1002d118     graphic:graphic.dll
 0002:0000011c       __imp__MeshCreate          1002d11c     graphic:graphic.dll
 0002:00000120       __imp__Scene3DCreate       1002d120     graphic:graphic.dll
 0002:00000124       __imp__AniCreate           1002d124     graphic:graphic.dll
 0002:00000128       __imp__MotionCreate        1002d128     graphic:graphic.dll
 0002:0000012c       __imp__TextureCreate       1002d12c     graphic:graphic.dll
 0002:00000130       __imp__EffectCreate        1002d130     graphic:graphic.dll
 0002:00000134       __imp__ResetRenderThreadContext 1002d134     graphic:graphic.dll
 0002:00000138       __imp__SetRenderThreadContext 1002d138     graphic:graphic.dll
 0002:0000013c       __imp__EnableReturnDefaultAni 1002d13c     graphic:graphic.dll
 0002:00000140       \177graphic_NULL_THUNK_DATA 1002d140     graphic:graphic.dll
 0002:00000148       ??_7CGameDataSetX@@6BIThreadExitCallback@@@ 1002d148     GameDataSet.obj
 0002:0000014c       ??_7CGameDataSetX@@6BIPhyLoadConfig@@@ 1002d14c     GameDataSet.obj
 0002:00000150       ??_7CGameDataSetX@@6BIDataIcon@@@ 1002d150     GameDataSet.obj
 0002:00000154       ??_7CGameDataSetX@@6BCGameDataSet@@@ 1002d154     GameDataSet.obj
 0002:00000214       ??_7IThreadExitCallback@@6B@ 1002d214     GameDataSet.obj
 0002:00000218       ??_7IPhyLoadConfig@@6B@    1002d218     GameDataSet.obj
 0002:0000021c       ??_7IDataIcon@@6B@         1002d21c     GameDataSet.obj
 0002:00000220       ??_7CGameDataSet@@6B@      1002d220     GameDataSet.obj
 0002:000002e0       ??_7CDataThreadObj@@6B@    1002d2e0     GameDataSet.obj
 0002:000002f0       ??_7IDataObj@@6B@          1002d2f0     GameDataSet.obj
 0002:00000300       __real@4@3ff78080810000000000 1002d300     GameDBConfig.obj
 0002:00000304       __real@4@4005c800000000000000 1002d304     GameDBConfig.obj
 0002:00001720       __IMPORT_DESCRIPTOR_KERNEL32 1002e720     kernel32:KERNEL32.dll
 0002:00001734       __IMPORT_DESCRIPTOR_WINMM  1002e734     winmm:WINMM.dll
 0002:00001748       __IMPORT_DESCRIPTOR_DataThread 1002e748     DataThread:DataThread.dll
 0002:0000175c       __IMPORT_DESCRIPTOR_TqPackage 1002e75c     TqPackage:TqPackage.dll
 0002:00001770       __IMPORT_DESCRIPTOR_graphic 1002e770     graphic:graphic.dll
 0002:00001784       __IMPORT_DESCRIPTOR_MSVCP60 1002e784     msvcprt:MSVCP60.dll
 0002:00001798       __IMPORT_DESCRIPTOR_MSVCRT 1002e798     MSVCRT:MSVCRT.dll
 0002:000017ac       __NULL_IMPORT_DESCRIPTOR   1002e7ac     kernel32:KERNEL32.dll
 0003:00000000       ___xc_a                    10030000     MSVCRT:cinitexe.obj
 0003:00000004       ___xc_z                    10030004     MSVCRT:cinitexe.obj
 0003:00000008       ___xi_a                    10030008     MSVCRT:cinitexe.obj
 0003:0000000c       ___xi_z                    1003000c     MSVCRT:cinitexe.obj
 0003:00000010       ??_C@_0BP@KODG@CGameDataSetX?3?3Init?5took?5?$CFd?5ms?$AA@ 10030010     GameDataSet.obj
 0003:00000030       ??_C@_0BC@HCNG@ini?13DObjProp?4dbc?$AA@ 10030030     GameDataSet.obj
 0003:00000044       ??_C@_0O@CKN@ini?1sound?4dbc?$AA@ 10030044     GameDataSet.obj
 0003:00000054       ??_C@_0BA@FPFI@ini?13dscene?4dbc?$AA@ 10030054     GameDataSet.obj
 0003:00000064       ??_C@_0O@PDAJ@ini?13dobj?4dbc?$AA@ 10030064     GameDataSet.obj
 0003:00000074       ??_C@_0BE@MDOL@ini?13deffectobj?4dbc?$AA@ 10030074     GameDataSet.obj
 0003:00000088       ??_C@_0BC@KIHG@ini?13dtexture?4dbc?$AA@ 10030088     GameDataSet.obj
 0003:0000009c       ??_C@_0BM@NAPJ@Game?5DB?5Pack?5Update?5Failed?$CB?$AA@ 1003009c     GameDataSet.obj
 0003:000000b8       ??_C@_0BC@NDJG@ClearAniFileSet?$CI?$CJ?$AA@ 100300b8     GameDataSet.obj
 0003:000000cc       ??_C@_0DN@EFPP@Skeleton?5should?5be?5all?5destroied@ 100300cc     GameDataSet.obj
 0003:0000010c       ??_C@_04DEEH@mesh?$AA@     1003010c     GameDataSet.obj
 0003:00000114       ??_C@_0BJ@DBAA@create?5Mesh?5?$FL?$CFs?$FN?5failed?4?$AA@ 10030114     GameDataSet.obj
 0003:00000130       ??_C@_0CF@CNHI@C3?5default?5motion?5?$FL?$CFs?$FN?5create?5er@ 10030130     GameDataSet.obj
 0003:00000158       ??_C@_0CJ@NBMC@?$KB?oASSERT?$CIpszFileName?$CJ?5in?5?$CFd?5line@ 10030158     GameDataSet.obj
 0003:00000184       ??_C@_0FH@MBMA@F?3?2cygwin?2home?2Administrator?2Pro@ 10030184     GameDataSet.obj
 0003:000001dc       ??_C@_0BF@ILDH@Mesh?5?$FL?$CFu?$FN?5not?5found?$CB?$AA@ 100301dc     GameDataSet.obj
 0003:000001f4       ??_C@_0CE@GLMP@Error?3?5CreateNew3DScene?$CI?$CFs?$CJ?5fail@ 100301f4     GameDataSet.obj
 0003:00000218       ??_C@_0BJ@GNOD@3d?5scene?5?$FL?$CFu?$FN?5not?5found?$CB?$AA@ 10030218     GameDataSet.obj
 0003:00000234       ??_C@_0CE@PIJH@Error?3?5CreateNewAni?$CI?$CFs?0?5?$CFs?$CJ?5fail@ 10030234     GameDataSet.obj
 0003:00000258       ??_C@_0CL@KBIN@?$KB?oASSERT?$CIid?5?$CB?$DN?5ID_NONE?$CJ?5in?5?$CFd?5li@ 10030258     GameDataSet.obj
 0003:00000284       ??_C@_07DIGL@texture?$AA@  10030284     GameDataSet.obj
 0003:0000028c       ??_C@_06JOBA@effect?$AA@   1003028c     GameDataSet.obj
 0003:00000294       ??_C@_05OJHB@scene?$AA@    10030294     GameDataSet.obj
 0003:0000029c       ??_C@_0BN@MBD@3d?5motion?5?$FL?$CFs?$FN?5create?5error?4?$AA@ 1003029c     GameDataSet.obj
 0003:000002bc       ??_C@_0BM@MBHF@create?5texture?5?$FL?$CFs?$FN?5failed?4?$AA@ 100302bc     GameDataSet.obj
 0003:000002d8       ??_C@_0BI@BEF@texture?5?$FL?$CFu?$FN?5not?5found?$CB?$AA@ 100302d8     GameDataSet.obj
 0003:000002f0       ??_C@_0CF@OCNJ@Error?3?5CreateNew3DEffect?$CI?$CFs?$CJ?5fai@ 100302f0     GameDataSet.obj
 0003:00000318       ??_C@_0BK@HAIE@3d?5effect?5?$FL?$CFu?$FN?5not?5found?$CB?$AA@ 10030318     GameDataSet.obj
 0003:00000334       ??_C@_0CG@PODF@?$CFs?5Find?5?$CFX?5not?5equal?5to?5RES_RECO@ 10030334     GameDataSet.obj
 0003:0000035c       ??_C@_0BJ@NHDM@?$KB?oIF_NOT?$CI?$CFs?$CJ?$KB?o?5in?5?$CFs?0?5?$CFd?$AA@ 1003035c     GameDataSet.obj
 0003:00000378       ??_C@_0CM@DMOK@?$KB?oASSERT?$CIpszResFileName?$CJ?5in?5?$CFd?5l@ 10030378     GameDataSet.obj
 0003:000003a4       ??_C@_0BM@GEDE@pMotion?5?$DN?$DN?5resRecord?4m_pObj?$AA@ 100303a4     GameDataSet.obj
 0003:000003c0       ??_C@_0EO@HEBO@Fail?5to?5find?5C3DMotion?3?5?$CFX?5in?5m_@ 100303c0     GameDataSet.obj
 0003:00000410       ??_C@_0DI@IM@Fail?5to?5find?5C3DObj?5in?5m_mapResM@ 10030410     GameDataSet.obj
 0003:00000448       ??_C@_0DN@FCN@Fail?5to?5find?5C3DEffect?5in?5m_mapR@ 10030448     GameDataSet.obj
 0003:00000488       ??_C@_0DP@NALM@Fail?5to?5find?5C3DTexture?5in?5m_map@ 10030488     GameDataSet.obj
 0003:000004c8       ??_C@_0DL@FDGM@Fail?5to?5find?5C3DScene?5in?5m_mapRe@ 100304c8     GameDataSet.obj
 0003:00000504       ??_C@_0DE@KOKO@?$KB?oASSERT?$CIg_pGameDataSet?5?$CB?$DN?5NULL?$CJ@ 10030504     GameDataSet.obj
 0003:00000538       ??_C@_03HHKO@?$CFs?6?$AA@  10030538     GameDBConfig.obj
 0003:0000053c       ??_C@_0CC@GDD@open?5file?5ini?1package?4ini?5failed@ 1003053c     GameDBConfig.obj
 0003:00000560       ??_C@_01LHO@r?$AA@         10030560     GameDBConfig.obj
 0003:00000564       ??_C@_05LELA@?$CFs?1?$CFs?$AA@ 10030564     GameDBConfig.obj
 0003:0000056c       ??_C@_0BA@PAGD@ini?1package?4ini?$AA@ 1003056c     GameDBConfig.obj
 0003:0000057c       ??_C@_0CH@DMBN@Fail?5to?5allocate?5?$CFd?5bytes?5mem?5fo@ 1003057c     GameDBConfig.obj
 0003:000005a4       ??_C@_0BH@DJIC@Invalid?5Item?5Count?3?5?$CFs?$AA@ 100305a4     GameDBConfig.obj
 0003:000005bc       ??_C@_0BC@MPC@Invalid?5Ident?3?5?$CFs?$AA@ 100305bc     GameDBConfig.obj
 0003:000005d0       ??_C@_0BA@CDFN@Fail?5to?5open?5?$CFs?$AA@ 100305d0     GameDBConfig.obj
 0003:000005e0       ??_C@_0CG@EJHN@?$KB?oASSERT?$CIpCurData?$CJ?5in?5?$CFd?5line?5of@ 100305e0     GameDBConfig.obj
 0003:00000608       ??_C@_0FI@EDGJ@F?3?2cygwin?2home?2Administrator?2Pro@ 10030608     GameDBConfig.obj
 0003:00000660       ??_C@_0BF@KECL@open?5file?5?$CFs?5failed?4?$AA@ 10030660     GameDBConfig.obj
 0003:00000678       ??_C@_0BB@MAHM@ini?1RolePart?4dbc?$AA@ 10030678     GameDBConfig.obj
 0003:0000068c       ??_C@_0CF@KLBG@Open?5custom?5RolePart?5file?5?$CFs?5fai@ 1003068c     GameDBConfig.obj
 0003:000006b4       ??_C@_0CI@MAGO@Serious?5Error?$CB?$CB?$CB?5No?5one?5material@ 100306b4     GameDBConfig.obj
 0003:000006dc       ??_C@_0CM@LNKL@Serious?5Error?$CB?$CB?$CB?5Material?5config@ 100306dc     GameDBConfig.obj
 0003:00000708       ??_C@_0BB@NPMC@ini?1Material?4dbc?$AA@ 10030708     GameDBConfig.obj
 0003:0000071c       ??_C@_0BB@FNBL@ini?13DEffect?4dbc?$AA@ 1003071c     GameDBConfig.obj
 0003:00000730       ??_C@_0BC@PPEC@ini?13DEffect2?4dbc?$AA@ 10030730     GameDBConfig.obj
 0003:00000744       ??_C@_0BE@BJMD@ini?13DSimpleObj?4dbc?$AA@ 10030744     GameDBConfig.obj
 0003:00000758       ??_C@_0BG@BMHN@ini?13DSimpleObjEx?4dbc?$AA@ 10030758     GameDBConfig.obj
 0003:00000770       ??_C@_0BC@BNJM@error?5on?5open?5?$CFs?4?$AA@ 10030770     GameDBConfig.obj
 0003:00000784       ??_C@_0BD@HJDH@ini?1EmotionIco?4dbc?$AA@ 10030784     GameDBConfig.obj
 0003:00000798       ??_C@_0BF@KCCL@error?5data?3?5?$CFs?5of?5?$CFs?$AA@ 10030798     GameDBConfig.obj
 0003:000007b0       ??_C@_0L@MBLH@Time?$CFu?$DN?$CFu?6?$AA@ 100307b0     GameDBConfig.obj
 0003:000007bc       ??_C@_0M@HMFF@Trans?$CFu?$DN?$CFu?6?$AA@ 100307bc     GameDBConfig.obj
 0003:000007c8       ??_C@_09PDBF@Count?$DN?$CFd?6?$AA@ 100307c8     GameDBConfig.obj
 0003:000007d4       ??_C@_04GKDJ@?$FL?$CFs?$FN?$AA@ 100307d4     GameDBConfig.obj
 0003:000007dc       ??_C@_0BJ@JGGJ@ini?1actiontransition?4ini?$AA@ 100307dc     GameDBConfig.obj
 0003:000007f8       ??_C@_0BF@IMMN@ini?1BufferMotion?4ini?$AA@ 100307f8     GameDBConfig.obj
 0003:00000810       ??_C@_0BL@EFGF@Build?5Bin?5Not?5Implemented?$CB?$AA@ 10030810     GameDBConfig.obj
 0003:0000082c       ??_C@_0BD@CCLC@ani?1EmotionIco?4ani?$AA@ 1003082c     GameDBConfig.obj
 0003:00000840       ??_C@_06HO@ICON?$CFd?$AA@  10030840     GameDBConfig.obj
 0003:00000848       ??_C@_0DM@KIND@InitDBStrRes?5had?5been?5called?0?5DO@ 10030848     GameDBConfig.obj
 0003:00000884       ??_C@_04MILN@?$CFlld?$AA@  10030884     GameDBConfig.obj
 0003:0000088c       ??_C@_03PKPF@?$FL?$CFs?$AA@ 1003088c     GameDBConfig.obj
 0003:00000890       ??_C@_0BC@GGC@ini?1immediate?4ini?$AA@ 10030890     GameDBConfig.obj
 0003:000008a4       ??_C@_0N@MDOD@?$CFu?5?$CFu?5?$CFu?5?$CFu?6?$AA@ 100308a4     GameDBConfig.obj
 0003:000008b4       ??_C@_0BA@OBKP@ini?1MeshLod?4ini?$AA@ 100308b4     GameDBConfig.obj
 0003:000008c4       ??_C@_0BM@IFDD@Set?5Invalid?5ResLodLevel?3?5?$CFd?$AA@ 100308c4     GameDBConfig.obj
 0003:000008e0       ??_C@_0BD@JIMF@ini?13DSkeleton?4dbc?$AA@ 100308e0     GameDBPack.obj
 0003:000008f4       ??_C@_0BC@EENP@ini?13DTexture?4dbc?$AA@ 100308f4     GameDBPack.obj
 0003:00000908       ??_C@_0O@CEGP@ini?13DObj?4dbc?$AA@ 10030908     GameDBPack.obj
 0003:00000918       ??_C@_0EJ@EKNN@?$KB?oASSERT?$CIstrlen?$CIpRolePartDesc?9?$DOs@ 10030918     GameDBPack.obj
 0003:00000964       ??_C@_0EH@BKFA@?$KB?oASSERT?$CIstrlen?$CIpRolePartDesc?9?$DOs@ 10030964     GameDBPack.obj
 0003:000009ac       ??_C@_0FG@KKDB@F?3?2cygwin?2home?2Administrator?2Pro@ 100309ac     GameDBPack.obj
 0003:00000a04       ??_C@_0DF@OFEE@Fail?5to?5MoveFile?$CIC3_TEMP_GAME_DB@ 10030a04     GameDBPack.obj
 0003:00000a3c       ??_C@_0DE@HCGJ@Fail?5to?5MoveFile?$CIC3_PACKED_GAME_@ 10030a3c     GameDBPack.obj
 0003:00000a70       ??_C@_0P@KDLG@ini?1c3?4wdb?4sav?$AA@ 10030a70     GameDBPack.obj
 0003:00000a80       ??_C@_0BJ@BBBF@No?5wdb?5file?5found?5there?$CB?$AA@ 10030a80     GameDBPack.obj
 0003:00000a9c       ??_C@_0DJ@JNJN@Error?$CB?5Can?5not?5find?5?$CFs?5file?5in?5c@ 10030a9c     GameDBPack.obj
 0003:00000ad8       ??_C@_0BP@BKJE@Fail?5to?5open?5update?5db?5file?5?$CFs?$AA@ 10030ad8     GameDBPack.obj
 0003:00000af8       ??_C@_0FF@JHJP@?$KB?oASSERT?$CIfwrite?$CIpTempData?0?51?0?5nF@ 10030af8     GameDBPack.obj
 0003:00000b50       ??_C@_0FG@HAMF@?$KB?oASSERT?$CIfread?$CIpTempData?0?51?0?5nFi@ 10030b50     GameDBPack.obj
 0003:00000ba8       ??_C@_0GH@OOJK@?$KB?oASSERT?$CIfwrite?$CIpTempData?0?51?0?5fi@ 10030ba8     GameDBPack.obj
 0003:00000c10       ??_C@_0GD@KCPF@?$KB?oASSERT?$CIfread?$CIpTempData?0?51?0?5fil@ 10030c10     GameDBPack.obj
 0003:00000c74       ??_C@_0CH@NMMB@?$KB?oASSERT?$CIpTempData?$CJ?5in?5?$CFd?5line?5o@ 10030c74     GameDBPack.obj
 0003:00000c9c       ??_C@_0CG@PJLP@Error?$CB?5Fail?5to?5create?5ni?1c3?4wdb?4@ 10030c9c     GameDBPack.obj
 0003:00000cc4       ??_C@_02NGAF@wb?$AA@       10030cc4     GameDBPack.obj
 0003:00000cc8       ??_C@_0P@NFL@ini?1c3?4wdb?4tmp?$AA@ 10030cc8     GameDBPack.obj
 0003:00000cd8       ??_C@_0CH@GDKN@Error?$CB?5Fail?5to?5open?5c3?4wdb?5for?5u@ 10030cd8     GameDBPack.obj
 0003:00000d00       ??_C@_0CP@DDO@Fail?5to?5read?5?$CFd?5FileEntry?0?5total@ 10030d00     GameDBPack.obj
 0003:00000d30       ??_C@_0FE@DDEL@?$KB?oASSERT?$CIm_mapPackFileEntries?4si@ 10030d30     GameDBPack.obj
 0003:00000d84       ??_C@_0BH@KHLM@Invalid?5c3?4wdb?5FileID?$CB?$AA@ 10030d84     GameDBPack.obj
 0003:00000d9c       ??_C@_0HJ@KHNG@?$KB?oASSERT?$CIfread?$CI?$CGheader?0?51?0?5sizeo@ 10030d9c     GameDBPack.obj
 0003:00000e18       ??_C@_02JKAF@rb?$AA@       10030e18     GameDBPack.obj
 0003:00000e1c       ??_C@_05KEJO@?$CFs?2?$CFs?$AA@ 10030e1c     GameDBPack.obj
 0003:00000e24       ??_C@_0L@NBEM@ini?1c3?4wdb?$AA@ 10030e24     GameDBPack.obj
 0003:00000e30       ??_C@_0CB@JGPE@Error?$CB?5Can?5not?5find?5?$CFs?5in?5c3?4wdb@ 10030e30     GameDBPack.obj
 0003:00000e54       ??_C@_0O@BEFF@pszDBFileName?$AA@ 10030e54     GameDBPack.obj
 0003:00000e64       ??_C@_0N@NMEF@m_pC3WDBFile?$AA@ 10030e64     GameDBPack.obj
 0003:00000e74       ??_C@_0CD@IJDI@Fail?5to?5read?5?$FL?$CFd?$FN?5length?5with?5?$FL?$CF@ 10030e74     GameDBPack.obj
 0003:00000e98       ??_C@_0CJ@DGEF@Error?$CB?5Need?5?$FL?$CFd?$FN?5bytes?5buffer?5to@ 10030e98     GameDBPack.obj
 0003:00000ec4       ??_C@_0CF@KHLJ@Can?5not?5read?5whole?5file?5data?5fro@ 10030ec4     StrRes.obj
 0003:00000eec       ??_C@_0P@DNF@ini?1strres?4dat?$AA@ 10030eec     StrRes.obj
 0003:00000efc       ??_C@_0BL@NPEO@Error?$CB?5Can?8t?5open?5file?3?$CFs?$CB?$AA@ 10030efc     StrRes.obj
 0003:00000f18       ??_C@_0P@KACO@ini?1strres?4ini?$AA@ 10030f18     StrRes.obj
 0003:00000f28       ??_C@_05JPBP@SE?3?$CFu?$AA@ 10030f28     StrRes.obj
 0003:00001268       ?g_pGameDataSet@@3PAVCGameDataSetX@@A 10031268     GameDataSet.obj
 0003:0000126c       ?g_dwMeshTime@@3KA         1003126c     GameDataSet.obj
 0003:00001270       ?g_dwMeshLoad@@3KA         10031270     GameDataSet.obj
 0003:00001274       ?_Nilrefs@?$_Tree@IU?$pair@$$CBIPAUC3DSimpleObjInfo@@@std@@U_Kfn@?$map@IPAUC3DSimpleObjInfo@@U?$less@I@std@@V?$allocator@PAUC3DSimpleObjInfo@@@3@@2@U?$less@I@2@V?$allocator@PAUC3DSimpleObjInfo@@@2@@std@@1IA 10031274     GameDataSet.obj
 0003:00001278       ?_Nil@?$_Tree@IU?$pair@$$CBIPAUC3DSimpleObjInfo@@@std@@U_Kfn@?$map@IPAUC3DSimpleObjInfo@@U?$less@I@std@@V?$allocator@PAUC3DSimpleObjInfo@@@3@@2@U?$less@I@2@V?$allocator@PAUC3DSimpleObjInfo@@@2@@std@@1PAU_Node@12@A 10031278     GameDataSet.obj
 0003:0000127c       ?_Nilrefs@?$_Tree@IU?$pair@$$CBIUC3DSimpleObjInfoEx@@@std@@U_Kfn@?$map@IUC3DSimpleObjInfoEx@@U?$less@I@std@@V?$allocator@UC3DSimpleObjInfoEx@@@3@@2@U?$less@I@2@V?$allocator@UC3DSimpleObjInfoEx@@@2@@std@@1IA 1003127c     GameDataSet.obj
 0003:00001280       ?_Nil@?$_Tree@IU?$pair@$$CBIUC3DSimpleObjInfoEx@@@std@@U_Kfn@?$map@IUC3DSimpleObjInfoEx@@U?$less@I@std@@V?$allocator@UC3DSimpleObjInfoEx@@@3@@2@U?$less@I@2@V?$allocator@UC3DSimpleObjInfoEx@@@2@@std@@1PAU_Node@12@A 10031280     GameDataSet.obj
 0003:00001284       ?_Nilrefs@?$_Tree@V?$basic_string@DU?$char_traits@D@std@@V?$allocator@D@2@@std@@U?$pair@$$CBV?$basic_string@DU?$char_traits@D@std@@V?$allocator@D@2@@std@@PAUCMy3DEffectInfo@@@2@U_Kfn@?$map@V?$basic_string@DU?$char_traits@D@std@@V?$allocator@D@2@@std@@PAUCMy3DEffectInfo@@U?$less@V?$basic_string@DU?$char_traits@D@std@@V?$allocator@D@2@@std@@@2@V?$allocator@PAUCMy3DEffectInfo@@@2@@2@U?$less@V?$basic_string@DU?$char_traits@D@std@@V?$allocator@D@2@@std@@@2@V?$allocator@PAUCMy3DEffectInfo@@@2@@std@@1IA 10031284     GameDataSet.obj
 0003:00001288       ?_Nil@?$_Tree@V?$basic_string@DU?$char_traits@D@std@@V?$allocator@D@2@@std@@U?$pair@$$CBV?$basic_string@DU?$char_traits@D@std@@V?$allocator@D@2@@std@@PAUCMy3DEffectInfo@@@2@U_Kfn@?$map@V?$basic_string@DU?$char_traits@D@std@@V?$allocator@D@2@@std@@PAUCMy3DEffectInfo@@U?$less@V?$basic_string@DU?$char_traits@D@std@@V?$allocator@D@2@@std@@@2@V?$allocator@PAUCMy3DEffectInfo@@@2@@2@U?$less@V?$basic_string@DU?$char_traits@D@std@@V?$allocator@D@2@@std@@@2@V?$allocator@PAUCMy3DEffectInfo@@@2@@std@@1PAU_Node@12@A 10031288     GameDataSet.obj
 0003:0000128c       ?_Nilrefs@?$_Tree@V?$basic_string@DU?$char_traits@D@std@@V?$allocator@D@2@@std@@U?$pair@$$CBV?$basic_string@DU?$char_traits@D@std@@V?$allocator@D@2@@std@@H@2@U_Kfn@?$map@V?$basic_string@DU?$char_traits@D@std@@V?$allocator@D@2@@std@@HU?$less@V?$basic_string@DU?$char_traits@D@std@@V?$allocator@D@2@@std@@@2@V?$allocator@H@2@@2@U?$less@V?$basic_string@DU?$char_traits@D@std@@V?$allocator@D@2@@std@@@2@V?$allocator@H@2@@std@@1IA 1003128c     GameDataSet.obj
 0003:00001290       ?_Nil@?$_Tree@V?$basic_string@DU?$char_traits@D@std@@V?$allocator@D@2@@std@@U?$pair@$$CBV?$basic_string@DU?$char_traits@D@std@@V?$allocator@D@2@@std@@H@2@U_Kfn@?$map@V?$basic_string@DU?$char_traits@D@std@@V?$allocator@D@2@@std@@HU?$less@V?$basic_string@DU?$char_traits@D@std@@V?$allocator@D@2@@std@@@2@V?$allocator@H@2@@2@U?$less@V?$basic_string@DU?$char_traits@D@std@@V?$allocator@D@2@@std@@@2@V?$allocator@H@2@@std@@1PAU_Node@12@A 10031290     GameDataSet.obj
 0003:00001294       ?_Nilrefs@?$_Tree@V?$basic_string@DU?$char_traits@D@std@@V?$allocator@D@2@@std@@U?$pair@$$CBV?$basic_string@DU?$char_traits@D@std@@V?$allocator@D@2@@std@@UROLE_COMPONENT_INFO@CGameDataSetX@@@2@U_Kfn@?$map@V?$basic_string@DU?$char_traits@D@std@@V?$allocator@D@2@@std@@UROLE_COMPONENT_INFO@CGameDataSetX@@U?$less@V?$basic_string@DU?$char_traits@D@std@@V?$allocator@D@2@@std@@@2@V?$allocator@UROLE_COMPONENT_INFO@CGameDataSetX@@@2@@2@U?$less@V?$basic_string@DU?$char_traits@D@std@@V?$allocator@D@2@@std@@@2@V?$allocator@UROLE_COMPONENT_INFO@CGameDataSetX@@@2@@std@@1IA 10031294     GameDataSet.obj
 0003:00001298       ?_Nil@?$_Tree@V?$basic_string@DU?$char_traits@D@std@@V?$allocator@D@2@@std@@U?$pair@$$CBV?$basic_string@DU?$char_traits@D@std@@V?$allocator@D@2@@std@@UROLE_COMPONENT_INFO@CGameDataSetX@@@2@U_Kfn@?$map@V?$basic_string@DU?$char_traits@D@std@@V?$allocator@D@2@@std@@UROLE_COMPONENT_INFO@CGameDataSetX@@U?$less@V?$basic_string@DU?$char_traits@D@std@@V?$allocator@D@2@@std@@@2@V?$allocator@UROLE_COMPONENT_INFO@CGameDataSetX@@@2@@2@U?$less@V?$basic_string@DU?$char_traits@D@std@@V?$allocator@D@2@@std@@@2@V?$allocator@UROLE_COMPONENT_INFO@CGameDataSetX@@@2@@std@@1PAU_Node@12@A 10031298     GameDataSet.obj
 0003:0000129c       ?_Nilrefs@?$_Tree@V?$basic_string@DU?$char_traits@D@std@@V?$allocator@D@2@@std@@U?$pair@$$CBV?$basic_string@DU?$char_traits@D@std@@V?$allocator@D@2@@std@@V?$map@IURolePartInfo@@U?$less@I@std@@V?$allocator@URolePartInfo@@@3@@2@@2@U_Kfn@?$map@V?$basic_string@DU?$char_traits@D@std@@V?$allocator@D@2@@std@@V?$map@IURolePartInfo@@U?$less@I@std@@V?$allocator@URolePartInfo@@@3@@2@U?$less@V?$basic_string@DU?$char_traits@D@std@@V?$allocator@D@2@@std@@@2@V?$allocator@V?$map@IURolePartInfo@@U?$less@I@std@@V?$allocator@URolePartInfo@@@3@@std@@@2@@2@U?$less@V?$basic_string@DU?$char_traits@D@std@@V?$allocator@D@2@@std@@@2@V?$allocator@V?$map@IURolePartInfo@@U?$less@I@std@@V?$allocator@URolePartInfo@@@3@@std@@@2@@std@@1IA 1003129c     GameDataSet.obj
 0003:000012a0       ?_Nil@?$_Tree@V?$basic_string@DU?$char_traits@D@std@@V?$allocator@D@2@@std@@U?$pair@$$CBV?$basic_string@DU?$char_traits@D@std@@V?$allocator@D@2@@std@@V?$map@IURolePartInfo@@U?$less@I@std@@V?$allocator@URolePartInfo@@@3@@2@@2@U_Kfn@?$map@V?$basic_string@DU?$char_traits@D@std@@V?$allocator@D@2@@std@@V?$map@IURolePartInfo@@U?$less@I@std@@V?$allocator@URolePartInfo@@@3@@2@U?$less@V?$basic_string@DU?$char_traits@D@std@@V?$allocator@D@2@@std@@@2@V?$allocator@V?$map@IURolePartInfo@@U?$less@I@std@@V?$allocator@URolePartInfo@@@3@@std@@@2@@2@U?$less@V?$basic_string@DU?$char_traits@D@std@@V?$allocator@D@2@@std@@@2@V?$allocator@V?$map@IURolePartInfo@@U?$less@I@std@@V?$allocator@URolePartInfo@@@3@@std@@@2@@std@@1PAU_Node@12@A 100312a0     GameDataSet.obj
 0003:000012a4       ?_Nilrefs@?$_Tree@V?$basic_string@DU?$char_traits@D@std@@V?$allocator@D@2@@std@@U?$pair@$$CBV?$basic_string@DU?$char_traits@D@std@@V?$allocator@D@2@@std@@V?$map@_JPBDU?$less@_J@std@@V?$allocator@PBD@2@@2@@2@U_Kfn@?$map@V?$basic_string@DU?$char_traits@D@std@@V?$allocator@D@2@@std@@V?$map@_JPBDU?$less@_J@std@@V?$allocator@PBD@2@@2@U?$less@V?$basic_string@DU?$char_traits@D@std@@V?$allocator@D@2@@std@@@2@V?$allocator@V?$map@_JPBDU?$less@_J@std@@V?$allocator@PBD@2@@std@@@2@@2@U?$less@V?$basic_string@DU?$char_traits@D@std@@V?$allocator@D@2@@std@@@2@V?$allocator@V?$map@_JPBDU?$less@_J@std@@V?$allocator@PBD@2@@std@@@2@@std@@1IA 100312a4     GameDataSet.obj
 0003:000012a8       ?_Nil@?$_Tree@V?$basic_string@DU?$char_traits@D@std@@V?$allocator@D@2@@std@@U?$pair@$$CBV?$basic_string@DU?$char_traits@D@std@@V?$allocator@D@2@@std@@V?$map@_JPBDU?$less@_J@std@@V?$allocator@PBD@2@@2@@2@U_Kfn@?$map@V?$basic_string@DU?$char_traits@D@std@@V?$allocator@D@2@@std@@V?$map@_JPBDU?$less@_J@std@@V?$allocator@PBD@2@@2@U?$less@V?$basic_string@DU?$char_traits@D@std@@V?$allocator@D@2@@std@@@2@V?$allocator@V?$map@_JPBDU?$less@_J@std@@V?$allocator@PBD@2@@std@@@2@@2@U?$less@V?$basic_string@DU?$char_traits@D@std@@V?$allocator@D@2@@std@@@2@V?$allocator@V?$map@_JPBDU?$less@_J@std@@V?$allocator@PBD@2@@std@@@2@@std@@1PAU_Node@12@A 100312a8     GameDataSet.obj
 0003:000012ac       ?_Nilrefs@?$_Tree@V?$basic_string@DU?$char_traits@D@std@@V?$allocator@D@2@@std@@V12@U_Kfn@?$set@V?$basic_string@DU?$char_traits@D@std@@V?$allocator@D@2@@std@@U?$less@V?$basic_string@DU?$char_traits@D@std@@V?$allocator@D@2@@std@@@2@V?$allocator@V?$basic_string@DU?$char_traits@D@std@@V?$allocator@D@2@@std@@@2@@2@U?$less@V?$basic_string@DU?$char_traits@D@std@@V?$allocator@D@2@@std@@@2@V?$allocator@V?$basic_string@DU?$char_traits@D@std@@V?$allocator@D@2@@std@@@2@@std@@1IA 100312ac     GameDataSet.obj
 0003:000012b0       ?_Nil@?$_Tree@V?$basic_string@DU?$char_traits@D@std@@V?$allocator@D@2@@std@@V12@U_Kfn@?$set@V?$basic_string@DU?$char_traits@D@std@@V?$allocator@D@2@@std@@U?$less@V?$basic_string@DU?$char_traits@D@std@@V?$allocator@D@2@@std@@@2@V?$allocator@V?$basic_string@DU?$char_traits@D@std@@V?$allocator@D@2@@std@@@2@@2@U?$less@V?$basic_string@DU?$char_traits@D@std@@V?$allocator@D@2@@std@@@2@V?$allocator@V?$basic_string@DU?$char_traits@D@std@@V?$allocator@D@2@@std@@@2@@std@@1PAU_Node@12@A 100312b0     GameDataSet.obj
 0003:000012b4       ?_Nilrefs@?$_Tree@KU?$pair@$$CBKV?$map@KKU?$less@K@std@@V?$allocator@K@2@@std@@@std@@U_Kfn@?$map@KV?$map@KKU?$less@K@std@@V?$allocator@K@2@@std@@U?$less@K@2@V?$allocator@V?$map@KKU?$less@K@std@@V?$allocator@K@2@@std@@@2@@2@U?$less@K@2@V?$allocator@V?$map@KKU?$less@K@std@@V?$allocator@K@2@@std@@@2@@std@@1IA 100312b4     GameDataSet.obj
 0003:000012b8       ?_Nil@?$_Tree@KU?$pair@$$CBKV?$map@KKU?$less@K@std@@V?$allocator@K@2@@std@@@std@@U_Kfn@?$map@KV?$map@KKU?$less@K@std@@V?$allocator@K@2@@std@@U?$less@K@2@V?$allocator@V?$map@KKU?$less@K@std@@V?$allocator@K@2@@std@@@2@@2@U?$less@K@2@V?$allocator@V?$map@KKU?$less@K@std@@V?$allocator@K@2@@std@@@2@@std@@1PAU_Node@12@A 100312b8     GameDataSet.obj
 0003:000012bc       ?_Nilrefs@?$_Tree@V?$basic_string@DU?$char_traits@D@std@@V?$allocator@D@2@@std@@U?$pair@$$CBV?$basic_string@DU?$char_traits@D@std@@V?$allocator@D@2@@std@@V?$map@_JPAUC3DMotionInfo@@U?$less@_J@std@@V?$allocator@PAUC3DMotionInfo@@@3@@2@@2@U_Kfn@?$map@V?$basic_string@DU?$char_traits@D@std@@V?$allocator@D@2@@std@@V?$map@_JPAUC3DMotionInfo@@U?$less@_J@std@@V?$allocator@PAUC3DMotionInfo@@@3@@2@U?$less@V?$basic_string@DU?$char_traits@D@std@@V?$allocator@D@2@@std@@@2@V?$allocator@V?$map@_JPAUC3DMotionInfo@@U?$less@_J@std@@V?$allocator@PAUC3DMotionInfo@@@3@@std@@@2@@2@U?$less@V?$basic_string@DU?$char_traits@D@std@@V?$allocator@D@2@@std@@@2@V?$allocator@V?$map@_JPAUC3DMotionInfo@@U?$less@_J@std@@V?$allocator@PAUC3DMotionInfo@@@3@@std@@@2@@std@@1IA 100312bc     GameDataSet.obj
 0003:000012c0       ?_Nil@?$_Tree@V?$basic_string@DU?$char_traits@D@std@@V?$allocator@D@2@@std@@U?$pair@$$CBV?$basic_string@DU?$char_traits@D@std@@V?$allocator@D@2@@std@@V?$map@_JPAUC3DMotionInfo@@U?$less@_J@std@@V?$allocator@PAUC3DMotionInfo@@@3@@2@@2@U_Kfn@?$map@V?$basic_string@DU?$char_traits@D@std@@V?$allocator@D@2@@std@@V?$map@_JPAUC3DMotionInfo@@U?$less@_J@std@@V?$allocator@PAUC3DMotionInfo@@@3@@2@U?$less@V?$basic_string@DU?$char_traits@D@std@@V?$allocator@D@2@@std@@@2@V?$allocator@V?$map@_JPAUC3DMotionInfo@@U?$less@_J@std@@V?$allocator@PAUC3DMotionInfo@@@3@@std@@@2@@2@U?$less@V?$basic_string@DU?$char_traits@D@std@@V?$allocator@D@2@@std@@@2@V?$allocator@V?$map@_JPAUC3DMotionInfo@@U?$less@_J@std@@V?$allocator@PAUC3DMotionInfo@@@3@@std@@@2@@std@@1PAU_Node@12@A 100312c0     GameDataSet.obj
 0003:000012c4       ?_Nilrefs@?$_Tree@IU?$pair@$$CBIPAUC3DObjInfo@@@std@@U_Kfn@?$map@IPAUC3DObjInfo@@U?$less@I@std@@V?$allocator@PAUC3DObjInfo@@@3@@2@U?$less@I@2@V?$allocator@PAUC3DObjInfo@@@2@@std@@1IA 100312c4     GameDataSet.obj
 0003:000012c8       ?_Nil@?$_Tree@IU?$pair@$$CBIPAUC3DObjInfo@@@std@@U_Kfn@?$map@IPAUC3DObjInfo@@U?$less@I@std@@V?$allocator@PAUC3DObjInfo@@@3@@2@U?$less@I@2@V?$allocator@PAUC3DObjInfo@@@2@@std@@1PAU_Node@12@A 100312c8     GameDataSet.obj
 0003:000012cc       ?_Nilrefs@?$_Tree@IU?$pair@$$CBIPAUC3DTextureInfo@@@std@@U_Kfn@?$map@IPAUC3DTextureInfo@@U?$less@I@std@@V?$allocator@PAUC3DTextureInfo@@@3@@2@U?$less@I@2@V?$allocator@PAUC3DTextureInfo@@@2@@std@@1IA 100312cc     GameDataSet.obj
 0003:000012d0       ?_Nil@?$_Tree@IU?$pair@$$CBIPAUC3DTextureInfo@@@std@@U_Kfn@?$map@IPAUC3DTextureInfo@@U?$less@I@std@@V?$allocator@PAUC3DTextureInfo@@@3@@2@U?$less@I@2@V?$allocator@PAUC3DTextureInfo@@@2@@std@@1PAU_Node@12@A 100312d0     GameDataSet.obj
 0003:000012d4       ?_Nilrefs@?$_Tree@IU?$pair@$$CBIPAUC3DEffectInfo@@@std@@U_Kfn@?$map@IPAUC3DEffectInfo@@U?$less@I@std@@V?$allocator@PAUC3DEffectInfo@@@3@@2@U?$less@I@2@V?$allocator@PAUC3DEffectInfo@@@2@@std@@1IA 100312d4     GameDataSet.obj
 0003:000012d8       ?_Nil@?$_Tree@IU?$pair@$$CBIPAUC3DEffectInfo@@@std@@U_Kfn@?$map@IPAUC3DEffectInfo@@U?$less@I@std@@V?$allocator@PAUC3DEffectInfo@@@3@@2@U?$less@I@2@V?$allocator@PAUC3DEffectInfo@@@2@@std@@1PAU_Node@12@A 100312d8     GameDataSet.obj
 0003:000012dc       ?_Nilrefs@?$_Tree@IU?$pair@$$CBIPAUC3DSceneRef@@@std@@U_Kfn@?$map@IPAUC3DSceneRef@@U?$less@I@std@@V?$allocator@PAUC3DSceneRef@@@3@@2@U?$less@I@2@V?$allocator@PAUC3DSceneRef@@@2@@std@@1IA 100312dc     GameDataSet.obj
 0003:000012e0       ?_Nil@?$_Tree@IU?$pair@$$CBIPAUC3DSceneRef@@@std@@U_Kfn@?$map@IPAUC3DSceneRef@@U?$less@I@std@@V?$allocator@PAUC3DSceneRef@@@3@@2@U?$less@I@2@V?$allocator@PAUC3DSceneRef@@@2@@std@@1PAU_Node@12@A 100312e0     GameDataSet.obj
 0003:000012e4       ?_Nilrefs@?$_Tree@IU?$pair@$$CBIPAUCAniRef@@@std@@U_Kfn@?$map@IPAUCAniRef@@U?$less@I@std@@V?$allocator@PAUCAniRef@@@3@@2@U?$less@I@2@V?$allocator@PAUCAniRef@@@2@@std@@1IA 100312e4     GameDataSet.obj
 0003:000012e8       ?_Nil@?$_Tree@IU?$pair@$$CBIPAUCAniRef@@@std@@U_Kfn@?$map@IPAUCAniRef@@U?$less@I@std@@V?$allocator@PAUCAniRef@@@3@@2@U?$less@I@2@V?$allocator@PAUCAniRef@@@2@@std@@1PAU_Node@12@A 100312e8     GameDataSet.obj
 0003:000012ec       ?_Nilrefs@?$_Tree@_JU?$pair@$$CB_JPBD@std@@U_Kfn@?$map@_JPBDU?$less@_J@std@@V?$allocator@PBD@2@@2@U?$less@_J@2@V?$allocator@PBD@2@@std@@1IA 100312ec     GameDataSet.obj
 0003:000012f0       ?_Nil@?$_Tree@_JU?$pair@$$CB_JPBD@std@@U_Kfn@?$map@_JPBDU?$less@_J@std@@V?$allocator@PBD@2@@2@U?$less@_J@2@V?$allocator@PBD@2@@std@@1PAU_Node@12@A 100312f0     GameDataSet.obj
 0003:000012f4       ?_Nilrefs@?$_Tree@V?$basic_string@DU?$char_traits@D@std@@V?$allocator@D@2@@std@@U?$pair@$$CBV?$basic_string@DU?$char_traits@D@std@@V?$allocator@D@2@@std@@URES_RECORD@@@2@U_Kfn@?$map@V?$basic_string@DU?$char_traits@D@std@@V?$allocator@D@2@@std@@URES_RECORD@@U?$less@V?$basic_string@DU?$char_traits@D@std@@V?$allocator@D@2@@std@@@2@V?$allocator@URES_RECORD@@@2@@2@U?$less@V?$basic_string@DU?$char_traits@D@std@@V?$allocator@D@2@@std@@@2@V?$allocator@URES_RECORD@@@2@@std@@1IA 100312f4     GameDataSet.obj
 0003:000012f8       ?_Nil@?$_Tree@V?$basic_string@DU?$char_traits@D@std@@V?$allocator@D@2@@std@@U?$pair@$$CBV?$basic_string@DU?$char_traits@D@std@@V?$allocator@D@2@@std@@URES_RECORD@@@2@U_Kfn@?$map@V?$basic_string@DU?$char_traits@D@std@@V?$allocator@D@2@@std@@URES_RECORD@@U?$less@V?$basic_string@DU?$char_traits@D@std@@V?$allocator@D@2@@std@@@2@V?$allocator@URES_RECORD@@@2@@2@U?$less@V?$basic_string@DU?$char_traits@D@std@@V?$allocator@D@2@@std@@@2@V?$allocator@URES_RECORD@@@2@@std@@1PAU_Node@12@A 100312f8     GameDataSet.obj
 0003:000012fc       ?_Nilrefs@?$_Tree@PAXU?$pair@QAXPBD@std@@U_Kfn@?$map@PAXPBDU?$less@PAX@std@@V?$allocator@PBD@2@@2@U?$less@PAX@2@V?$allocator@PBD@2@@std@@1IA 100312fc     GameDataSet.obj
 0003:00001300       ?_Nil@?$_Tree@PAXU?$pair@QAXPBD@std@@U_Kfn@?$map@PAXPBDU?$less@PAX@std@@V?$allocator@PBD@2@@2@U?$less@PAX@2@V?$allocator@PBD@2@@std@@1PAU_Node@12@A 10031300     GameDataSet.obj
 0003:00001304       ?_Nilrefs@?$_Tree@V?$basic_string@DU?$char_traits@D@std@@V?$allocator@D@2@@std@@U?$pair@$$CBV?$basic_string@DU?$char_traits@D@std@@V?$allocator@D@2@@std@@PAV?$map@_JKU?$less@_J@std@@V?$allocator@K@2@@2@@2@U_Kfn@?$map@V?$basic_string@DU?$char_traits@D@std@@V?$allocator@D@2@@std@@PAV?$map@_JKU?$less@_J@std@@V?$allocator@K@2@@2@U?$less@V?$basic_string@DU?$char_traits@D@std@@V?$allocator@D@2@@std@@@2@V?$allocator@PAV?$map@_JKU?$less@_J@std@@V?$allocator@K@2@@std@@@2@@2@U?$less@V?$basic_string@DU?$char_traits@D@std@@V?$allocator@D@2@@std@@@2@V?$allocator@PAV?$map@_JKU?$less@_J@std@@V?$allocator@K@2@@std@@@2@@std@@1IA 10031304     GameDataSet.obj
 0003:00001308       ?_Nil@?$_Tree@V?$basic_string@DU?$char_traits@D@std@@V?$allocator@D@2@@std@@U?$pair@$$CBV?$basic_string@DU?$char_traits@D@std@@V?$allocator@D@2@@std@@PAV?$map@_JKU?$less@_J@std@@V?$allocator@K@2@@2@@2@U_Kfn@?$map@V?$basic_string@DU?$char_traits@D@std@@V?$allocator@D@2@@std@@PAV?$map@_JKU?$less@_J@std@@V?$allocator@K@2@@2@U?$less@V?$basic_string@DU?$char_traits@D@std@@V?$allocator@D@2@@std@@@2@V?$allocator@PAV?$map@_JKU?$less@_J@std@@V?$allocator@K@2@@std@@@2@@2@U?$less@V?$basic_string@DU?$char_traits@D@std@@V?$allocator@D@2@@std@@@2@V?$allocator@PAV?$map@_JKU?$less@_J@std@@V?$allocator@K@2@@std@@@2@@std@@1PAU_Node@12@A 10031308     GameDataSet.obj
 0003:0000130c       ?_Nilrefs@?$_Tree@IU?$pair@$$CBIUDETAIL_INFO@CGameDataSetX@@@std@@U_Kfn@?$map@IUDETAIL_INFO@CGameDataSetX@@U?$less@I@std@@V?$allocator@UDETAIL_INFO@CGameDataSetX@@@4@@2@U?$less@I@2@V?$allocator@UDETAIL_INFO@CGameDataSetX@@@2@@std@@1IA 1003130c     GameDataSet.obj
 0003:00001310       ?_Nil@?$_Tree@IU?$pair@$$CBIUDETAIL_INFO@CGameDataSetX@@@std@@U_Kfn@?$map@IUDETAIL_INFO@CGameDataSetX@@U?$less@I@std@@V?$allocator@UDETAIL_INFO@CGameDataSetX@@@4@@2@U?$less@I@2@V?$allocator@UDETAIL_INFO@CGameDataSetX@@@2@@std@@1PAU_Node@12@A 10031310     GameDataSet.obj
 0003:00001314       ?_Nilrefs@?$_Tree@HU?$pair@$$CBHUC3_RES_LOD_DESC@CGameDataSetX@@@std@@U_Kfn@?$map@HUC3_RES_LOD_DESC@CGameDataSetX@@U?$less@H@std@@V?$allocator@UC3_RES_LOD_DESC@CGameDataSetX@@@4@@2@U?$less@H@2@V?$allocator@UC3_RES_LOD_DESC@CGameDataSetX@@@2@@std@@1IA 10031314     GameDataSet.obj
 0003:00001318       ?_Nil@?$_Tree@HU?$pair@$$CBHUC3_RES_LOD_DESC@CGameDataSetX@@@std@@U_Kfn@?$map@HUC3_RES_LOD_DESC@CGameDataSetX@@U?$less@H@std@@V?$allocator@UC3_RES_LOD_DESC@CGameDataSetX@@@4@@2@U?$less@H@2@V?$allocator@UC3_RES_LOD_DESC@CGameDataSetX@@@2@@std@@1PAU_Node@12@A 10031318     GameDataSet.obj
 0003:0000131c       ?_Nil@?$_Tree@_JU?$pair@$$CB_JPAUC3DMotionInfo@@@std@@U_Kfn@?$map@_JPAUC3DMotionInfo@@U?$less@_J@std@@V?$allocator@PAUC3DMotionInfo@@@3@@2@U?$less@_J@2@V?$allocator@PAUC3DMotionInfo@@@2@@std@@1PAU_Node@12@A 1003131c     GameDataSet.obj
 0003:00001320       ?_Nilrefs@?$_Tree@_JU?$pair@$$CB_JPAUC3DMotionInfo@@@std@@U_Kfn@?$map@_JPAUC3DMotionInfo@@U?$less@_J@std@@V?$allocator@PAUC3DMotionInfo@@@3@@2@U?$less@_J@2@V?$allocator@PAUC3DMotionInfo@@@2@@std@@1IA 10031320     GameDataSet.obj
 0003:00001324       ?_Nil@?$_Tree@IU?$pair@$$CBIURolePartInfo@@@std@@U_Kfn@?$map@IURolePartInfo@@U?$less@I@std@@V?$allocator@URolePartInfo@@@3@@2@U?$less@I@2@V?$allocator@URolePartInfo@@@2@@std@@1PAU_Node@12@A 10031324     GameDataSet.obj
 0003:00001328       ?_Nilrefs@?$_Tree@IU?$pair@$$CBIURolePartInfo@@@std@@U_Kfn@?$map@IURolePartInfo@@U?$less@I@std@@V?$allocator@URolePartInfo@@@3@@2@U?$less@I@2@V?$allocator@URolePartInfo@@@2@@std@@1IA 10031328     GameDataSet.obj
 0003:0000132c       ?_Nilrefs@?$_Tree@KU?$pair@$$CBKK@std@@U_Kfn@?$map@KKU?$less@K@std@@V?$allocator@K@2@@2@U?$less@K@2@V?$allocator@K@2@@std@@1IA 1003132c     GameDataSet.obj
 0003:00001330       ?_Nil@?$_Tree@KU?$pair@$$CBKK@std@@U_Kfn@?$map@KKU?$less@K@std@@V?$allocator@K@2@@2@U?$less@K@2@V?$allocator@K@2@@std@@1PAU_Node@12@A 10031330     GameDataSet.obj
 0003:0000167c       ?g_szResourceFolderPath@@3PADA 1003167c     GameDBConfig.obj
 0003:0000187c       ??_C@_00A@?$AA@            1003187c     GameDBConfig.obj
 0003:00001880       ?_Nilrefs@?$_Tree@_JU?$pair@$$CB_JK@std@@U_Kfn@?$map@_JKU?$less@_J@std@@V?$allocator@K@2@@2@U?$less@_J@2@V?$allocator@K@2@@std@@1IA 10031880     GameDBConfig.obj
 0003:00001884       ?_Nil@?$_Tree@_JU?$pair@$$CB_JK@std@@U_Kfn@?$map@_JKU?$less@_J@std@@V?$allocator@K@2@@2@U?$less@_J@2@V?$allocator@K@2@@std@@1PAU_Node@12@A 10031884     GameDBConfig.obj
 0003:00002fcc       ?_Nilrefs@?$_Tree@KU?$pair@$$CBKUPACK_FILE_ENTRY@@@std@@U_Kfn@?$map@KUPACK_FILE_ENTRY@@U?$less@K@std@@V?$allocator@UPACK_FILE_ENTRY@@@3@@2@U?$less@K@2@V?$allocator@UPACK_FILE_ENTRY@@@2@@std@@1IA 10032fcc     GameDBPack.obj
 0003:00002fd0       ?_Nil@?$_Tree@KU?$pair@$$CBKUPACK_FILE_ENTRY@@@std@@U_Kfn@?$map@KUPACK_FILE_ENTRY@@U?$less@K@std@@V?$allocator@UPACK_FILE_ENTRY@@@3@@2@U?$less@K@2@V?$allocator@UPACK_FILE_ENTRY@@@2@@std@@1PAU_Node@12@A 10032fd0     GameDBPack.obj
 0003:00002fd4       ?s_szError@CStrRes@@0PADA  10032fd4     StrRes.obj
 0003:000030d4       ?_Nilrefs@?$_Tree@IU?$pair@$$CBIPBD@std@@U_Kfn@?$map@IPBDU?$less@I@std@@V?$allocator@PBD@2@@2@U?$less@I@2@V?$allocator@PBD@2@@std@@1IA 100330d4     StrRes.obj
 0003:000030d8       ?_Nil@?$_Tree@IU?$pair@$$CBIPBD@std@@U_Kfn@?$map@IPBDU?$less@I@std@@V?$allocator@PBD@2@@2@U?$less@I@2@V?$allocator@PBD@2@@std@@1PAU_Node@12@A 100330d8     StrRes.obj
 0003:000030dc       ?_Nilrefs@?$_Tree@IU?$pair@$$CBIV?$basic_string@DU?$char_traits@D@std@@V?$allocator@D@2@@std@@@std@@U_Kfn@?$map@IV?$basic_string@DU?$char_traits@D@std@@V?$allocator@D@2@@std@@U?$less@I@2@V?$allocator@V?$basic_string@DU?$char_traits@D@std@@V?$allocator@D@2@@std@@@2@@2@U?$less@I@2@V?$allocator@V?$basic_string@DU?$char_traits@D@std@@V?$allocator@D@2@@std@@@2@@std@@1IA 100330dc     StrRes.obj
 0003:000030e0       ?_Nil@?$_Tree@IU?$pair@$$CBIV?$basic_string@DU?$char_traits@D@std@@V?$allocator@D@2@@std@@@std@@U_Kfn@?$map@IV?$basic_string@DU?$char_traits@D@std@@V?$allocator@D@2@@std@@U?$less@I@2@V?$allocator@V?$basic_string@DU?$char_traits@D@std@@V?$allocator@D@2@@std@@@2@@2@U?$less@I@2@V?$allocator@V?$basic_string@DU?$char_traits@D@std@@V?$allocator@D@2@@std@@@2@@std@@1PAU_Node@12@A 100330e0     StrRes.obj
 0003:000030e8       __adjust_fdiv              100330e8     <common>
 0003:000030ec       __pRawDllMain              100330ec     <common>
 0003:000030f0       ___onexitend               100330f0     <common>
 0003:000030f4       ___onexitbegin             100330f4     <common>

 entry point at        0001:0002a675

 Static symbols

 0001:00026100       _$E138                     10027100 f   GameDBPack.obj

Line numbers for .\Release\StrRes.obj(D:\Program Files\Microsoft Visual Studio\VC98\INCLUDE\xmemory) segment .text

    34 0001:0002a3c0

Line numbers for .\Release\StrRes.obj(D:\Program Files\Microsoft Visual Studio\VC98\INCLUDE\xtree) segment .text

   217 0001:00029090   220 0001:00029094   222 0001:000290af   223 0001:000290b9
   220 0001:000290c5   224 0001:000290c9   225 0001:000290d4   235 0001:0002924e
   226 0001:00029252   227 0001:00029254   229 0001:0002925c   230 0001:00029260
   235 0001:0002927f   232 0001:00029283   233 0001:00029290   234 0001:00029299
   235 0001:000292b8   261 0001:000292d0   262 0001:000292db   264 0001:000292e8
   265 0001:000292f0   266 0001:000292ff   268 0001:00029305   269 0001:00029307
   270 0001:0002931f   271 0001:00029329   272 0001:00029331   273 0001:00029336
   274 0001:0002933a   275 0001:00029340   276 0001:00029343   277 0001:00029345
   278 0001:0002934b   279 0001:00029350   280 0001:00029355   281 0001:0002935a
   282 0001:00029366   283 0001:00029369   284 0001:00029372   285 0001:00029374
   286 0001:00029376   287 0001:00029379   289 0001:0002937c   290 0001:0002938f
   291 0001:00029396   292 0001:00029399   293 0001:000293a8   294 0001:000293ab
   295 0001:000293b4   296 0001:000293b6   297 0001:000293b8   298 0001:000293bb
   300 0001:000293c6   301 0001:000293d0   302 0001:000293d5   303 0001:000293d7
   304 0001:000293f3   306 0001:000293fb   307 0001:00029407   308 0001:0002940a
   309 0001:0002940c   290 0001:00029421   310 0001:00029425   311 0001:00029437
   312 0001:0002944c   313 0001:00029455   314 0001:00029458   315 0001:0002945d
   316 0001:00029460   317 0001:00029466   318 0001:000294a4   320 0001:000294aa
   334 0001:000294c1   336 0001:000294c3   337 0001:000294c8   338 0001:000294cb
   339 0001:000294d1   340 0001:00029511   342 0001:00029516   343 0001:0002952d
   344 0001:00029533   358 0001:0002953f   324 0001:00029544   325 0001:0002954c
   327 0001:00029551   328 0001:00029591   329 0001:00029597   330 0001:000295a0
   331 0001:000295a6   332 0001:000295ac   333 0001:000295d7   332 0001:000295dc
   333 0001:000295e7   332 0001:000295ec   333 0001:000295f1   346 0001:000295f6
   347 0001:000295fd   349 0001:00029603   350 0001:00029641   351 0001:00029646
   352 0001:0002964f   353 0001:00029655   354 0001:0002965a   356 0001:0002969a
   357 0001:0002969d   358 0001:000296a7   359 0001:000296cf   360 0001:000296de
   361 0001:000296e1   444 0001:00029700   445 0001:00029714   446 0001:0002971f
   447 0001:00029721   448 0001:00029729   132 0001:00029750   134 0001:0002976f
   133 0001:0002977c   134 0001:0002979b   261 0001:000297b0   262 0001:000297bb
   264 0001:000297c8   265 0001:000297d0   266 0001:000297df   268 0001:000297e5
   269 0001:000297e7   270 0001:000297ff   271 0001:00029809   272 0001:00029811
   273 0001:00029816   274 0001:0002981a   275 0001:00029820   276 0001:00029823
   277 0001:00029825   278 0001:0002982b   279 0001:00029830   280 0001:00029835
   281 0001:0002983a   282 0001:00029846   283 0001:00029849   284 0001:00029852
   285 0001:00029854   286 0001:00029856   287 0001:00029859   289 0001:0002985c
   290 0001:0002986f   291 0001:00029876   292 0001:00029879   293 0001:00029888
   294 0001:0002988b   295 0001:00029894   296 0001:00029896   297 0001:00029898
   298 0001:0002989b   300 0001:000298a6   301 0001:000298b0   302 0001:000298b5
   303 0001:000298b7   304 0001:000298d3   306 0001:000298db   307 0001:000298e7
   308 0001:000298ea   309 0001:000298ec   290 0001:00029901   310 0001:00029905
   311 0001:00029915   312 0001:0002992c   313 0001:00029935   314 0001:00029938
   315 0001:0002993d   316 0001:00029940   317 0001:00029946   318 0001:00029984
   320 0001:0002998a   334 0001:000299a1   336 0001:000299a3   337 0001:000299a8
   338 0001:000299ab   339 0001:000299b1   340 0001:000299f1   342 0001:000299f6
   343 0001:00029a0d   344 0001:00029a13   324 0001:00029a24   325 0001:00029a2c
   327 0001:00029a31   328 0001:00029a71   329 0001:00029a77   330 0001:00029a80
   331 0001:00029a86   332 0001:00029a8c   333 0001:00029ab7   332 0001:00029abc
   333 0001:00029ac7   332 0001:00029acc   333 0001:00029ad1   346 0001:00029ad6
   347 0001:00029add   349 0001:00029ae3   350 0001:00029b21   351 0001:00029b26
   352 0001:00029b2f   353 0001:00029b35   354 0001:00029b3a   356 0001:00029b7a
   357 0001:00029b7d   359 0001:00029b87   360 0001:00029b91   361 0001:00029b94
   401 0001:00029bb0   444 0001:00029bf0   445 0001:00029c04   446 0001:00029c0f
   448 0001:00029c11   132 0001:00029c30   134 0001:00029c4f   133 0001:00029c5c
   134 0001:00029c7b   462 0001:00029c90   464 0001:00029ca1   465 0001:00029ccc
   467 0001:00029ccf   475 0001:00029cf4   476 0001:00029cf7   477 0001:00029cff
   468 0001:00029d04   469 0001:00029d06   470 0001:00029d0d   471 0001:00029d10
   472 0001:00029d16   473 0001:00029d1c   479 0001:00029d1e   480 0001:00029d3a
   481 0001:00029d47   482 0001:00029d4a   483 0001:00029d4f   484 0001:00029d57
   485 0001:00029d5a   486 0001:00029d63   487 0001:00029d69   488 0001:00029d6e
   489 0001:00029d73   490 0001:00029d75   491 0001:00029db0   492 0001:00029dba
   493 0001:00029dc3   494 0001:00029df2   493 0001:00029df7   494 0001:00029e05
   493 0001:00029e0a   494 0001:00029e0f   496 0001:00029e14   497 0001:00029e19
   498 0001:00029e21   499 0001:00029e24   500 0001:00029e2d   501 0001:00029e33
   502 0001:00029e38   503 0001:00029e3c   504 0001:00029e3e   505 0001:00029e7b
   506 0001:00029e85   507 0001:00029e8e   508 0001:00029edb   509 0001:00029eea
   511 0001:00029f00   513 0001:00029f03   514 0001:00029f11   515 0001:00029f1c
   516 0001:00029f1f   517 0001:00029f21   513 0001:00029f25   518 0001:00029f2a
   524 0001:00029f30   525 0001:00029f38   526 0001:00029f3d   527 0001:00029f47
   528 0001:00029f4a   529 0001:00029f50   530 0001:00029f58   535 0001:00029f5b
   536 0001:00029f5d   531 0001:00029f64   532 0001:00029f6b   535 0001:00029f6d
   536 0001:00029f6f   534 0001:00029f76   535 0001:00029f79   536 0001:00029f7b
   554 0001:00029f90   555 0001:00029f97   556 0001:00029f9c   557 0001:00029fa7
   558 0001:00029faa   559 0001:00029fb0   560 0001:00029fb8   565 0001:00029fbb
   566 0001:00029fbe   561 0001:00029fc5   562 0001:00029fcd   565 0001:00029fd0
   566 0001:00029fd3   564 0001:00029fda   565 0001:00029fdc   566 0001:00029fdf
   462 0001:00029ff0   464 0001:0002a001   465 0001:0002a02c   467 0001:0002a02f
   475 0001:0002a054   476 0001:0002a057   477 0001:0002a05f   468 0001:0002a064
   469 0001:0002a066   470 0001:0002a06d   471 0001:0002a070   472 0001:0002a076
   473 0001:0002a07c   479 0001:0002a07e   480 0001:0002a09a   481 0001:0002a0a7
   482 0001:0002a0aa   483 0001:0002a0af   484 0001:0002a0b7   485 0001:0002a0ba
   486 0001:0002a0c3   487 0001:0002a0c9   488 0001:0002a0ce   489 0001:0002a0d3
   490 0001:0002a0d5   491 0001:0002a110   492 0001:0002a11a   493 0001:0002a123
   494 0001:0002a152   493 0001:0002a157   494 0001:0002a165   493 0001:0002a16a
   494 0001:0002a16f   496 0001:0002a174   497 0001:0002a179   498 0001:0002a181
   499 0001:0002a184   500 0001:0002a18d   501 0001:0002a193   502 0001:0002a198
   503 0001:0002a19c   504 0001:0002a19e   505 0001:0002a1db   506 0001:0002a1e5
   507 0001:0002a1ee   508 0001:0002a23b   509 0001:0002a24a    92 0001:0002a260
    94 0001:0002a272   101 0001:0002a276    95 0001:0002a279    96 0001:0002a285
   101 0001:0002a298    99 0001:0002a299   100 0001:0002a2a2   101 0001:0002a2ad
   103 0001:0002a2c0   104 0001:0002a2d0   110 0001:0002a2e1   107 0001:0002a2e2
   108 0001:0002a2ec   109 0001:0002a2f8   110 0001:0002a2ff    92 0001:0002a310
    94 0001:0002a322   101 0001:0002a326    95 0001:0002a329    96 0001:0002a335
   101 0001:0002a348    99 0001:0002a349   100 0001:0002a352   101 0001:0002a35d
   103 0001:0002a370   104 0001:0002a380   110 0001:0002a391   107 0001:0002a392
   108 0001:0002a39c   109 0001:0002a3a8   110 0001:0002a3af

Line numbers for .\Release\StrRes.obj(D:\Program Files\Microsoft Visual Studio\VC98\INCLUDE\map) segment .text

    93 0001:00028f30    94 0001:00028ff4    93 0001:00029012    94 0001:00029018

Line numbers for .\Release\StrRes.obj(F:\cygwin\home\Administrator\Projects\C3Engine_Windows_GL2\GraphicData\StrRes.cpp) segment .text

    10 0001:00028210    13 0001:00028350    16 0001:00028480    17 0001:000284aa
    18 0001:000284af    21 0001:00028770    23 0001:0002877a    25 0001:00028798
    26 0001:000287ad    28 0001:000287b5    29 0001:000287c2    31 0001:000287cb
    32 0001:000287d2    33 0001:000287db    34 0001:000287e9    36 0001:000287ed
    37 0001:000287f4    38 0001:000287fe    78 0001:00028811   109 0001:00028817
    43 0001:0002881e    49 0001:00028828    51 0001:0002882e    59 0001:00028843
    61 0001:0002884f    63 0001:00028859    66 0001:0002885b    68 0001:00028862
    69 0001:0002886c   109 0001:00028872    73 0001:00028879    74 0001:00028880
    76 0001:00028888    77 0001:00028898    78 0001:000288a5   109 0001:000288a8
    82 0001:000288af    83 0001:000288b1    84 0001:000288c3    86 0001:000288ca
    87 0001:000288db    88 0001:000288e5   109 0001:000288eb    93 0001:000288f2
    94 0001:000288f7    97 0001:0002890e   101 0001:00028a48   104 0001:00028a5a
   107 0001:00028a69   108 0001:00028a6d   109 0001:00028a73   112 0001:00028a80
   114 0001:00028a86   116 0001:00028aa7   117 0001:00028ac1   119 0001:00028ac5
   120 0001:00028adb   152 0001:00028add   123 0001:00028ae4   126 0001:00028b01
   129 0001:00028b21   130 0001:00028b2f   132 0001:00028b33   134 0001:00028b40
   137 0001:00028b43   140 0001:00028b4a   141 0001:00028b5c   144 0001:00028b60
   146 0001:00028b6e   149 0001:00028c23   151 0001:00028c2d   152 0001:00028c33
   155 0001:00028c40   156 0001:00028c48   157 0001:00028ce5   160 0001:00028d77
   162 0001:00028d7e   163 0001:00028d88   165 0001:00028d93   168 0001:00028da0
   169 0001:00028da7   171 0001:00028dac   172 0001:00028de6   174 0001:00028ded
   189 0001:00028df2   178 0001:00028df8   179 0001:00028e2b   181 0001:00028e32
   189 0001:00028e40   186 0001:00028e46   187 0001:00028e5a   189 0001:00028e61
   192 0001:00028e70   195 0001:00028e82   197 0001:00028ed0   195 0001:00028ed3
   197 0001:00028ee5   195 0001:00028ee8   197 0001:00028f2c

Line numbers for .\Release\GraphicData.obj(F:\cygwin\home\Administrator\Projects\C3Engine_Windows_GL2\GraphicData\GraphicData.cpp) segment .text

     5 0001:00028200     7 0001:00028205

Line numbers for .\Release\GameDBPack.obj(D:\Program Files\Microsoft Visual Studio\VC98\INCLUDE\xmemory) segment .text

    34 0001:000281e0

Line numbers for .\Release\GameDBPack.obj(D:\Program Files\Microsoft Visual Studio\VC98\INCLUDE\xtree) segment .text

   363 0001:000275a0   368 0001:000275c0   369 0001:000275ef   370 0001:000275f5
   371 0001:00027607   364 0001:00027619   365 0001:0002761d   366 0001:00027661
   371 0001:0002766b   103 0001:00027670   104 0001:00027680   110 0001:00027691
   107 0001:00027692   108 0001:0002769c   109 0001:000276a8   110 0001:000276af
   217 0001:000276c0   220 0001:000276c4   222 0001:000276df   223 0001:000276e9
   220 0001:000276f5   224 0001:000276f9   225 0001:00027704   235 0001:0002787e
   226 0001:00027882   227 0001:00027884   229 0001:0002788c   230 0001:00027890
   235 0001:000278af   232 0001:000278b3   233 0001:000278c0   234 0001:000278c9
   235 0001:000278e8   261 0001:00027900   262 0001:0002790b   264 0001:00027918
   265 0001:00027920   266 0001:0002792f   268 0001:00027935   269 0001:00027937
   270 0001:0002794f   271 0001:00027959   272 0001:00027961   273 0001:00027966
   274 0001:0002796a   275 0001:00027970   276 0001:00027973   277 0001:00027975
   278 0001:0002797b   279 0001:00027980   280 0001:00027985   281 0001:0002798a
   282 0001:00027996   283 0001:00027999   284 0001:000279a2   285 0001:000279a4
   286 0001:000279a6   287 0001:000279a9   289 0001:000279ac   290 0001:000279bf
   291 0001:000279c6   292 0001:000279c9   293 0001:000279d8   294 0001:000279db
   295 0001:000279e4   296 0001:000279e6   297 0001:000279e8   298 0001:000279eb
   300 0001:000279f6   301 0001:00027a00   302 0001:00027a05   303 0001:00027a07
   304 0001:00027a23   306 0001:00027a2b   307 0001:00027a37   308 0001:00027a3a
   309 0001:00027a3c   290 0001:00027a51   310 0001:00027a55   311 0001:00027a65
   312 0001:00027a7c   313 0001:00027a85   314 0001:00027a88   315 0001:00027a8d
   316 0001:00027a90   317 0001:00027a96   318 0001:00027ad4   320 0001:00027ada
   334 0001:00027af1   336 0001:00027af3   337 0001:00027af8   338 0001:00027afb
   339 0001:00027b01   340 0001:00027b41   342 0001:00027b46   343 0001:00027b5d
   344 0001:00027b63   324 0001:00027b74   325 0001:00027b7c   327 0001:00027b81
   328 0001:00027bc1   329 0001:00027bc7   330 0001:00027bd0   331 0001:00027bd6
   332 0001:00027bdc   333 0001:00027c07   332 0001:00027c0c   333 0001:00027c17
   332 0001:00027c1c   333 0001:00027c21   346 0001:00027c26   347 0001:00027c2d
   349 0001:00027c33   350 0001:00027c71   351 0001:00027c76   352 0001:00027c7f
   353 0001:00027c85   354 0001:00027c8a   356 0001:00027cca   357 0001:00027ccd
   359 0001:00027cd7   360 0001:00027ce1   361 0001:00027ce4   399 0001:00027d00
   444 0001:00027d40   445 0001:00027d54   446 0001:00027d5f   448 0001:00027d61
   542 0001:00027d80   543 0001:00027d90   544 0001:00027d98   132 0001:00027da0
   134 0001:00027dbf   133 0001:00027dcc   134 0001:00027deb   462 0001:00027e00
   464 0001:00027e11   465 0001:00027e3c   467 0001:00027e3f   475 0001:00027e64
   476 0001:00027e67   477 0001:00027e6f   468 0001:00027e74   469 0001:00027e76
   470 0001:00027e7d   471 0001:00027e80   472 0001:00027e86   473 0001:00027e8c
   479 0001:00027e8e   480 0001:00027eaa   481 0001:00027eb7   482 0001:00027eba
   483 0001:00027ebf   484 0001:00027ec7   485 0001:00027eca   486 0001:00027ed3
   487 0001:00027ed9   488 0001:00027ede   489 0001:00027ee3   490 0001:00027ee5
   491 0001:00027f20   492 0001:00027f2a   493 0001:00027f33   494 0001:00027f62
   493 0001:00027f67   494 0001:00027f75   493 0001:00027f7a   494 0001:00027f7f
   496 0001:00027f84   497 0001:00027f89   498 0001:00027f91   499 0001:00027f94
   500 0001:00027f9d   501 0001:00027fa3   502 0001:00027fa8   503 0001:00027fac
   504 0001:00027fae   505 0001:00027feb   506 0001:00027ff5   507 0001:00027ffe
   508 0001:0002804b   509 0001:0002805a   511 0001:00028070   513 0001:00028073
   514 0001:00028081   515 0001:0002808c   516 0001:0002808f   517 0001:00028091
   513 0001:00028095   518 0001:0002809a   524 0001:000280a0   525 0001:000280a8
   526 0001:000280ad   527 0001:000280b7   528 0001:000280ba   529 0001:000280c0
   530 0001:000280c8   535 0001:000280cb   536 0001:000280cd   531 0001:000280d4
   532 0001:000280db   535 0001:000280dd   536 0001:000280df   534 0001:000280e6
   535 0001:000280e9   536 0001:000280eb   554 0001:00028100   555 0001:00028107
   556 0001:0002810c   557 0001:00028117   558 0001:0002811a   559 0001:00028120
   560 0001:00028128   565 0001:0002812b   566 0001:0002812e   561 0001:00028135
   562 0001:0002813d   565 0001:00028140   566 0001:00028143   564 0001:0002814a
   565 0001:0002814c   566 0001:0002814f   577 0001:00028160   579 0001:00028167
   580 0001:0002816b   581 0001:00028178    92 0001:00028180    94 0001:00028192
   101 0001:00028196    95 0001:00028199    96 0001:000281a5   101 0001:000281b8
    99 0001:000281b9   100 0001:000281c2   101 0001:000281cd

Line numbers for .\Release\GameDBPack.obj(F:\cygwin\home\Administrator\Projects\C3Engine_Windows_GL2\GraphicData\HashKey.cpp) segment .text

    12 0001:000273e0    17 0001:000273ed    20 0001:000273f7    22 0001:000273fe
    25 0001:00027408    26 0001:0002742f    28 0001:00027436    31 0001:0002744d
    34 0001:00027457    37 0001:00027460    44 0001:0002747f    46 0001:00027481
    48 0001:0002749e    49 0001:000274b0    51 0001:000274c1    54 0001:000274d0
    61 0001:000274f0    62 0001:000274f2    66 0001:000274fa    68 0001:00027532
    75 0001:00027540    81 0001:00027547    83 0001:0002755c    85 0001:00027569
    86 0001:00027579    89 0001:0002758e    90 0001:00027594    89 0001:00027595
    90 0001:0002759a

Line numbers for .\Release\GameDBPack.obj(F:\cygwin\home\Administrator\Projects\C3Engine_Windows_GL2\GraphicData\GameDBPack.cpp) segment .text

    53 0001:00025e00    54 0001:00025ec0    55 0001:00025ec5    58 0001:00025fd0
    59 0001:00025fd6    62 0001:000260c0    64 0001:000260ed    65 0001:000260f2
    69 0001:00026110    73 0001:00026128    74 0001:00026156    76 0001:00026178
    77 0001:0002617a    79 0001:00026184    81 0001:00026192    82 0001:000261b8
    83 0001:000261bb    85 0001:00026215    87 0001:00026229    88 0001:0002624f
    89 0001:00026252    93 0001:000262c5    95 0001:000262d3    97 0001:000262fd
   100 0001:00026400   102 0001:00026415   105 0001:00026420   107 0001:0002643b
   110 0001:00026468   111 0001:00026479   116 0001:00026491   118 0001:000264bc
   121 0001:000264e5   123 0001:000264ef   124 0001:000264f6   125 0001:00026500
   130 0001:00026505   131 0001:00026512   134 0001:00026525   142 0001:00026544
   144 0001:00026553   255 0001:000265cb   160 0001:00026633   171 0001:00026656
   173 0001:0002665b   185 0001:00026674   186 0001:00026677   136 0001:0002667e
   137 0001:00026693   138 0001:0002669d   189 0001:000266a2   191 0001:000266aa
   192 0001:000266b5   196 0001:000266ba   197 0001:000266d5   198 0001:000266f8
   200 0001:0002670b   203 0001:00026719   204 0001:0002672f   206 0001:00026737
   207 0001:00026745   208 0001:00026754   213 0001:00026759   216 0001:00026771
   217 0001:00026788   220 0001:000267b0   225 0001:00026845   227 0001:00026868
   228 0001:0002687e   231 0001:00026892   232 0001:0002689d   233 0001:000268d9
   236 0001:000268f4   237 0001:00026903   239 0001:0002691f   240 0001:0002692c
   243 0001:0002695c   244 0001:0002696a   247 0001:0002699a   251 0001:000269a1
   253 0001:000269b0   255 0001:000269ca   276 0001:000269f4   277 0001:00026a05
   280 0001:00026a0d   281 0001:00026a1a   282 0001:00026a21   284 0001:00026a2a
   285 0001:00026a36   286 0001:00026a56   287 0001:00026a80   291 0001:00026a87
   292 0001:00026a96   295 0001:00026aa8   296 0001:00026ae1   299 0001:00026b2a
   300 0001:00026b6d   303 0001:00026bf3   306 0001:00026bfa   308 0001:00026c0d
   312 0001:00026c2b   258 0001:00026c4a   260 0001:00026c58   262 0001:00026c65
   265 0001:00026c6f   267 0001:00026c7f   268 0001:00026c89   269 0001:00026c97
   270 0001:00026caf   318 0001:00026d1c   319 0001:00026d27   321 0001:00026d3b
   322 0001:00026d4a   323 0001:00026d5b   319 0001:00026d8d   326 0001:00026daf
   327 0001:00026db3   330 0001:00026dc5   331 0001:00026dd4   334 0001:00026de4
   337 0001:00026ded   339 0001:00026df8   344 0001:00026dfe   345 0001:00026e16
   346 0001:00026e3c   348 0001:00026e4f   352 0001:00026e67   379 0001:00026e93
   380 0001:00026e9e   355 0001:00026f33   358 0001:00026f4d   361 0001:00026f57
   363 0001:00026f70   366 0001:00026f86   371 0001:00027015   372 0001:00027027
   373 0001:00027031   374 0001:0002703c   382 0001:000270b8   385 0001:000270e0
   386 0001:000270e9   389 0001:000270ee   390 0001:0002710b   392 0001:00027120
   393 0001:0002712a   396 0001:00027140   397 0001:00027148   398 0001:0002715e
   418 0001:00027188   400 0001:0002718e   401 0001:0002719d   402 0001:000271d2
   404 0001:000271d9   406 0001:000271eb   408 0001:000271f9   410 0001:000271fe
   414 0001:00027217   418 0001:0002721a   417 0001:00027220   418 0001:00027226
   421 0001:00027230   422 0001:00027238   444 0001:0002725a   446 0001:0002725f
   424 0001:00027265   425 0001:00027278   426 0001:000272ad   427 0001:000272b2
   430 0001:000272b4   432 0001:000272bf   443 0001:000272c8   444 0001:000272d1
   446 0001:000272d6   436 0001:000272dc   437 0001:000272eb   439 0001:00027305
   446 0001:00027308   443 0001:0002730e   444 0001:00027322   446 0001:00027325
   449 0001:00027330   450 0001:00027338   452 0001:0002733e   453 0001:00027348
   455 0001:0002734e   456 0001:000273b1   455 0001:000273b5   456 0001:000273dc

Line numbers for .\Release\GameDBConfig.obj(D:\Program Files\Microsoft Visual Studio\VC98\INCLUDE\xmemory) segment .text

    34 0001:000250f0    34 0001:00025260    34 0001:00025280    34 0001:000253e0
    34 0001:00025540    34 0001:00025600    34 0001:00025790    34 0001:000257b0
    34 0001:00025940    34 0001:00025970    34 0001:00025b30    34 0001:00025c90

Line numbers for .\Release\GameDBConfig.obj(D:\Program Files\Microsoft Visual Studio\VC98\INCLUDE\vector) segment .text

   156 0001:0001efb0   157 0001:0001efe2   158 0001:0001f024   159 0001:0001f03e
   160 0001:0001f073   161 0001:0001f096   162 0001:0001f0e9   163 0001:0001f0ec
   164 0001:0001f0f6   165 0001:0001f10e   166 0001:0001f131   176 0001:0001f145
   167 0001:0001f14b   168 0001:0001f16c   169 0001:0001f1b4   170 0001:0001f1f3
   171 0001:0001f212   176 0001:0001f21c   172 0001:0001f228   173 0001:0001f230
   174 0001:0001f275   175 0001:0001f29f   176 0001:0001f2c2   156 0001:0001fce0
   157 0001:0001fd02   158 0001:0001fd25   159 0001:0001fd38   160 0001:0001fd68
   161 0001:0001fd8e   162 0001:0001fdc5   163 0001:0001fde0   164 0001:0001fde9
   165 0001:0001fdf1   166 0001:0001fe05   176 0001:0001fe16   165 0001:0001fe1c
   166 0001:0001fe1f   176 0001:0001fe35   167 0001:0001fe3b   168 0001:0001fe4e
   169 0001:0001fe8c   170 0001:0001feb6   176 0001:0001fee7   172 0001:0001fef7
   173 0001:0001feff   174 0001:0001ff2e   175 0001:0001ff5f   176 0001:0001ff8f
   114 0001:00023f70   234 0001:00023f90   235 0001:00023fa1   236 0001:00023fb4
   238 0001:00023fc0   239 0001:00023fd3

Line numbers for .\Release\GameDBConfig.obj(D:\Program Files\Microsoft Visual Studio\VC98\INCLUDE\utility) segment .text

    21 0001:0001d860    21 0001:0001da50    21 0001:0001ddf0

Line numbers for .\Release\GameDBConfig.obj(D:\Program Files\Microsoft Visual Studio\VC98\INCLUDE\map) segment .text

    93 0001:0001d130    94 0001:0001d32c    96 0001:0001d760    97 0001:0001d7b8
    96 0001:0001d7cb    97 0001:0001d7eb    96 0001:0001d7fe    97 0001:0001d82e
    96 0001:0001dcf0    97 0001:0001dd48    96 0001:0001dd5b    97 0001:0001dd7b
    96 0001:0001dd8e    97 0001:0001ddbe    57 0001:0001dfb0    96 0001:0001e2b0
    97 0001:0001e307    96 0001:0001e31a    97 0001:0001e339    96 0001:0001e34c
    97 0001:0001e374

Line numbers for .\Release\GameDBConfig.obj(D:\Program Files\Microsoft Visual Studio\VC98\INCLUDE\deque) segment .text

   280 0001:0001ce30   281 0001:0001ce38   286 0001:0001ce51   288 0001:0001ce56
   289 0001:0001ce6b   293 0001:0001ced5   289 0001:0001ceee   293 0001:0001cf34
   289 0001:0001cf43   293 0001:0001cfb2   292 0001:0001cfc1   293 0001:0001cfd2
   283 0001:0001cfe1   284 0001:0001d0fd   293 0001:0001d112   497 0001:00020700
   500 0001:0002071f   501 0001:0002074b   502 0001:00020757   503 0001:0002075a
   504 0001:0002075d    43 0001:000237f0

Line numbers for .\Release\GameDBConfig.obj(D:\Program Files\Microsoft Visual Studio\VC98\INCLUDE\xtree) segment .text

   174 0001:0001cd50   175 0001:0001cdda   176 0001:0001cde6   178 0001:0001cdec
   179 0001:0001cdf8   180 0001:0001ce05   181 0001:0001ce0b   182 0001:0001ce1b
   183 0001:0001ce1f   384 0001:0001d6d0   387 0001:0001d70f   384 0001:0001d9c0
   387 0001:0001d9ff   174 0001:0001dc10   175 0001:0001dc9a   176 0001:0001dca6
   178 0001:0001dcac   179 0001:0001dcb8   180 0001:0001dcc5   181 0001:0001dccb
   182 0001:0001dcdb   183 0001:0001dcdf   217 0001:0001e060   220 0001:0001e067
   222 0001:0001e07d   223 0001:0001e08d   220 0001:0001e099   224 0001:0001e0a1
   225 0001:0001e0ac   234 0001:0001e22a   235 0001:0001e22f   227 0001:0001e233
   229 0001:0001e23b   230 0001:0001e242   232 0001:0001e24c   233 0001:0001e255
   234 0001:0001e26b   235 0001:0001e28a   160 0001:0001e3a0   363 0001:0001e3d0
   368 0001:0001e3f0   369 0001:0001e41f   370 0001:0001e425   371 0001:0001e437
   364 0001:0001e449   365 0001:0001e44d   366 0001:0001e491   371 0001:0001e49b
   384 0001:0001e4a0   387 0001:0001e4df   384 0001:0001e530   387 0001:0001e55f
   363 0001:0001e5a0   368 0001:0001e5c0   369 0001:0001e5ef   370 0001:0001e5f5
   371 0001:0001e607   364 0001:0001e619   365 0001:0001e61d   366 0001:0001e661
   371 0001:0001e66b   217 0001:0001e940   220 0001:0001e944   222 0001:0001e95f
   223 0001:0001e969   220 0001:0001e975   224 0001:0001e979   225 0001:0001e984
   235 0001:0001eafe   226 0001:0001eb02   227 0001:0001eb04   229 0001:0001eb0c
   230 0001:0001eb10   235 0001:0001eb2f   232 0001:0001eb33   233 0001:0001eb40
   234 0001:0001eb49   235 0001:0001eb68   524 0001:0001eb80   525 0001:0001eb88
   526 0001:0001eb8d   527 0001:0001eb97   528 0001:0001eb9a   529 0001:0001eba0
   530 0001:0001eba8   535 0001:0001ebab   536 0001:0001ebad   531 0001:0001ebb4
   532 0001:0001ebbb   535 0001:0001ebbd   536 0001:0001ebbf   534 0001:0001ebc6
   535 0001:0001ebc9   536 0001:0001ebcb   554 0001:0001ebe0   555 0001:0001ebe7
   556 0001:0001ebec   557 0001:0001ebf7   558 0001:0001ebfa   559 0001:0001ec00
   560 0001:0001ec08   565 0001:0001ec0b   566 0001:0001ec0e   561 0001:0001ec15
   562 0001:0001ec1d   565 0001:0001ec20   566 0001:0001ec23   564 0001:0001ec2a
   565 0001:0001ec2c   566 0001:0001ec2f   217 0001:0001ec40   220 0001:0001ec47
   222 0001:0001ec5d   223 0001:0001ec6d   220 0001:0001ec79   224 0001:0001ec81
   225 0001:0001ec8c   234 0001:0001ee0a   235 0001:0001ee0f   227 0001:0001ee13
   229 0001:0001ee1b   230 0001:0001ee22   232 0001:0001ee2c   233 0001:0001ee35
   234 0001:0001ee4b   235 0001:0001ee6a   401 0001:0001ee90   524 0001:0001eef0
   525 0001:0001eef8   526 0001:0001eefd   527 0001:0001ef07   528 0001:0001ef0a
   529 0001:0001ef10   530 0001:0001ef18   535 0001:0001ef1b   536 0001:0001ef1d
   531 0001:0001ef24   532 0001:0001ef2b   535 0001:0001ef2d   536 0001:0001ef2f
   534 0001:0001ef36   535 0001:0001ef39   536 0001:0001ef3b   554 0001:0001ef50
   555 0001:0001ef57   556 0001:0001ef5c   557 0001:0001ef67   558 0001:0001ef6a
   559 0001:0001ef70   560 0001:0001ef78   565 0001:0001ef7b   566 0001:0001ef7e
   561 0001:0001ef85   562 0001:0001ef8d   565 0001:0001ef90   566 0001:0001ef93
   564 0001:0001ef9a   565 0001:0001ef9c   566 0001:0001ef9f   217 0001:0001f2d0
   220 0001:0001f2d7   222 0001:0001f2ed   223 0001:0001f2fd   220 0001:0001f309
   224 0001:0001f311   225 0001:0001f31c   234 0001:0001f49a   235 0001:0001f49f
   227 0001:0001f4a3   229 0001:0001f4ab   230 0001:0001f4b2   232 0001:0001f4bc
   233 0001:0001f4c5   234 0001:0001f4db   235 0001:0001f4fa   401 0001:0001f520
   217 0001:0001f580   220 0001:0001f587   222 0001:0001f59d   223 0001:0001f5ad
   220 0001:0001f5b9   224 0001:0001f5c1   225 0001:0001f5cc   234 0001:0001f74a
   235 0001:0001f74f   227 0001:0001f753   229 0001:0001f75b   230 0001:0001f762
   232 0001:0001f76c   233 0001:0001f775   234 0001:0001f78b   235 0001:0001f7aa
   160 0001:0001f7d0   217 0001:0001f800   220 0001:0001f804   222 0001:0001f81f
   223 0001:0001f829   220 0001:0001f835   224 0001:0001f839   225 0001:0001f844
   235 0001:0001f9e8   226 0001:0001f9ec   227 0001:0001f9ee   229 0001:0001f9f6
   230 0001:0001f9fa   235 0001:0001fa19   232 0001:0001fa1d   233 0001:0001fa2a
   234 0001:0001fa33   235 0001:0001fa52   217 0001:0001fa70   220 0001:0001fa74
   222 0001:0001fa8f   223 0001:0001faa4   220 0001:0001fab0   224 0001:0001fab8
   225 0001:0001fac3   235 0001:0001fc49   226 0001:0001fc4d   227 0001:0001fc4f
   229 0001:0001fc57   230 0001:0001fc5b   235 0001:0001fc7a   232 0001:0001fc7e
   233 0001:0001fc8b   234 0001:0001fca0   235 0001:0001fcbf   363 0001:0001ffa0
   368 0001:0001ffc0   369 0001:0001fffa   370 0001:00020003   371 0001:00020015
   364 0001:00020024   365 0001:00020028   366 0001:0002006c   371 0001:00020076
   462 0001:00020080   464 0001:00020091   465 0001:000200bc   467 0001:000200bf
   475 0001:000200ed   476 0001:000200f0   477 0001:000200f8   468 0001:000200fd
   469 0001:000200ff   470 0001:00020106   471 0001:00020109   472 0001:0002010f
   473 0001:00020115   479 0001:00020117   480 0001:00020133   481 0001:00020140
   482 0001:00020143   483 0001:00020148   484 0001:00020150   485 0001:00020153
   486 0001:0002015c   487 0001:00020162   488 0001:00020167   489 0001:0002016c
   490 0001:0002016e   491 0001:000201a9   492 0001:000201b3   493 0001:000201bc
   494 0001:000201eb   493 0001:000201f0   494 0001:000201fe   493 0001:00020203
   494 0001:00020208   496 0001:0002020d   497 0001:00020212   498 0001:0002021a
   499 0001:0002021d   500 0001:00020226   501 0001:0002022c   502 0001:00020231
   503 0001:00020235   504 0001:00020237   505 0001:00020274   506 0001:0002027e
   507 0001:00020287   508 0001:000202d4   509 0001:000202e3   401 0001:000202f0
   217 0001:00020330   220 0001:00020334   222 0001:0002034f   223 0001:00020359
   220 0001:00020365   224 0001:00020369   225 0001:00020374   235 0001:000204ee
   226 0001:000204f2   227 0001:000204f4   229 0001:000204fc   230 0001:00020500
   235 0001:0002051f   232 0001:00020523   233 0001:00020530   234 0001:00020539
   235 0001:00020558   424 0001:00020570   425 0001:000205f3   426 0001:000205fd
   427 0001:00020610   428 0001:00020620   430 0001:00020643   450 0001:00020660
   451 0001:00020675   452 0001:0002068b   453 0001:00020693   455 0001:00020699
   456 0001:000206a5   457 0001:000206bc   458 0001:000206c0   459 0001:000206c9
   460 0001:000206e2   217 0001:00020770   220 0001:00020777   222 0001:0002078d
   223 0001:0002079d   220 0001:000207a9   224 0001:000207b1   225 0001:000207bc
   234 0001:0002093a   235 0001:0002093f   227 0001:00020943   229 0001:0002094b
   230 0001:00020952   232 0001:0002095c   233 0001:00020965   234 0001:0002097b
   235 0001:0002099a   217 0001:000209c0   220 0001:000209c4   222 0001:000209df
   223 0001:000209e9   220 0001:000209f5   224 0001:000209f9   225 0001:00020a04
   235 0001:00020b7e   226 0001:00020b82   227 0001:00020b84   229 0001:00020b8c
   230 0001:00020b90   235 0001:00020baf   232 0001:00020bb3   233 0001:00020bc0
   234 0001:00020bc9   235 0001:00020be8   217 0001:00020c00   220 0001:00020c04
   222 0001:00020c1f   223 0001:00020c29   220 0001:00020c35   224 0001:00020c39
   225 0001:00020c44   235 0001:00020dbe   226 0001:00020dc2   227 0001:00020dc4
   229 0001:00020dcc   230 0001:00020dd0   235 0001:00020def   232 0001:00020df3
   233 0001:00020e00   234 0001:00020e09   235 0001:00020e28   542 0001:00020e40
   543 0001:00020e50   544 0001:00020e58   217 0001:00020e60   220 0001:00020e64
   222 0001:00020e7f   223 0001:00020e94   220 0001:00020ea0   224 0001:00020ea8
   225 0001:00020eb3   235 0001:00021039   226 0001:0002103d   227 0001:0002103f
   229 0001:00021047   230 0001:0002104b   235 0001:0002106a   232 0001:0002106e
   233 0001:0002107b   234 0001:00021090   235 0001:000210af   261 0001:000210d0
   262 0001:000210db   264 0001:000210e8   265 0001:000210f0   266 0001:000210ff
   268 0001:00021105   269 0001:00021107   270 0001:0002111f   271 0001:00021129
   272 0001:00021131   273 0001:00021136   274 0001:0002113a   275 0001:00021140
   276 0001:00021143   277 0001:00021145   278 0001:0002114b   279 0001:00021150
   280 0001:00021155   281 0001:0002115a   282 0001:00021166   283 0001:00021169
   284 0001:00021172   285 0001:00021174   286 0001:00021176   287 0001:00021179
   289 0001:0002117c   290 0001:0002118f   291 0001:00021196   292 0001:00021199
   293 0001:000211a8   294 0001:000211ab   295 0001:000211b4   296 0001:000211b6
   297 0001:000211b8   298 0001:000211bb   300 0001:000211c6   301 0001:000211d0
   302 0001:000211d5   303 0001:000211d7   304 0001:000211f3   306 0001:000211fb
   307 0001:00021207   308 0001:0002120a   309 0001:0002120c   290 0001:00021221
   310 0001:00021225   311 0001:00021235   312 0001:0002124c   313 0001:00021255
   314 0001:00021258   315 0001:0002125d   316 0001:00021260   317 0001:00021266
   318 0001:000212a4   320 0001:000212aa   334 0001:000212c1   336 0001:000212c3
   337 0001:000212c8   338 0001:000212cb   339 0001:000212d1   340 0001:00021311
   342 0001:00021316   343 0001:0002132d   344 0001:00021333   324 0001:00021344
   325 0001:0002134c   327 0001:00021351   328 0001:00021391   329 0001:00021397
   330 0001:000213a0   331 0001:000213a6   332 0001:000213ac   333 0001:000213d7
   332 0001:000213dc   333 0001:000213e7   332 0001:000213ec   333 0001:000213f1
   346 0001:000213f6   347 0001:000213fd   349 0001:00021403   350 0001:00021441
   351 0001:00021446   352 0001:0002144f   353 0001:00021455   354 0001:0002145a
   356 0001:0002149a   357 0001:0002149d   359 0001:000214a7   360 0001:000214b1
   361 0001:000214b4   444 0001:000214d0   445 0001:000214e4   446 0001:000214ef
   448 0001:000214f1   450 0001:00021510   451 0001:00021525   452 0001:0002153b
   453 0001:00021543   455 0001:00021549   456 0001:00021555   457 0001:0002156c
   458 0001:00021570   459 0001:00021579   460 0001:00021592   462 0001:000215b0
   464 0001:000215c1   465 0001:000215ec   467 0001:000215ef   475 0001:00021614
   476 0001:00021617   477 0001:0002161f   468 0001:00021624   469 0001:00021626
   470 0001:0002162d   471 0001:00021630   472 0001:00021636   473 0001:0002163c
   479 0001:0002163e   480 0001:0002165a   481 0001:00021667   482 0001:0002166a
   483 0001:0002166f   484 0001:00021677   485 0001:0002167a   486 0001:00021683
   487 0001:00021689   488 0001:0002168e   489 0001:00021693   490 0001:00021695
   491 0001:000216d0   492 0001:000216da   493 0001:000216e3   494 0001:00021712
   493 0001:00021717   494 0001:00021725   493 0001:0002172a   494 0001:0002172f
   496 0001:00021734   497 0001:00021739   498 0001:00021741   499 0001:00021744
   500 0001:0002174d   501 0001:00021753   502 0001:00021758   503 0001:0002175c
   504 0001:0002175e   505 0001:0002179b   506 0001:000217a5   507 0001:000217ae
   508 0001:000217fb   509 0001:0002180a   511 0001:00021820   513 0001:00021823
   514 0001:00021831   515 0001:0002183c   516 0001:0002183f   517 0001:00021841
   513 0001:00021845   518 0001:0002184a   462 0001:00021850   464 0001:00021864
   465 0001:00021892   467 0001:00021895   475 0001:000218ba   476 0001:000218bd
   477 0001:000218c5   468 0001:000218ca   469 0001:000218cc   470 0001:000218d3
   471 0001:000218d6   472 0001:000218dc   473 0001:000218e2   479 0001:000218e4
   480 0001:00021903   481 0001:00021910   482 0001:00021913   483 0001:0002191b
   484 0001:00021926   485 0001:0002192c   486 0001:00021938   487 0001:0002193e
   488 0001:00021943   489 0001:00021948   490 0001:0002194a   491 0001:00021985
   492 0001:00021992   493 0001:0002199e   494 0001:000219cd   493 0001:000219d2
   494 0001:000219e0   493 0001:000219e5   494 0001:000219ea   496 0001:000219ef
   497 0001:000219f7   498 0001:00021a02   499 0001:00021a08   500 0001:00021a14
   501 0001:00021a1a   502 0001:00021a1f   503 0001:00021a23   504 0001:00021a25
   505 0001:00021a62   506 0001:00021a6f   507 0001:00021a7b   508 0001:00021ac8
   509 0001:00021ada   511 0001:00021af0   513 0001:00021af3   514 0001:00021b01
   515 0001:00021b0c   516 0001:00021b0f   517 0001:00021b11   513 0001:00021b15
   518 0001:00021b1a   462 0001:00021b20   464 0001:00021b31   465 0001:00021b5c
   467 0001:00021b5f   475 0001:00021b8d   476 0001:00021b90   477 0001:00021b98
   468 0001:00021b9d   469 0001:00021b9f   470 0001:00021ba6   471 0001:00021ba9
   472 0001:00021baf   473 0001:00021bb5   479 0001:00021bb7   480 0001:00021bd3
   481 0001:00021be0   482 0001:00021be3   483 0001:00021be8   484 0001:00021bf0
   485 0001:00021bf3   486 0001:00021bfc   487 0001:00021c02   488 0001:00021c07
   489 0001:00021c0c   490 0001:00021c0e   491 0001:00021c49   492 0001:00021c53
   493 0001:00021c5c   494 0001:00021c8b   493 0001:00021c90   494 0001:00021c9e
   493 0001:00021ca3   494 0001:00021ca8   496 0001:00021cad   497 0001:00021cb2
   498 0001:00021cba   499 0001:00021cbd   500 0001:00021cc6   501 0001:00021ccc
   502 0001:00021cd1   503 0001:00021cd5   504 0001:00021cd7   505 0001:00021d14
   506 0001:00021d1e   507 0001:00021d27   508 0001:00021d74   509 0001:00021d83
   462 0001:00021d90   464 0001:00021da1   465 0001:00021dcc   467 0001:00021dcf
   475 0001:00021dfd   476 0001:00021e00   477 0001:00021e08   468 0001:00021e0d
   469 0001:00021e0f   470 0001:00021e16   471 0001:00021e19   472 0001:00021e1f
   473 0001:00021e25   479 0001:00021e27   480 0001:00021e43   481 0001:00021e50
   482 0001:00021e53   483 0001:00021e58   484 0001:00021e60   485 0001:00021e63
   486 0001:00021e6c   487 0001:00021e72   488 0001:00021e77   489 0001:00021e7c
   490 0001:00021e7e   491 0001:00021eb9   492 0001:00021ec3   493 0001:00021ecc
   494 0001:00021efb   493 0001:00021f00   494 0001:00021f0e   493 0001:00021f13
   494 0001:00021f18   496 0001:00021f1d   497 0001:00021f22   498 0001:00021f2a
   499 0001:00021f2d   500 0001:00021f36   501 0001:00021f3c   502 0001:00021f41
   503 0001:00021f45   504 0001:00021f47   505 0001:00021f84   506 0001:00021f8e
   507 0001:00021f97   508 0001:00021fe4   509 0001:00021ff3   432 0001:00022000
   433 0001:0002200c   434 0001:00022021   435 0001:0002202d   436 0001:0002203e
   437 0001:00022042   438 0001:00022050   439 0001:00022060   440 0001:0002206e
   441 0001:00022073   442 0001:00022075   441 0001:00022080   442 0001:00022087
   462 0001:00022090   464 0001:000220a1   465 0001:000220cc   467 0001:000220cf
   475 0001:000220fd   476 0001:00022100   477 0001:00022108   468 0001:0002210d
   469 0001:0002210f   470 0001:00022116   471 0001:00022119   472 0001:0002211f
   473 0001:00022125   479 0001:00022127   480 0001:00022143   481 0001:00022150
   482 0001:00022153   483 0001:00022158   484 0001:00022160   485 0001:00022163
   486 0001:0002216c   487 0001:00022172   488 0001:00022177   489 0001:0002217c
   490 0001:0002217e   491 0001:000221b9   492 0001:000221c3   493 0001:000221cc
   494 0001:000221fb   493 0001:00022200   494 0001:0002220e   493 0001:00022213
   494 0001:00022218   496 0001:0002221d   497 0001:00022222   498 0001:0002222a
   499 0001:0002222d   500 0001:00022236   501 0001:0002223c   502 0001:00022241
   503 0001:00022245   504 0001:00022247   505 0001:00022284   506 0001:0002228e
   507 0001:00022297   508 0001:000222e4   509 0001:000222f3   538 0001:00022300
   539 0001:00022311   540 0001:0002231a   577 0001:00022320   579 0001:00022327
   580 0001:0002232b   581 0001:00022338   462 0001:00022340   464 0001:00022351
   465 0001:0002237c   467 0001:0002237f   475 0001:000223ad   476 0001:000223b0
   477 0001:000223b8   468 0001:000223bd   469 0001:000223bf   470 0001:000223c6
   471 0001:000223c9   472 0001:000223cf   473 0001:000223d5   479 0001:000223d7
   480 0001:000223f3   481 0001:00022400   482 0001:00022403   483 0001:00022408
   484 0001:00022410   485 0001:00022413   486 0001:0002241c   487 0001:00022422
   488 0001:00022427   489 0001:0002242c   490 0001:0002242e   491 0001:00022469
   492 0001:00022473   493 0001:0002247c   494 0001:000224ab   493 0001:000224b0
   494 0001:000224be   493 0001:000224c3   494 0001:000224c8   496 0001:000224cd
   497 0001:000224d2   498 0001:000224da   499 0001:000224dd   500 0001:000224e6
   501 0001:000224ec   502 0001:000224f1   503 0001:000224f5   504 0001:000224f7
   505 0001:00022534   506 0001:0002253e   507 0001:00022547   508 0001:00022594
   509 0001:000225a3   511 0001:000225b0   512 0001:000225b5   513 0001:000225ba
   514 0001:000225cf   515 0001:000225dd   516 0001:000225e0   517 0001:000225e2
   518 0001:000225ef   424 0001:00022600   425 0001:0002268c   426 0001:00022696
   427 0001:000226a9   428 0001:000226b9   430 0001:000226dc   450 0001:00022700
   451 0001:00022718   452 0001:00022731   453 0001:00022739   455 0001:0002273f
   456 0001:0002274b   457 0001:00022762   458 0001:00022766   459 0001:0002276f
   460 0001:0002278e   462 0001:000227a0   464 0001:000227b4   465 0001:000227e2
   467 0001:000227e5   475 0001:0002280a   476 0001:0002280d   477 0001:00022815
   468 0001:0002281a   469 0001:0002281c   470 0001:00022823   471 0001:00022826
   472 0001:0002282c   473 0001:00022832   479 0001:00022834   480 0001:00022853
   481 0001:00022860   482 0001:00022863   483 0001:0002286b   484 0001:00022876
   485 0001:0002287c   486 0001:00022888   487 0001:0002288e   488 0001:00022893
   489 0001:00022898   490 0001:0002289a   491 0001:000228d5   492 0001:000228e2
   493 0001:000228ee   494 0001:0002291d   493 0001:00022922   494 0001:00022930
   493 0001:00022935   494 0001:0002293a   496 0001:0002293f   497 0001:00022947
   498 0001:00022952   499 0001:00022958   500 0001:00022964   501 0001:0002296a
   502 0001:0002296f   503 0001:00022973   504 0001:00022975   505 0001:000229b2
   506 0001:000229bf   507 0001:000229cb   508 0001:00022a18   509 0001:00022a2a
   511 0001:00022a40   513 0001:00022a43   514 0001:00022a51   515 0001:00022a5c
   516 0001:00022a5f   517 0001:00022a61   513 0001:00022a65   518 0001:00022a6a
   462 0001:00022a70   464 0001:00022a81   465 0001:00022aac   467 0001:00022aaf
   475 0001:00022add   476 0001:00022ae0   477 0001:00022ae8   468 0001:00022aed
   469 0001:00022aef   470 0001:00022af6   471 0001:00022af9   472 0001:00022aff
   473 0001:00022b05   479 0001:00022b07   480 0001:00022b23   481 0001:00022b30
   482 0001:00022b33   483 0001:00022b38   484 0001:00022b40   485 0001:00022b43
   486 0001:00022b4c   487 0001:00022b52   488 0001:00022b57   489 0001:00022b5c
   490 0001:00022b5e   491 0001:00022b99   492 0001:00022ba3   493 0001:00022bac
   494 0001:00022bdb   493 0001:00022be0   494 0001:00022bee   493 0001:00022bf3
   494 0001:00022bf8   496 0001:00022bfd   497 0001:00022c02   498 0001:00022c0a
   499 0001:00022c0d   500 0001:00022c16   501 0001:00022c1c   502 0001:00022c21
   503 0001:00022c25   504 0001:00022c27   505 0001:00022c64   506 0001:00022c6e
   507 0001:00022c77   508 0001:00022cc4   509 0001:00022cd3   424 0001:00022ce0
   425 0001:00022d63   426 0001:00022d6d   427 0001:00022d80   428 0001:00022d90
   430 0001:00022db3   462 0001:00022dd0   464 0001:00022de1   465 0001:00022e0c
   467 0001:00022e0f   475 0001:00022e40   476 0001:00022e43   477 0001:00022e4b
   468 0001:00022e50   469 0001:00022e52   470 0001:00022e59   471 0001:00022e5c
   472 0001:00022e62   473 0001:00022e68   479 0001:00022e6a   480 0001:00022e86
   481 0001:00022e93   482 0001:00022e96   483 0001:00022e9b   484 0001:00022ea3
   485 0001:00022ea6   486 0001:00022eaf   487 0001:00022eb5   488 0001:00022eba
   489 0001:00022ebf   490 0001:00022ec1   491 0001:00022efc   492 0001:00022f06
   493 0001:00022f0f   494 0001:00022f3e   493 0001:00022f43   494 0001:00022f51
   493 0001:00022f56   494 0001:00022f5b   496 0001:00022f60   497 0001:00022f65
   498 0001:00022f6d   499 0001:00022f70   500 0001:00022f79   501 0001:00022f7f
   502 0001:00022f84   503 0001:00022f88   504 0001:00022f8a   505 0001:00022fc7
   506 0001:00022fd1   507 0001:00022fda   508 0001:00023027   509 0001:00023036
   524 0001:00023050   525 0001:00023058   526 0001:0002305d   527 0001:00023067
   528 0001:0002306a   529 0001:00023070   530 0001:00023078   535 0001:0002307b
   536 0001:0002307d   531 0001:00023084   532 0001:0002308b   535 0001:0002308d
   536 0001:0002308f   534 0001:00023096   535 0001:00023099   536 0001:0002309b
   554 0001:000230b0   555 0001:000230b7   556 0001:000230bc   557 0001:000230c7
   558 0001:000230ca   559 0001:000230d0   560 0001:000230d8   565 0001:000230db
   566 0001:000230de   561 0001:000230e5   562 0001:000230ed   565 0001:000230f0
   566 0001:000230f3   564 0001:000230fa   565 0001:000230fc   566 0001:000230ff
    92 0001:00023110    94 0001:00023122   101 0001:00023126    95 0001:00023129
    96 0001:00023135   101 0001:00023148    99 0001:00023149   100 0001:00023152
   101 0001:0002315d   462 0001:00023170   464 0001:00023181   465 0001:000231ac
   467 0001:000231af   475 0001:000231d4   476 0001:000231d7   477 0001:000231df
   468 0001:000231e4   469 0001:000231e6   470 0001:000231ed   471 0001:000231f0
   472 0001:000231f6   473 0001:000231fc   479 0001:000231fe   480 0001:0002321a
   481 0001:00023227   482 0001:0002322a   483 0001:0002322f   484 0001:00023237
   485 0001:0002323a   486 0001:00023243   487 0001:00023249   488 0001:0002324e
   489 0001:00023253   490 0001:00023255   491 0001:00023290   492 0001:0002329a
   493 0001:000232a3   494 0001:000232d2   493 0001:000232d7   494 0001:000232e5
   493 0001:000232ea   494 0001:000232ef   496 0001:000232f4   497 0001:000232f9
   498 0001:00023301   499 0001:00023304   500 0001:0002330d   501 0001:00023313
   502 0001:00023318   503 0001:0002331c   504 0001:0002331e   505 0001:0002335b
   506 0001:00023365   507 0001:0002336e   508 0001:000233bb   509 0001:000233ca
   432 0001:000233e0   433 0001:000233ec   434 0001:00023401   435 0001:0002340d
   436 0001:0002341e   437 0001:00023422   438 0001:00023433   439 0001:00023445
   440 0001:0002344e   441 0001:00023455   442 0001:00023457   441 0001:00023462
   442 0001:00023469   462 0001:00023470   464 0001:00023481   465 0001:000234ac
   467 0001:000234af   475 0001:000234d4   476 0001:000234d7   477 0001:000234df
   468 0001:000234e4   469 0001:000234e6   470 0001:000234ed   471 0001:000234f0
   472 0001:000234f6   473 0001:000234fc   479 0001:000234fe   480 0001:0002351a
   481 0001:00023527   482 0001:0002352a   483 0001:0002352f   484 0001:00023537
   485 0001:0002353a   486 0001:00023543   487 0001:00023549   488 0001:0002354e
   489 0001:00023553   490 0001:00023555   491 0001:00023590   492 0001:0002359a
   493 0001:000235a3   494 0001:000235d2   493 0001:000235d7   494 0001:000235e5
   493 0001:000235ea   494 0001:000235ef   496 0001:000235f4   497 0001:000235f9
   498 0001:00023601   499 0001:00023604   500 0001:0002360d   501 0001:00023613
   502 0001:00023618   503 0001:0002361c   504 0001:0002361e   505 0001:0002365b
   506 0001:00023665   507 0001:0002366e   508 0001:000236bb   509 0001:000236ca
   511 0001:000236e0   513 0001:000236e3   514 0001:000236f1   515 0001:000236fc
   516 0001:000236ff   517 0001:00023701   513 0001:00023705   518 0001:0002370a
   524 0001:00023710   525 0001:00023718   526 0001:0002371d   527 0001:00023727
   528 0001:0002372a   529 0001:00023730   530 0001:00023738   535 0001:0002373b
   536 0001:0002373d   531 0001:00023744   532 0001:0002374b   535 0001:0002374d
   536 0001:0002374f   534 0001:00023756   535 0001:00023759   536 0001:0002375b
   542 0001:00023770   543 0001:00023780   544 0001:00023788   554 0001:00023790
   555 0001:00023797   556 0001:0002379c   557 0001:000237a7   558 0001:000237aa
   559 0001:000237b0   560 0001:000237b8   565 0001:000237bb   566 0001:000237be
   561 0001:000237c5   562 0001:000237cd   565 0001:000237d0   566 0001:000237d3
   564 0001:000237da   565 0001:000237dc   566 0001:000237df   462 0001:00023820
   464 0001:00023831   465 0001:0002385c   467 0001:0002385f   475 0001:0002388d
   476 0001:00023890   477 0001:00023898   468 0001:0002389d   469 0001:0002389f
   470 0001:000238a6   471 0001:000238a9   472 0001:000238af   473 0001:000238b5
   479 0001:000238b7   480 0001:000238d3   481 0001:000238e0   482 0001:000238e3
   483 0001:000238e8   484 0001:000238f0   485 0001:000238f3   486 0001:000238fc
   487 0001:00023902   488 0001:00023907   489 0001:0002390c   490 0001:0002390e
   491 0001:00023949   492 0001:00023953   493 0001:0002395c   494 0001:0002398b
   493 0001:00023990   494 0001:0002399e   493 0001:000239a3   494 0001:000239a8
   496 0001:000239ad   497 0001:000239b2   498 0001:000239ba   499 0001:000239bd
   500 0001:000239c6   501 0001:000239cc   502 0001:000239d1   503 0001:000239d5
   504 0001:000239d7   505 0001:00023a14   506 0001:00023a1e   507 0001:00023a27
   508 0001:00023a74   509 0001:00023a83   462 0001:00023a90   464 0001:00023aa1
   465 0001:00023acc   467 0001:00023acf   475 0001:00023af4   476 0001:00023af7
   477 0001:00023aff   468 0001:00023b04   469 0001:00023b06   470 0001:00023b0d
   471 0001:00023b10   472 0001:00023b16   473 0001:00023b1c   479 0001:00023b1e
   480 0001:00023b3a   481 0001:00023b47   482 0001:00023b4a   483 0001:00023b4f
   484 0001:00023b57   485 0001:00023b5a   486 0001:00023b63   487 0001:00023b69
   488 0001:00023b6e   489 0001:00023b73   490 0001:00023b75   491 0001:00023bb0
   492 0001:00023bba   493 0001:00023bc3   494 0001:00023bf2   493 0001:00023bf7
   494 0001:00023c05   493 0001:00023c0a   494 0001:00023c0f   496 0001:00023c14
   497 0001:00023c19   498 0001:00023c21   499 0001:00023c24   500 0001:00023c2d
   501 0001:00023c33   502 0001:00023c38   503 0001:00023c3c   504 0001:00023c3e
   505 0001:00023c7b   506 0001:00023c85   507 0001:00023c8e   508 0001:00023cdb
   509 0001:00023cea   462 0001:00023d00   464 0001:00023d11   465 0001:00023d3c
   467 0001:00023d3f   475 0001:00023d64   476 0001:00023d67   477 0001:00023d6f
   468 0001:00023d74   469 0001:00023d76   470 0001:00023d7d   471 0001:00023d80
   472 0001:00023d86   473 0001:00023d8c   479 0001:00023d8e   480 0001:00023daa
   481 0001:00023db7   482 0001:00023dba   483 0001:00023dbf   484 0001:00023dc7
   485 0001:00023dca   486 0001:00023dd3   487 0001:00023dd9   488 0001:00023dde
   489 0001:00023de3   490 0001:00023de5   491 0001:00023e20   492 0001:00023e2a
   493 0001:00023e33   494 0001:00023e62   493 0001:00023e67   494 0001:00023e75
   493 0001:00023e7a   494 0001:00023e7f   496 0001:00023e84   497 0001:00023e89
   498 0001:00023e91   499 0001:00023e94   500 0001:00023e9d   501 0001:00023ea3
   502 0001:00023ea8   503 0001:00023eac   504 0001:00023eae   505 0001:00023eeb
   506 0001:00023ef5   507 0001:00023efe   508 0001:00023f4b   509 0001:00023f5a
   462 0001:00023ff0   464 0001:00024001   465 0001:0002402c   467 0001:0002402f
   475 0001:00024060   476 0001:00024063   477 0001:0002406b   468 0001:00024070
   469 0001:00024072   470 0001:00024079   471 0001:0002407c   472 0001:00024082
   473 0001:00024088   479 0001:0002408a   480 0001:000240a6   481 0001:000240b3
   482 0001:000240b6   483 0001:000240bb   484 0001:000240c3   485 0001:000240c6
   486 0001:000240cf   487 0001:000240d5   488 0001:000240da   489 0001:000240df
   490 0001:000240e1   491 0001:0002411c   492 0001:00024126   493 0001:0002412f
   494 0001:0002415e   493 0001:00024163   494 0001:00024171   493 0001:00024176
   494 0001:0002417b   496 0001:00024180   497 0001:00024185   498 0001:0002418d
   499 0001:00024190   500 0001:00024199   501 0001:0002419f   502 0001:000241a4
   503 0001:000241a8   504 0001:000241aa   505 0001:000241e7   506 0001:000241f1
   507 0001:000241fa   508 0001:00024247   509 0001:00024256   511 0001:00024270
   513 0001:00024274   514 0001:00024281   515 0001:0002429c   516 0001:0002429f
   517 0001:000242a1   513 0001:000242a5   518 0001:000242ac   524 0001:000242b0
   525 0001:000242b8   526 0001:000242bd   527 0001:000242c7   528 0001:000242ca
   529 0001:000242d0   530 0001:000242d8   535 0001:000242db   536 0001:000242dd
   531 0001:000242e4   532 0001:000242eb   535 0001:000242ed   536 0001:000242ef
   534 0001:000242f6   535 0001:000242f9   536 0001:000242fb   542 0001:00024310
   543 0001:00024320   544 0001:00024328   554 0001:00024330   555 0001:00024337
   556 0001:0002433c   557 0001:00024347   558 0001:0002434a   559 0001:00024350
   560 0001:00024358   565 0001:0002435b   566 0001:0002435e   561 0001:00024365
   562 0001:0002436d   565 0001:00024370   566 0001:00024373   564 0001:0002437a
   565 0001:0002437c   566 0001:0002437f    92 0001:00024390    94 0001:000243a2
   101 0001:000243a6    95 0001:000243a9    96 0001:000243b5   101 0001:000243c8
    99 0001:000243c9   100 0001:000243d2   101 0001:000243dd    92 0001:000243f0
    94 0001:00024405   101 0001:00024409    95 0001:0002440c    96 0001:00024418
   101 0001:0002442b    99 0001:0002442c   100 0001:00024435   101 0001:00024440
    92 0001:00024450    94 0001:00024462   101 0001:00024466    95 0001:00024469
    96 0001:00024475   101 0001:00024488    99 0001:00024489   100 0001:00024492
   101 0001:0002449d   524 0001:000244b0   525 0001:000244b8   526 0001:000244bd
   527 0001:000244c7   528 0001:000244ca   529 0001:000244d0   530 0001:000244d8
   535 0001:000244db   536 0001:000244dd   531 0001:000244e4   532 0001:000244eb
   535 0001:000244ed   536 0001:000244ef   534 0001:000244f6   535 0001:000244f9
   536 0001:000244fb   554 0001:00024510   555 0001:00024517   556 0001:0002451c
   557 0001:00024527   558 0001:0002452a   559 0001:00024530   560 0001:00024538
   565 0001:0002453b   566 0001:0002453e   561 0001:00024545   562 0001:0002454d
   565 0001:00024550   566 0001:00024553   564 0001:0002455a   565 0001:0002455c
   566 0001:0002455f    92 0001:00024570    94 0001:00024582   101 0001:00024586
    95 0001:00024589    96 0001:00024595   101 0001:000245a8    99 0001:000245a9
   100 0001:000245b2   101 0001:000245bd    92 0001:000245d0    94 0001:000245e2
   101 0001:000245e6    95 0001:000245e9    96 0001:000245f5   101 0001:00024608
    99 0001:00024609   100 0001:00024612   101 0001:0002461d   524 0001:00024630
   525 0001:00024638   526 0001:0002463d   527 0001:00024647   528 0001:0002464a
   529 0001:00024650   530 0001:00024658   535 0001:0002465b   536 0001:0002465d
   531 0001:00024664   532 0001:0002466b   535 0001:0002466d   536 0001:0002466f
   534 0001:00024676   535 0001:00024679   536 0001:0002467b   554 0001:00024690
   555 0001:00024697   556 0001:0002469c   557 0001:000246a7   558 0001:000246aa
   559 0001:000246b0   560 0001:000246b8   565 0001:000246bb   566 0001:000246be
   561 0001:000246c5   562 0001:000246cd   565 0001:000246d0   566 0001:000246d3
   564 0001:000246da   565 0001:000246dc   566 0001:000246df   577 0001:000246f0
   579 0001:000246f7   580 0001:000246fb   581 0001:00024708   432 0001:00024710
   433 0001:00024711   434 0001:0002472c   435 0001:00024745   436 0001:00024752
   437 0001:00024758   438 0001:00024766   439 0001:0002477e   440 0001:00024782
   441 0001:00024794   442 0001:0002479a   441 0001:000247a2   442 0001:000247a8
   524 0001:000247b0   525 0001:000247b8   526 0001:000247bd   527 0001:000247c7
   528 0001:000247ca   529 0001:000247d0   530 0001:000247d8   535 0001:000247db
   536 0001:000247dd   531 0001:000247e4   532 0001:000247eb   535 0001:000247ed
   536 0001:000247ef   534 0001:000247f6   535 0001:000247f9   536 0001:000247fb
   554 0001:00024810   555 0001:00024817   556 0001:0002481c   557 0001:00024827
   558 0001:0002482a   559 0001:00024830   560 0001:00024838   565 0001:0002483b
   566 0001:0002483e   561 0001:00024845   562 0001:0002484d   565 0001:00024850
   566 0001:00024853   564 0001:0002485a   565 0001:0002485c   566 0001:0002485f
   577 0001:00024870   579 0001:0002487a   580 0001:0002487e   581 0001:0002488e
    92 0001:000248a0    94 0001:000248b5   101 0001:000248b9    95 0001:000248bc
    96 0001:000248c8   101 0001:000248db    99 0001:000248dc   100 0001:000248e5
   101 0001:000248f0    92 0001:00024900    94 0001:00024912   101 0001:00024916
    95 0001:00024919    96 0001:00024925   101 0001:00024938    99 0001:00024939
   100 0001:00024942   101 0001:0002494d   432 0001:00024960   433 0001:0002496c
   434 0001:00024981   435 0001:0002498d   436 0001:0002499e   437 0001:000249a2
   438 0001:000249b3   439 0001:000249d4   440 0001:000249dd   441 0001:000249e4
   442 0001:000249e6   441 0001:000249f1   442 0001:000249f8   524 0001:00024a00
   525 0001:00024a08   526 0001:00024a0d   527 0001:00024a17   528 0001:00024a1a
   529 0001:00024a20   530 0001:00024a28   535 0001:00024a2b   536 0001:00024a2d
   531 0001:00024a34   532 0001:00024a3b   535 0001:00024a3d   536 0001:00024a3f
   534 0001:00024a46   535 0001:00024a49   536 0001:00024a4b   554 0001:00024a60
   555 0001:00024a67   556 0001:00024a6c   557 0001:00024a77   558 0001:00024a7a
   559 0001:00024a80   560 0001:00024a88   565 0001:00024a8b   566 0001:00024a8e
   561 0001:00024a95   562 0001:00024a9d   565 0001:00024aa0   566 0001:00024aa3
   564 0001:00024aaa   565 0001:00024aac   566 0001:00024aaf   577 0001:00024ac0
   579 0001:00024ac7   580 0001:00024acb   581 0001:00024ad8    92 0001:00024ae0
    94 0001:00024af2   101 0001:00024af6    95 0001:00024af9    96 0001:00024b05
   101 0001:00024b18    99 0001:00024b19   100 0001:00024b22   101 0001:00024b2d
    92 0001:00024b40    94 0001:00024b52   101 0001:00024b56    95 0001:00024b59
    96 0001:00024b65   101 0001:00024b78    99 0001:00024b79   100 0001:00024b82
   101 0001:00024b8d   542 0001:00024ba0   543 0001:00024bb0   544 0001:00024bb8
    92 0001:00024bc0    94 0001:00024bd2   101 0001:00024bd6    95 0001:00024bd9
    96 0001:00024be5   101 0001:00024bf8    99 0001:00024bf9   100 0001:00024c02
   101 0001:00024c0d    92 0001:00024c20    94 0001:00024c32   101 0001:00024c36
    95 0001:00024c39    96 0001:00024c45   101 0001:00024c58    99 0001:00024c59
   100 0001:00024c62   101 0001:00024c6d   524 0001:00024c80   525 0001:00024c88
   526 0001:00024c8d   527 0001:00024c97   528 0001:00024c9a   529 0001:00024ca0
   530 0001:00024ca8   535 0001:00024cab   536 0001:00024cad   531 0001:00024cb4
   532 0001:00024cbb   535 0001:00024cbd   536 0001:00024cbf   534 0001:00024cc6
   535 0001:00024cc9   536 0001:00024ccb   554 0001:00024ce0   555 0001:00024ce7
   556 0001:00024cec   557 0001:00024cf7   558 0001:00024cfa   559 0001:00024d00
   560 0001:00024d08   565 0001:00024d0b   566 0001:00024d0e   561 0001:00024d15
   562 0001:00024d1d   565 0001:00024d20   566 0001:00024d23   564 0001:00024d2a
   565 0001:00024d2c   566 0001:00024d2f   577 0001:00024d40   579 0001:00024d47
   580 0001:00024d4b   581 0001:00024d58    92 0001:00024d60    94 0001:00024d72
   101 0001:00024d76    95 0001:00024d79    96 0001:00024d85   101 0001:00024d98
    99 0001:00024d99   100 0001:00024da2   101 0001:00024dad   524 0001:00024dc0
   525 0001:00024dc8   526 0001:00024dcd   527 0001:00024dd7   528 0001:00024dda
   529 0001:00024de0   530 0001:00024de8   535 0001:00024deb   536 0001:00024ded
   531 0001:00024df4   532 0001:00024dfb   535 0001:00024dfd   536 0001:00024dff
   534 0001:00024e06   535 0001:00024e09   536 0001:00024e0b   554 0001:00024e20
   555 0001:00024e27   556 0001:00024e2c   557 0001:00024e37   558 0001:00024e3a
   559 0001:00024e40   560 0001:00024e48   565 0001:00024e4b   566 0001:00024e4e
   561 0001:00024e55   562 0001:00024e5d   565 0001:00024e60   566 0001:00024e63
   564 0001:00024e6a   565 0001:00024e6c   566 0001:00024e6f   577 0001:00024e80
   579 0001:00024e87   580 0001:00024e8b   581 0001:00024e98    92 0001:00024ea0
    94 0001:00024eb2   101 0001:00024eb6    95 0001:00024eb9    96 0001:00024ec5
   101 0001:00024ed8    99 0001:00024ed9   100 0001:00024ee2   101 0001:00024eed
   524 0001:00024f00   525 0001:00024f08   526 0001:00024f0d   527 0001:00024f17
   528 0001:00024f1a   529 0001:00024f20   530 0001:00024f28   535 0001:00024f2b
   536 0001:00024f2d   531 0001:00024f34   532 0001:00024f3b   535 0001:00024f3d
   536 0001:00024f3f   534 0001:00024f46   535 0001:00024f49   536 0001:00024f4b
   554 0001:00024f60   555 0001:00024f67   556 0001:00024f6c   557 0001:00024f77
   558 0001:00024f7a   559 0001:00024f80   560 0001:00024f88   565 0001:00024f8b
   566 0001:00024f8e   561 0001:00024f95   562 0001:00024f9d   565 0001:00024fa0
   566 0001:00024fa3   564 0001:00024faa   565 0001:00024fac   566 0001:00024faf
   577 0001:00024fc0   579 0001:00024fc7   580 0001:00024fcb   581 0001:00024fd8
    92 0001:00024fe0    94 0001:00024ff2   101 0001:00024ff6    95 0001:00024ff9
    96 0001:00025005   101 0001:00025018    99 0001:00025019   100 0001:00025022
   101 0001:0002502d    92 0001:00025040    94 0001:00025052   101 0001:00025056
    95 0001:00025059    96 0001:00025065   101 0001:00025078    99 0001:00025079
   100 0001:00025082   101 0001:0002508d   103 0001:000250a0   104 0001:000250b0
   110 0001:000250c1   107 0001:000250c2   108 0001:000250cc   109 0001:000250d8
   110 0001:000250df

Line numbers for .\Release\GameDBConfig.obj(F:\cygwin\home\Administrator\Projects\C3Engine_Windows_GL2\GraphicData\GameDBConfig.cpp) segment .text

    17 0001:00018120    18 0001:00018126    19 0001:00018137    22 0001:00018160
    23 0001:00018176    24 0001:0001818b    26 0001:0001818f    27 0001:0001819d
    40 0001:000181a2    30 0001:000181ab    33 0001:000181d6    36 0001:000181ee
    38 0001:000181fd    39 0001:00018207    40 0001:0001820c    43 0001:00018220
    44 0001:00018228    48 0001:00018234    50 0001:0001823b    44 0001:00018271
    53 0001:00018292    54 0001:00018308    53 0001:0001830c    54 0001:00018333
    58 0001:00018340    59 0001:00018344    62 0001:00018357    63 0001:00018366
    68 0001:0001836e    70 0001:0001837e    77 0001:0001838d    79 0001:00018395
    81 0001:0001839b    84 0001:0001839d    86 0001:000183a4   125 0001:000183a5
   127 0001:000183b2    91 0001:000183b8    92 0001:000183bf    94 0001:000183c3
    95 0001:000183cf   127 0001:000183dd   100 0001:000183e3   101 0001:000183e5
   102 0001:000183f5   104 0001:000183f9   105 0001:0001840a   127 0001:00018418
   110 0001:0001841e   111 0001:00018421   112 0001:00018424   110 0001:00018431
   115 0001:00018433   119 0001:00018473   122 0001:00018484   125 0001:000185f1
   127 0001:00018603   130 0001:00018610   131 0001:00018614   134 0001:00018627
   135 0001:00018636   137 0001:0001863a   200 0001:0001864d   141 0001:00018653
   143 0001:00018663   150 0001:00018672   152 0001:0001867a   154 0001:00018680
   157 0001:00018682   159 0001:00018689   198 0001:0001868a   200 0001:00018697
   164 0001:0001869d   165 0001:000186a7   167 0001:000186ab   168 0001:000186b7
   200 0001:000186c5   173 0001:000186cb   174 0001:000186cd   175 0001:000186dd
   177 0001:000186e1   178 0001:000186f2   200 0001:00018700   184 0001:00018706
   185 0001:0001870c   183 0001:0001871c   188 0001:0001871e   192 0001:00018763
   195 0001:00018774   198 0001:000188e1   200 0001:000188f3   234 0001:00018900
   235 0001:00018919   236 0001:0001892a   239 0001:00018931   240 0001:00018a34
   243 0001:00018a3a   246 0001:00018b09   250 0001:00018b20   251 0001:00018b22
   254 0001:00018b40   256 0001:00018b78   258 0001:00018b7c   261 0001:00018b7f
   260 0001:00018b82   261 0001:00018b84   264 0001:00018b90   265 0001:00018baa
   266 0001:00018bb7   279 0001:00018bba   268 0001:00018bcb   269 0001:00018c4c
   270 0001:00018c5a   279 0001:00018c5d   272 0001:00018c6e   274 0001:00018c71
   275 0001:00018cac   276 0001:00018cb5   279 0001:00018cb8   278 0001:00018cc9
   279 0001:00018cd9   285 0001:00018cf0   286 0001:00018d09   289 0001:00018d31
   288 0001:00018d4f   291 0001:00018d56   294 0001:00018d58   296 0001:00018e5d
   298 0001:00018e68   299 0001:00018ea5   302 0001:00018ec9   303 0001:00018f0c
   305 0001:00018f3e   306 0001:00018f41   309 0001:00018f60   313 0001:00018f7e
   314 0001:00018f91   316 0001:00018f97   317 0001:00018faa   347 0001:00018fb0
   320 0001:00018fbf   321 0001:00018fcf   322 0001:00018fd3   324 0001:00018fe6
   325 0001:00018fec   327 0001:00018ff7   329 0001:00018fff   330 0001:0001900f
   331 0001:00019019   347 0001:0001901f   334 0001:0001902e   336 0001:00019043
   341 0001:00019052   336 0001:00019126   344 0001:0001912a   347 0001:00019131
   354 0001:00019150   355 0001:0001916b   356 0001:00019182   358 0001:0001918d
   359 0001:0001919b   360 0001:0001919f   362 0001:000191ae   366 0001:000191b2
   369 0001:0001926a   371 0001:000192e9   373 0001:00019307   376 0001:0001937b
   378 0001:00019389   385 0001:0001938e   382 0001:0001939f   385 0001:000193ab
   388 0001:000193d0   389 0001:000193ed   390 0001:00019400   393 0001:00019407
   394 0001:000194a1   396 0001:000194a7   397 0001:000194b6   399 0001:000194ba
   402 0001:000194c1   404 0001:000194d1   407 0001:000194e0   409 0001:000194e7
   411 0001:000194f0   412 0001:000194fc   413 0001:00019506   417 0001:0001950d
   419 0001:00019612   421 0001:00019625   424 0001:00019629   427 0001:00019640
   439 0001:0001965a   441 0001:000196c4   443 0001:000196d4   445 0001:000196d6
   427 0001:000196ef   449 0001:000196f3   419 0001:00019752   452 0001:00019754
   454 0001:0001975e   455 0001:00019760   458 0001:00019780   461 0001:000197a1
   462 0001:000197b4   464 0001:000197ba   465 0001:000197cf   466 0001:000197d9
   469 0001:000197e0   471 0001:000197f0   476 0001:00019803   478 0001:00019810
   479 0001:00019820   480 0001:0001982a   483 0001:00019831   485 0001:00019836
   488 0001:00019844   500 0001:00019853   501 0001:00019856   490 0001:00019863
   491 0001:00019865   494 0001:0001986c   495 0001:000198d6   496 0001:0001996e
   498 0001:000199ef   500 0001:00019ab5   501 0001:00019b00   488 0001:00019bf4
   504 0001:00019bf6   505 0001:00019c00   506 0001:00019c02   509 0001:00019c20
   510 0001:00019c3b   511 0001:00019cef   513 0001:00019cf6   517 0001:00019cf8
   518 0001:00019cfe   748 0001:00019d20   750 0001:00019d23   751 0001:00019d28
   756 0001:00019d2f   757 0001:00019d32   762 0001:00019d40   764 0001:00019d5e
   765 0001:00019d71   767 0001:00019d75   768 0001:00019d88   838 0001:00019d8c
   771 0001:00019d9b   773 0001:00019dab   779 0001:00019dbe   781 0001:00019dcb
   782 0001:00019ddb   783 0001:00019de5   838 0001:00019de9   786 0001:00019df8
   788 0001:00019e13   789 0001:00019e15   791 0001:00019e18   792 0001:00019e28
   793 0001:00019e4a   794 0001:00019e53   795 0001:00019e5c   796 0001:00019e65
   797 0001:00019e6e   798 0001:00019e77   799 0001:00019e85   800 0001:00019e93
   801 0001:00019ea1   802 0001:00019ea9   803 0001:00019eb4   805 0001:00019ec5
   820 0001:00019ed6   824 0001:00019fa5   825 0001:0001a06c   827 0001:0001a071
   828 0001:0001a074   829 0001:0001a083   832 0001:0001a094   835 0001:0001a1b5
   838 0001:0001a1bc   842 0001:0001a1e0   845 0001:0001a1fe   846 0001:0001a211
   915 0001:0001a219   848 0001:0001a228   850 0001:0001a238   856 0001:0001a24b
   858 0001:0001a258   859 0001:0001a268   860 0001:0001a272   915 0001:0001a276
   863 0001:0001a285   865 0001:0001a2a0   866 0001:0001a2a2   868 0001:0001a2a5
   869 0001:0001a2b5   870 0001:0001a2d7   871 0001:0001a2e0   872 0001:0001a2e9
   873 0001:0001a2f2   874 0001:0001a2fb   875 0001:0001a304   876 0001:0001a312
   877 0001:0001a320   878 0001:0001a32e   879 0001:0001a336   880 0001:0001a341
   882 0001:0001a352   884 0001:0001a37b   885 0001:0001a381   887 0001:0001a388
   888 0001:0001a38d   889 0001:0001a392   890 0001:0001a39a   891 0001:0001a3a2
   892 0001:0001a3b0   893 0001:0001a3b9   894 0001:0001a3c2   895 0001:0001a3c7
   896 0001:0001a3f0   897 0001:0001a3f9   901 0001:0001a431   902 0001:0001a4f8
   904 0001:0001a4fd   905 0001:0001a500   906 0001:0001a50f   909 0001:0001a520
   912 0001:0001a641   915 0001:0001a648  1277 0001:0001a660  1278 0001:0001a66d
  1280 0001:0001a68b  1281 0001:0001a72a  1283 0001:0001a73d  1286 0001:0001a743
  1289 0001:0001a770  1290 0001:0001a78a  1291 0001:0001a796  1293 0001:0001a79c
  1294 0001:0001a864  1296 0001:0001a879  1300 0001:0001a87e  1303 0001:0001a8b0
  1304 0001:0001a8c9  1307 0001:0001a8de  1308 0001:0001a8e8  1310 0001:0001a8f7
  1311 0001:0001a9bd  1310 0001:0001a9ce  1311 0001:0001a9d7  1314 0001:0001a9f0
  1315 0001:0001a9f5  1316 0001:0001aa2a  1318 0001:0001aa33  1321 0001:0001aa36
  1320 0001:0001aa3a  1321 0001:0001aa3c  1335 0001:0001aa40  1337 0001:0001aa43
  1338 0001:0001aa48  1344 0001:0001aa4f  1345 0001:0001aa52  1349 0001:0001aa60
  1351 0001:0001aa69  1352 0001:0001aa7c  1354 0001:0001aa80  1355 0001:0001aa93
  1405 0001:0001aa97  1358 0001:0001aa9b  1360 0001:0001aaab  1366 0001:0001aabe
  1368 0001:0001aaca  1369 0001:0001aada  1370 0001:0001aae4  1405 0001:0001aae8
  1373 0001:0001aaec  1375 0001:0001ab01  1377 0001:0001ab08  1378 0001:0001ab0f
  1380 0001:0001ab12  1383 0001:0001ab14  1375 0001:0001ab25  1385 0001:0001ab28
  1386 0001:0001ab2a  1388 0001:0001ab31  1389 0001:0001ab36  1392 0001:0001ab43
  1393 0001:0001ab76  1395 0001:0001ab7f  1396 0001:0001ab82  1397 0001:0001ab8f
  1399 0001:0001ab9c  1402 0001:0001abde  1404 0001:0001abe8  1405 0001:0001abec
  1408 0001:0001abf0  1410 0001:0001abfc  1411 0001:0001ac0f  1413 0001:0001ac16
  1467 0001:0001ac19  1416 0001:0001ac20  1418 0001:0001ac30  1424 0001:0001ac43
  1426 0001:0001ac4f  1427 0001:0001ac5f  1428 0001:0001ac69  1467 0001:0001ac6f
  1431 0001:0001ac76  1434 0001:0001ac8f  1435 0001:0001ac91  1437 0001:0001ac98
  1438 0001:0001ac9a  1440 0001:0001ac9d  1452 0001:0001acad  1434 0001:0001acba
  1442 0001:0001acbe  1443 0001:0001acc0  1445 0001:0001acc7  1446 0001:0001acc9
  1447 0001:0001accf  1448 0001:0001acd4  1449 0001:0001acdf  1450 0001:0001ace4
  1452 0001:0001acec  1454 0001:0001ad16  1456 0001:0001ad26  1458 0001:0001ad28
  1440 0001:0001ad40  1461 0001:0001ad44  1431 0001:0001ae78  1464 0001:0001ae7a
  1466 0001:0001ae84  1467 0001:0001ae8a  1624 0001:0001aea0  1625 0001:0001aea7
  1626 0001:0001aedc  1628 0001:0001aee5  1632 0001:0001aee8  1631 0001:0001aeee
  1632 0001:0001aef0  1637 0001:0001af00  1639 0001:0001af1e  1640 0001:0001af31
  1642 0001:0001af37  1643 0001:0001af4a  1670 0001:0001af50  1646 0001:0001af5f
  1648 0001:0001af6f  1653 0001:0001af82  1655 0001:0001af8a  1656 0001:0001af9a
  1657 0001:0001afa4  1670 0001:0001afaa  1661 0001:0001afb9  1664 0001:0001afc8
  1661 0001:0001b09f  1667 0001:0001b0a1  1670 0001:0001b0a8  1700 0001:0001b0c0
  1702 0001:0001b0cc  1701 0001:0001b0cd  1702 0001:0001b0d8  1705 0001:0001b0e0
  1709 0001:0001b107  1710 0001:0001b11e  1707 0001:0001b121  1710 0001:0001b123
  1713 0001:0001b130  1714 0001:0001b153  1715 0001:0001b169  1716 0001:0001b18b
  1717 0001:0001b1a0  1719 0001:0001b1a9  1728 0001:0001b1b0  1732 0001:0001b1da
  1735 0001:0001b205  1737 0001:0001b211  1741 0001:0001b22b  1744 0001:0001b250
  1746 0001:0001b26a  1751 0001:0001b280  1752 0001:0001b2aa  1754 0001:0001b2c7
  1756 0001:0001b2da  1760 0001:0001b328  1767 0001:0001b330  1768 0001:0001b3e4
  1762 0001:0001b46d  1763 0001:0001b488  1770 0001:0001b50f  1772 0001:0001b519
  1773 0001:0001b51b  1776 0001:0001b630  1778 0001:0001b633  1779 0001:0001b674
  1780 0001:0001b67f  1788 0001:0001b682  1782 0001:0001b688  1783 0001:0001b68b
  1784 0001:0001b6bd  1785 0001:0001b6c2  1788 0001:0001b6c5  1787 0001:0001b6cb
  1788 0001:0001b6d0  1791 0001:0001b6e0  1792 0001:0001b701  1793 0001:0001b711
  1794 0001:0001b722  1796 0001:0001b72f  1801 0001:0001b736  1803 0001:0001b756
  1806 0001:0001b770  1809 0001:0001b791  1811 0001:0001b797  1815 0001:0001b85b
  1816 0001:0001b865  1817 0001:0001b867  1820 0001:0001b880  1822 0001:0001b88c
  1825 0001:0001b890  1826 0001:0001b8a8  1827 0001:0001b957  1826 0001:0001b968
  1827 0001:0001b96e  1830 0001:0001b990  1831 0001:0001b99d  1832 0001:0001b9b9
  1839 0001:0001b9bc  1834 0001:0001b9cd  1835 0001:0001ba6c  1836 0001:0001ba73
  1839 0001:0001ba76  1842 0001:0001baa0  1843 0001:0001baa1  1860 0001:0001baaf
  1846 0001:0001bab3  1847 0001:0001babb  1860 0001:0001bac1  1850 0001:0001bac6
  1851 0001:0001bb0c  1852 0001:0001bb18  1860 0001:0001bb1b  1854 0001:0001bb1f
  1855 0001:0001bb22  1856 0001:0001bb63  1857 0001:0001bb68  1860 0001:0001bb6b
  1859 0001:0001bb6f  1860 0001:0001bb74  1863 0001:0001bb80  1865 0001:0001bb8f
  1871 0001:0001bb96  1867 0001:0001bb9c  1868 0001:0001bbb7  1870 0001:0001bbd2
  1871 0001:0001bbf1  1874 0001:0001bc00  1875 0001:0001bc03  1876 0001:0001bc5e
  1878 0001:0001bc6a  1881 0001:0001bc6d  1880 0001:0001bc73  1881 0001:0001bc75
  1885 0001:0001bc80  1891 0001:0001bc90  1894 0001:0001bca0  1898 0001:0001bcb0
  1899 0001:0001bcbe  1904 0001:0001bcc0  1902 0001:0001bcc1  1903 0001:0001bcc6
  1904 0001:0001bcc8  1907 0001:0001bcd0  1909 0001:0001bcda  1912 0001:0001bce0
  1914 0001:0001bcfc  1915 0001:0001bd1d  1916 0001:0001bd30  1921 0001:0001bd41
  1922 0001:0001bd5e  1926 0001:0001bd7f  1928 0001:0001bda2  1930 0001:0001bdb4
  1932 0001:0001bdbf  1935 0001:0001bdc7  1937 0001:0001bdfd  1938 0001:0001be08
  1940 0001:0001be3f  1941 0001:0001bf15  1942 0001:0001bf19  1945 0001:0001bf1e
  1947 0001:0001bf4a  1952 0001:0001bf7d  1953 0001:0001bf8a  1956 0001:0001bfa0
  1957 0001:0001bfa8  1958 0001:0001bfb0  1960 0001:0001bfb4  1961 0001:0001bfb7
  1962 0001:0001bfca  1963 0001:0001bfde  1958 0001:0001c01e  1965 0001:0001c026
  1966 0001:0001c098  1965 0001:0001c09c  1966 0001:0001c0c3  1969 0001:0001c1c0
  1970 0001:0001c1da  1972 0001:0001c1e8  1973 0001:0001c26d  1975 0001:0001c27d
  1976 0001:0001c280  1977 0001:0001c2b5  1982 0001:0001c2be  1976 0001:0001c2cf
  1977 0001:0001c2d7  1982 0001:0001c2e0  1985 0001:0001c310  1988 0001:0001c323
  1990 0001:0001c330  1991 0001:0001c340  1988 0001:0001c35b  1996 0001:0001c383
  1997 0001:0001c389  2000 0001:0001c390  2001 0001:0001c396  2002 0001:0001c3b8
  2003 0001:0001c3d0  2008 0001:0001c3e1  2009 0001:0001c3f8  2013 0001:0001c48e
  2021 0001:0001c4ae  2027 0001:0001c4ea  2031 0001:0001c53d  2032 0001:0001c54f
  2035 0001:0001c560  2036 0001:0001c566  2039 0001:0001c57b  2041 0001:0001c58b
  2042 0001:0001c5a1  2043 0001:0001c5aa  2046 0001:0001c5eb  2048 0001:0001c5f3
  2049 0001:0001c609  2050 0001:0001c614  2053 0001:0001c655  2055 0001:0001c661
  2056 0001:0001c677  2057 0001:0001c682  2060 0001:0001c71f  2062 0001:0001c727
  2069 0001:0001c737  2070 0001:0001c73a  2067 0001:0001c73e  2069 0001:0001c74b
  2070 0001:0001c74e  2073 0001:0001c760  2074 0001:0001c778  2076 0001:0001c78c
  2077 0001:0001c7a1  2079 0001:0001c7af  2080 0001:0001c7b3  2089 0001:0001c7c2
  2165 0001:0001c7d0  2084 0001:0001c7e1  2085 0001:0001c7f4  2165 0001:0001c7f8
  2093 0001:0001c809  2095 0001:0001c81f  2096 0001:0001c822  2098 0001:0001c82b
  2101 0001:0001c82e  2102 0001:0001c8ae  2104 0001:0001c8be  2105 0001:0001c8c2
  2110 0001:0001c939  2112 0001:0001c95b  2113 0001:0001c95e  2115 0001:0001c967
  2118 0001:0001c96a  2119 0001:0001c9f2  2121 0001:0001ca02  2122 0001:0001ca06
  2127 0001:0001ca7d  2129 0001:0001ca9f  2130 0001:0001caa2  2132 0001:0001caab
  2135 0001:0001caae  2136 0001:0001cb3a  2138 0001:0001cb4a  2139 0001:0001cb4e
  2144 0001:0001cbc5  2147 0001:0001cbe7  2149 0001:0001cbfe  2150 0001:0001cc01
  2152 0001:0001cc0a  2155 0001:0001cc0d  2156 0001:0001cc9b  2159 0001:0001ccab
  2144 0001:0001ccdb  2165 0001:0001ccf8  2168 0001:0001cd10  2170 0001:0001cd1c
  2173 0001:0001cd20  2175 0001:0001cd24  2176 0001:0001cd2e  2177 0001:0001cd38
  2178 0001:0001cd48

Line numbers for .\Release\GameDataSynchronize.obj(D:\Program Files\Microsoft Visual Studio\VC98\INCLUDE\xtree) segment .text

   399 0001:00018080   511 0001:000180e0   513 0001:000180e4   514 0001:000180f1
   515 0001:0001810c   516 0001:0001810f   517 0001:00018111   513 0001:00018115
   518 0001:0001811c

Line numbers for .\Release\GameDataSynchronize.obj(F:\cygwin\home\Administrator\Projects\C3Engine_Windows_GL2\GraphicData\GameDataSynchronize.cpp) segment .text

    78 0001:00018070    80 0001:00018075

Line numbers for .\Release\GameDataSet.obj(D:\Program Files\Microsoft Visual Studio\VC98\INCLUDE\new) segment .text

    45 0001:00016b00

Line numbers for .\Release\GameDataSet.obj(D:\Program Files\Microsoft Visual Studio\VC98\INCLUDE\xmemory) segment .text

    64 0001:000145f0    34 0001:00016950    34 0001:00016970    34 0001:00016b10
    34 0001:00016b30

Line numbers for .\Release\GameDataSet.obj(D:\Program Files\Microsoft Visual Studio\VC98\INCLUDE\utility) segment .text

    21 0001:0000a2f0    21 0001:0000c970    21 0001:000146f0

Line numbers for .\Release\GameDataSet.obj(D:\Program Files\Microsoft Visual Studio\VC98\INCLUDE\map) segment .text

    96 0001:0000a130    97 0001:0000a188    96 0001:0000a19b    97 0001:0000a1bb
    96 0001:0000a1ce    97 0001:0000a1fe    96 0001:0000c380    97 0001:0000c3d8
    96 0001:0000c3eb    97 0001:0000c40b    96 0001:0000c41e    97 0001:0000c44e
    96 0001:0000cab0    97 0001:0000cb07    96 0001:0000cb1a    97 0001:0000cb39
    96 0001:0000cb4c    97 0001:0000cb74

Line numbers for .\Release\GameDataSet.obj(D:\Program Files\Microsoft Visual Studio\VC98\INCLUDE\deque) segment .text

   207 0001:000090f0   208 0001:00009100   131 0001:000091a0   132 0001:000091b8
   133 0001:000091c4   134 0001:000091cd   135 0001:000091d2   275 0001:0000d040
   276 0001:0000d047   277 0001:0000d056   278 0001:0000d05d   401 0001:0000d0d0
   402 0001:0000d139   403 0001:0000d1a9   404 0001:0000d1fe   405 0001:0000d273
   406 0001:0000d281   405 0001:0000d2a1   407 0001:0000d2a4   408 0001:0000d2a9
   409 0001:0000d329   410 0001:0000d338   409 0001:0000d362   411 0001:0000d369
   427 0001:0000d410   428 0001:0000d424   431 0001:0000d42e   432 0001:0000d43f
   433 0001:0000d442   434 0001:0000d454   443 0001:0000d478   435 0001:0000d47c
   436 0001:0000d48d   437 0001:0000d494   443 0001:0000d4b1   439 0001:0000d4b6
   440 0001:0000d4c5   441 0001:0000d524   442 0001:0000d529   443 0001:0000d535
   295 0001:000133a0   296 0001:000133a5   297 0001:000133b7   298 0001:0001343b
   299 0001:00013442   300 0001:00013446   301 0001:00013447   302 0001:00013452
   480 0001:000134e0   481 0001:000134f5   482 0001:00013500   483 0001:00013516
   484 0001:0001351c   486 0001:00013534    39 0001:00013560   157 0001:00013570
   158 0001:0001357e   469 0001:000160b0   470 0001:000160c5   471 0001:000160cf
   472 0001:000160d9   473 0001:000160e5   474 0001:000160fb   475 0001:00016104
   478 0001:00016119   141 0001:000174b0   142 0001:000174bb   143 0001:000174cc
   144 0001:000174d5   145 0001:000174d8   146 0001:000174dd   145 0001:000174de
   146 0001:000174e2

Line numbers for .\Release\GameDataSet.obj(D:\Program Files\Microsoft Visual Studio\VC98\INCLUDE\vector) segment .text

    58 0001:00008790    59 0001:000087d6    60 0001:000087e2    58 0001:000094a0
    59 0001:000094a7    60 0001:000094b4   230 0001:0000d5a0

Line numbers for .\Release\GameDataSet.obj(D:\Program Files\Microsoft Visual Studio\VC98\INCLUDE\xtree) segment .text

   174 0001:000085c0   175 0001:00008653   176 0001:0000865f   178 0001:00008665
   179 0001:00008671   180 0001:0000867e   181 0001:00008684   182 0001:00008694
   183 0001:00008698   174 0001:000086b0   175 0001:0000873a   176 0001:00008746
   178 0001:0000874c   179 0001:00008758   180 0001:00008765   181 0001:0000876b
   182 0001:0000877b   183 0001:0000877f   174 0001:000087f0   175 0001:00008883
   176 0001:0000888f   178 0001:00008895   179 0001:000088a1   180 0001:000088ae
   181 0001:000088b4   182 0001:000088c4   183 0001:000088c8   174 0001:000088e0
   175 0001:00008973   176 0001:0000897f   178 0001:00008985   179 0001:00008991
   180 0001:0000899e   181 0001:000089a4   182 0001:000089b4   183 0001:000089b8
   174 0001:000089d0   175 0001:00008a63   176 0001:00008a6f   178 0001:00008a75
   179 0001:00008a81   180 0001:00008a8e   181 0001:00008a94   182 0001:00008aa4
   183 0001:00008aa8   174 0001:00008ac0   175 0001:00008b4a   176 0001:00008b56
   178 0001:00008b5c   179 0001:00008b68   180 0001:00008b75   181 0001:00008b7b
   182 0001:00008b8b   183 0001:00008b8f   174 0001:00008ba0   175 0001:00008c2a
   176 0001:00008c36   178 0001:00008c3c   179 0001:00008c48   180 0001:00008c55
   181 0001:00008c5b   182 0001:00008c6b   183 0001:00008c6f   174 0001:00008c80
   175 0001:00008d0a   176 0001:00008d16   178 0001:00008d1c   179 0001:00008d28
   180 0001:00008d35   181 0001:00008d3b   182 0001:00008d4b   183 0001:00008d4f
   174 0001:00008d60   175 0001:00008dea   176 0001:00008df6   178 0001:00008dfc
   179 0001:00008e08   180 0001:00008e15   181 0001:00008e1b   182 0001:00008e2b
   183 0001:00008e2f   174 0001:00008e40   175 0001:00008eca   176 0001:00008ed6
   178 0001:00008edc   179 0001:00008ee8   180 0001:00008ef5   181 0001:00008efb
   182 0001:00008f0b   183 0001:00008f0f   174 0001:00008f20   175 0001:00008fb3
   176 0001:00008fbf   178 0001:00008fc5   179 0001:00008fd1   180 0001:00008fde
   181 0001:00008fe4   182 0001:00008ff4   183 0001:00008ff8   174 0001:00009010
   175 0001:0000909a   176 0001:000090a6   178 0001:000090ac   179 0001:000090b8
   180 0001:000090c5   181 0001:000090cb   182 0001:000090db   183 0001:000090df
   174 0001:000091e0   175 0001:00009273   176 0001:0000927f   178 0001:00009285
   179 0001:00009291   180 0001:0000929e   181 0001:000092a4   182 0001:000092b4
   183 0001:000092b8   174 0001:000092d0   175 0001:0000935a   176 0001:00009366
   178 0001:0000936c   179 0001:00009378   180 0001:00009385   181 0001:0000938b
   182 0001:0000939b   183 0001:0000939f   174 0001:000093b0   175 0001:00009443
   176 0001:0000944f   178 0001:00009455   179 0001:00009461   180 0001:0000946e
   181 0001:00009474   182 0001:00009484   183 0001:00009488   132 0001:00009710
   134 0001:0000972f   133 0001:0000973c   134 0001:0000975b   363 0001:00009770
   368 0001:00009790   369 0001:000097bf   370 0001:000097c5   371 0001:000097d7
   364 0001:000097e9   365 0001:000097ed   366 0001:00009831   371 0001:0000983b
   103 0001:00009840   104 0001:00009850   110 0001:00009861   107 0001:00009862
   108 0001:0000986c   109 0001:00009878   110 0001:0000987f   363 0001:00009890
   368 0001:000098b0   369 0001:000098df   370 0001:000098e5   371 0001:000098f7
   364 0001:00009909   365 0001:0000990d   366 0001:00009951   371 0001:0000995b
   363 0001:00009960   368 0001:00009980   369 0001:000099b7   370 0001:000099bd
   371 0001:000099cf   364 0001:000099e1   365 0001:000099e5   366 0001:00009a29
   371 0001:00009a33   103 0001:00009a40   104 0001:00009a50   110 0001:00009a61
   107 0001:00009a62   108 0001:00009a6c   109 0001:00009a78   110 0001:00009a7f
   363 0001:00009a90   368 0001:00009ab0   369 0001:00009ae7   370 0001:00009aed
   371 0001:00009aff   364 0001:00009b11   365 0001:00009b15   366 0001:00009b59
   371 0001:00009b63   160 0001:00009b70   363 0001:00009ba0   368 0001:00009bc0
   369 0001:00009bf7   370 0001:00009bfd   371 0001:00009c0f   364 0001:00009c21
   365 0001:00009c25   366 0001:00009c69   371 0001:00009c73   384 0001:00009c80
   387 0001:00009cbf   160 0001:00009d10   363 0001:00009d40   368 0001:00009d60
   369 0001:00009d97   370 0001:00009d9d   371 0001:00009daf   364 0001:00009dc1
   365 0001:00009dc5   366 0001:00009e09   371 0001:00009e13   160 0001:00009e20
   384 0001:00009e50   387 0001:00009e8f   160 0001:00009ee0   363 0001:00009f10
   368 0001:00009f30   369 0001:00009f5f   370 0001:00009f65   371 0001:00009f77
   364 0001:00009f89   365 0001:00009f8d   366 0001:00009fd1   371 0001:00009fdb
   384 0001:00009fe0   387 0001:0000a023   160 0001:0000a070   384 0001:0000a0a0
   387 0001:0000a0df   160 0001:0000a230   384 0001:0000a260   387 0001:0000a29f
   174 0001:0000a4b0   175 0001:0000a53a   176 0001:0000a546   178 0001:0000a54c
   179 0001:0000a558   180 0001:0000a565   181 0001:0000a56b   182 0001:0000a57b
   183 0001:0000a57f   261 0001:0000a590   262 0001:0000a59b   264 0001:0000a5a8
   265 0001:0000a5b0   266 0001:0000a5bf   268 0001:0000a5c5   269 0001:0000a5c7
   270 0001:0000a5df   271 0001:0000a5e9   272 0001:0000a5f1   273 0001:0000a5f6
   274 0001:0000a5fa   275 0001:0000a600   276 0001:0000a603   277 0001:0000a605
   278 0001:0000a60b   279 0001:0000a610   280 0001:0000a615   281 0001:0000a61a
   282 0001:0000a626   283 0001:0000a629   284 0001:0000a632   285 0001:0000a634
   286 0001:0000a636   287 0001:0000a639   289 0001:0000a63c   290 0001:0000a64f
   291 0001:0000a656   292 0001:0000a659   293 0001:0000a668   294 0001:0000a66b
   295 0001:0000a674   296 0001:0000a676   297 0001:0000a678   298 0001:0000a67b
   300 0001:0000a686   301 0001:0000a690   302 0001:0000a695   303 0001:0000a697
   304 0001:0000a6b3   306 0001:0000a6bb   307 0001:0000a6c7   308 0001:0000a6ca
   309 0001:0000a6cc   290 0001:0000a6e1   310 0001:0000a6e5   311 0001:0000a6f5
   312 0001:0000a70c   313 0001:0000a715   314 0001:0000a718   315 0001:0000a71d
   316 0001:0000a720   317 0001:0000a726   318 0001:0000a764   320 0001:0000a76a
   334 0001:0000a781   336 0001:0000a783   337 0001:0000a788   338 0001:0000a78b
   339 0001:0000a791   340 0001:0000a7d1   342 0001:0000a7d6   343 0001:0000a7ed
   344 0001:0000a7f3   324 0001:0000a804   325 0001:0000a80c   327 0001:0000a811
   328 0001:0000a851   329 0001:0000a857   330 0001:0000a860   331 0001:0000a866
   332 0001:0000a86c   333 0001:0000a897   332 0001:0000a89c   333 0001:0000a8a7
   332 0001:0000a8ac   333 0001:0000a8b1   346 0001:0000a8b6   347 0001:0000a8bd
   349 0001:0000a8c3   350 0001:0000a901   351 0001:0000a906   352 0001:0000a90f
   353 0001:0000a915   354 0001:0000a91a   356 0001:0000a95a   357 0001:0000a95d
   359 0001:0000a967   360 0001:0000a971   361 0001:0000a974   384 0001:0000a990
   387 0001:0000a9d3   103 0001:0000aa20   104 0001:0000aa30   110 0001:0000aa41
   107 0001:0000aa42   108 0001:0000aa4c   109 0001:0000aa58   110 0001:0000aa5f
   103 0001:0000aa70   104 0001:0000aa80   110 0001:0000aa91   107 0001:0000aa92
   108 0001:0000aa9c   109 0001:0000aaa8   110 0001:0000aaaf   160 0001:0000aac0
   261 0001:0000aaf0   262 0001:0000aafb   264 0001:0000ab08   265 0001:0000ab10
   266 0001:0000ab1f   268 0001:0000ab25   269 0001:0000ab27   270 0001:0000ab3f
   271 0001:0000ab49   272 0001:0000ab51   273 0001:0000ab56   274 0001:0000ab5a
   275 0001:0000ab60   276 0001:0000ab63   277 0001:0000ab65   278 0001:0000ab6b
   279 0001:0000ab70   280 0001:0000ab75   281 0001:0000ab7a   282 0001:0000ab86
   283 0001:0000ab89   284 0001:0000ab92   285 0001:0000ab94   286 0001:0000ab96
   287 0001:0000ab99   289 0001:0000ab9c   290 0001:0000abaf   291 0001:0000abb6
   292 0001:0000abb9   293 0001:0000abc8   294 0001:0000abcb   295 0001:0000abd4
   296 0001:0000abd6   297 0001:0000abd8   298 0001:0000abdb   300 0001:0000abe6
   301 0001:0000abf0   302 0001:0000abf5   303 0001:0000abf7   304 0001:0000ac13
   306 0001:0000ac1b   307 0001:0000ac27   308 0001:0000ac2a   309 0001:0000ac2c
   290 0001:0000ac41   310 0001:0000ac45   311 0001:0000ac55   312 0001:0000ac6c
   313 0001:0000ac75   314 0001:0000ac78   315 0001:0000ac7d   316 0001:0000ac80
   317 0001:0000ac86   318 0001:0000acc4   320 0001:0000acca   334 0001:0000ace1
   336 0001:0000ace3   337 0001:0000ace8   338 0001:0000aceb   339 0001:0000acf1
   340 0001:0000ad31   342 0001:0000ad36   343 0001:0000ad4d   344 0001:0000ad53
   324 0001:0000ad64   325 0001:0000ad6c   327 0001:0000ad71   328 0001:0000adb1
   329 0001:0000adb7   330 0001:0000adc0   331 0001:0000adc6   332 0001:0000adcc
   333 0001:0000adf7   332 0001:0000adfc   333 0001:0000ae07   332 0001:0000ae0c
   333 0001:0000ae11   346 0001:0000ae16   347 0001:0000ae1d   349 0001:0000ae23
   350 0001:0000ae61   351 0001:0000ae66   352 0001:0000ae6f   353 0001:0000ae75
   354 0001:0000ae7a   356 0001:0000aeba   357 0001:0000aebd   359 0001:0000aec7
   360 0001:0000aed1   361 0001:0000aed4   384 0001:0000aef0   387 0001:0000af1f
   103 0001:0000af60   104 0001:0000af70   110 0001:0000af81   107 0001:0000af82
   108 0001:0000af8c   109 0001:0000af98   110 0001:0000af9f   160 0001:0000afb0
   261 0001:0000afe0   262 0001:0000afeb   264 0001:0000aff8   265 0001:0000b000
   266 0001:0000b00f   268 0001:0000b015   269 0001:0000b017   270 0001:0000b02f
   271 0001:0000b039   272 0001:0000b041   273 0001:0000b046   274 0001:0000b04a
   275 0001:0000b050   276 0001:0000b053   277 0001:0000b055   278 0001:0000b05b
   279 0001:0000b060   280 0001:0000b065   281 0001:0000b06a   282 0001:0000b076
   283 0001:0000b079   284 0001:0000b082   285 0001:0000b084   286 0001:0000b086
   287 0001:0000b089   289 0001:0000b08c   290 0001:0000b09f   291 0001:0000b0a6
   292 0001:0000b0a9   293 0001:0000b0b8   294 0001:0000b0bb   295 0001:0000b0c4
   296 0001:0000b0c6   297 0001:0000b0c8   298 0001:0000b0cb   300 0001:0000b0d6
   301 0001:0000b0e0   302 0001:0000b0e5   303 0001:0000b0e7   304 0001:0000b103
   306 0001:0000b10b   307 0001:0000b117   308 0001:0000b11a   309 0001:0000b11c
   290 0001:0000b131   310 0001:0000b135   311 0001:0000b145   312 0001:0000b15c
   313 0001:0000b165   314 0001:0000b168   315 0001:0000b16d   316 0001:0000b170
   317 0001:0000b176   318 0001:0000b1b4   320 0001:0000b1ba   334 0001:0000b1d1
   336 0001:0000b1d3   337 0001:0000b1d8   338 0001:0000b1db   339 0001:0000b1e1
   340 0001:0000b221   342 0001:0000b226   343 0001:0000b23d   344 0001:0000b243
   324 0001:0000b254   325 0001:0000b25c   327 0001:0000b261   328 0001:0000b2a1
   329 0001:0000b2a7   330 0001:0000b2b0   331 0001:0000b2b6   332 0001:0000b2bc
   333 0001:0000b2e7   332 0001:0000b2ec   333 0001:0000b2f7   332 0001:0000b2fc
   333 0001:0000b301   346 0001:0000b306   347 0001:0000b30d   349 0001:0000b313
   350 0001:0000b351   351 0001:0000b356   352 0001:0000b35f   353 0001:0000b365
   354 0001:0000b36a   356 0001:0000b3aa   357 0001:0000b3ad   359 0001:0000b3b7
   360 0001:0000b3c1   361 0001:0000b3c4   384 0001:0000b3e0   387 0001:0000b40f
   103 0001:0000b450   104 0001:0000b460   110 0001:0000b471   107 0001:0000b472
   108 0001:0000b47c   109 0001:0000b488   110 0001:0000b48f   160 0001:0000b4a0
   191 0001:0000b4d0   261 0001:0000b4e0   262 0001:0000b4eb   264 0001:0000b4f8
   265 0001:0000b500   266 0001:0000b50f   268 0001:0000b515   269 0001:0000b517
   270 0001:0000b52f   271 0001:0000b539   272 0001:0000b541   273 0001:0000b546
   274 0001:0000b54a   275 0001:0000b550   276 0001:0000b553   277 0001:0000b555
   278 0001:0000b55b   279 0001:0000b560   280 0001:0000b565   281 0001:0000b56a
   282 0001:0000b576   283 0001:0000b579   284 0001:0000b582   285 0001:0000b584
   286 0001:0000b586   287 0001:0000b589   289 0001:0000b58c   290 0001:0000b59f
   291 0001:0000b5a6   292 0001:0000b5a9   293 0001:0000b5b8   294 0001:0000b5bb
   295 0001:0000b5c4   296 0001:0000b5c6   297 0001:0000b5c8   298 0001:0000b5cb
   300 0001:0000b5d6   301 0001:0000b5e0   302 0001:0000b5e5   303 0001:0000b5e7
   304 0001:0000b603   306 0001:0000b60b   307 0001:0000b617   308 0001:0000b61a
   309 0001:0000b61c   290 0001:0000b631   310 0001:0000b635   311 0001:0000b645
   312 0001:0000b65c   313 0001:0000b665   314 0001:0000b668   315 0001:0000b66d
   316 0001:0000b670   317 0001:0000b676   318 0001:0000b6b4   320 0001:0000b6ba
   334 0001:0000b6d1   336 0001:0000b6d3   337 0001:0000b6d8   338 0001:0000b6db
   339 0001:0000b6e1   340 0001:0000b721   342 0001:0000b726   343 0001:0000b73d
   344 0001:0000b743   324 0001:0000b754   325 0001:0000b75c   327 0001:0000b761
   328 0001:0000b7a1   329 0001:0000b7a7   330 0001:0000b7b0   331 0001:0000b7b6
   332 0001:0000b7bc   333 0001:0000b7e7   332 0001:0000b7ec   333 0001:0000b7f7
   332 0001:0000b7fc   333 0001:0000b801   346 0001:0000b806   347 0001:0000b80d
   349 0001:0000b813   350 0001:0000b851   351 0001:0000b856   352 0001:0000b85f
   353 0001:0000b865   354 0001:0000b86a   356 0001:0000b8aa   357 0001:0000b8ad
   359 0001:0000b8b7   360 0001:0000b8c1   361 0001:0000b8c4   384 0001:0000b8e0
   387 0001:0000b90f   103 0001:0000b950   104 0001:0000b960   110 0001:0000b971
   107 0001:0000b972   108 0001:0000b97c   109 0001:0000b988   110 0001:0000b98f
   160 0001:0000b9a0   261 0001:0000b9d0   262 0001:0000b9db   264 0001:0000b9e8
   265 0001:0000b9f0   266 0001:0000b9ff   268 0001:0000ba05   269 0001:0000ba07
   270 0001:0000ba1f   271 0001:0000ba29   272 0001:0000ba31   273 0001:0000ba36
   274 0001:0000ba3a   275 0001:0000ba40   276 0001:0000ba43   277 0001:0000ba45
   278 0001:0000ba4b   279 0001:0000ba50   280 0001:0000ba55   281 0001:0000ba5a
   282 0001:0000ba66   283 0001:0000ba69   284 0001:0000ba72   285 0001:0000ba74
   286 0001:0000ba76   287 0001:0000ba79   289 0001:0000ba7c   290 0001:0000ba8f
   291 0001:0000ba96   292 0001:0000ba99   293 0001:0000baa8   294 0001:0000baab
   295 0001:0000bab4   296 0001:0000bab6   297 0001:0000bab8   298 0001:0000babb
   300 0001:0000bac6   301 0001:0000bad0   302 0001:0000bad5   303 0001:0000bad7
   304 0001:0000baf3   306 0001:0000bafb   307 0001:0000bb07   308 0001:0000bb0a
   309 0001:0000bb0c   290 0001:0000bb21   310 0001:0000bb25   311 0001:0000bb35
   312 0001:0000bb4c   313 0001:0000bb55   314 0001:0000bb58   315 0001:0000bb5d
   316 0001:0000bb60   317 0001:0000bb66   318 0001:0000bba4   320 0001:0000bbaa
   334 0001:0000bbc1   336 0001:0000bbc3   337 0001:0000bbc8   338 0001:0000bbcb
   339 0001:0000bbd1   340 0001:0000bc11   342 0001:0000bc16   343 0001:0000bc2d
   344 0001:0000bc33   324 0001:0000bc44   325 0001:0000bc4c   327 0001:0000bc51
   328 0001:0000bc91   329 0001:0000bc97   330 0001:0000bca0   331 0001:0000bca6
   332 0001:0000bcac   333 0001:0000bcd7   332 0001:0000bcdc   333 0001:0000bce7
   332 0001:0000bcec   333 0001:0000bcf1   346 0001:0000bcf6   347 0001:0000bcfd
   349 0001:0000bd03   350 0001:0000bd41   351 0001:0000bd46   352 0001:0000bd4f
   353 0001:0000bd55   354 0001:0000bd5a   356 0001:0000bd9a   357 0001:0000bd9d
   359 0001:0000bda7   360 0001:0000bdb1   361 0001:0000bdb4   384 0001:0000bdd0
   387 0001:0000bdff   103 0001:0000be40   104 0001:0000be50   110 0001:0000be61
   107 0001:0000be62   108 0001:0000be6c   109 0001:0000be78   110 0001:0000be7f
   160 0001:0000be90   261 0001:0000bec0   262 0001:0000becb   264 0001:0000bed8
   265 0001:0000bee0   266 0001:0000beef   268 0001:0000bef5   269 0001:0000bef7
   270 0001:0000bf0f   271 0001:0000bf19   272 0001:0000bf21   273 0001:0000bf26
   274 0001:0000bf2a   275 0001:0000bf30   276 0001:0000bf33   277 0001:0000bf35
   278 0001:0000bf3b   279 0001:0000bf40   280 0001:0000bf45   281 0001:0000bf4a
   282 0001:0000bf56   283 0001:0000bf59   284 0001:0000bf62   285 0001:0000bf64
   286 0001:0000bf66   287 0001:0000bf69   289 0001:0000bf6c   290 0001:0000bf7f
   291 0001:0000bf86   292 0001:0000bf89   293 0001:0000bf98   294 0001:0000bf9b
   295 0001:0000bfa4   296 0001:0000bfa6   297 0001:0000bfa8   298 0001:0000bfab
   300 0001:0000bfb6   301 0001:0000bfc0   302 0001:0000bfc5   303 0001:0000bfc7
   304 0001:0000bfe3   306 0001:0000bfeb   307 0001:0000bff7   308 0001:0000bffa
   309 0001:0000bffc   290 0001:0000c011   310 0001:0000c015   311 0001:0000c025
   312 0001:0000c03c   313 0001:0000c045   314 0001:0000c048   315 0001:0000c04d
   316 0001:0000c050   317 0001:0000c056   318 0001:0000c094   320 0001:0000c09a
   334 0001:0000c0b1   336 0001:0000c0b3   337 0001:0000c0b8   338 0001:0000c0bb
   339 0001:0000c0c1   340 0001:0000c101   342 0001:0000c106   343 0001:0000c11d
   344 0001:0000c123   324 0001:0000c134   325 0001:0000c13c   327 0001:0000c141
   328 0001:0000c181   329 0001:0000c187   330 0001:0000c190   331 0001:0000c196
   332 0001:0000c19c   333 0001:0000c1c7   332 0001:0000c1cc   333 0001:0000c1d7
   332 0001:0000c1dc   333 0001:0000c1e1   346 0001:0000c1e6   347 0001:0000c1ed
   349 0001:0000c1f3   350 0001:0000c231   351 0001:0000c236   352 0001:0000c23f
   353 0001:0000c245   354 0001:0000c24a   356 0001:0000c28a   357 0001:0000c28d
   359 0001:0000c297   360 0001:0000c2a1   361 0001:0000c2a4   384 0001:0000c2c0
   387 0001:0000c2ef   103 0001:0000c330   104 0001:0000c340   110 0001:0000c351
   107 0001:0000c352   108 0001:0000c35c   109 0001:0000c368   110 0001:0000c36f
   160 0001:0000c480   261 0001:0000c4b0   262 0001:0000c4bb   264 0001:0000c4c8
   265 0001:0000c4d0   266 0001:0000c4df   268 0001:0000c4e5   269 0001:0000c4e7
   270 0001:0000c4ff   271 0001:0000c509   272 0001:0000c511   273 0001:0000c516
   274 0001:0000c51a   275 0001:0000c520   276 0001:0000c523   277 0001:0000c525
   278 0001:0000c52b   279 0001:0000c530   280 0001:0000c535   281 0001:0000c53a
   282 0001:0000c546   283 0001:0000c549   284 0001:0000c552   285 0001:0000c554
   286 0001:0000c556   287 0001:0000c559   289 0001:0000c55c   290 0001:0000c56f
   291 0001:0000c576   292 0001:0000c579   293 0001:0000c588   294 0001:0000c58b
   295 0001:0000c594   296 0001:0000c596   297 0001:0000c598   298 0001:0000c59b
   300 0001:0000c5a6   301 0001:0000c5b0   302 0001:0000c5b5   303 0001:0000c5b7
   304 0001:0000c5d3   306 0001:0000c5db   307 0001:0000c5e7   308 0001:0000c5ea
   309 0001:0000c5ec   290 0001:0000c601   310 0001:0000c605   311 0001:0000c617
   312 0001:0000c62c   313 0001:0000c635   314 0001:0000c638   315 0001:0000c63d
   316 0001:0000c640   317 0001:0000c646   318 0001:0000c684   320 0001:0000c68a
   334 0001:0000c6a1   336 0001:0000c6a3   337 0001:0000c6a8   338 0001:0000c6ab
   339 0001:0000c6b1   340 0001:0000c6f1   342 0001:0000c6f6   343 0001:0000c70d
   344 0001:0000c713   358 0001:0000c71f   324 0001:0000c724   325 0001:0000c72c
   327 0001:0000c731   328 0001:0000c771   329 0001:0000c777   330 0001:0000c780
   331 0001:0000c786   332 0001:0000c78c   333 0001:0000c7b7   332 0001:0000c7bc
   333 0001:0000c7c7   332 0001:0000c7cc   333 0001:0000c7d1   346 0001:0000c7d6
   347 0001:0000c7dd   349 0001:0000c7e3   350 0001:0000c821   351 0001:0000c826
   352 0001:0000c82f   353 0001:0000c835   354 0001:0000c83a   356 0001:0000c87a
   357 0001:0000c87d   358 0001:0000c887   359 0001:0000c8af   360 0001:0000c8be
   361 0001:0000c8c1   384 0001:0000c8e0   387 0001:0000c91f   160 0001:0000cba0
   261 0001:0000cbd0   262 0001:0000cbdb   264 0001:0000cbe8   265 0001:0000cbf0
   266 0001:0000cbff   268 0001:0000cc05   269 0001:0000cc07   270 0001:0000cc1f
   271 0001:0000cc29   272 0001:0000cc31   273 0001:0000cc36   274 0001:0000cc3a
   275 0001:0000cc40   276 0001:0000cc43   277 0001:0000cc45   278 0001:0000cc4b
   279 0001:0000cc50   280 0001:0000cc55   281 0001:0000cc5a   282 0001:0000cc66
   283 0001:0000cc69   284 0001:0000cc72   285 0001:0000cc74   286 0001:0000cc76
   287 0001:0000cc79   289 0001:0000cc7c   290 0001:0000cc8f   291 0001:0000cc96
   292 0001:0000cc99   293 0001:0000cca8   294 0001:0000ccab   295 0001:0000ccb4
   296 0001:0000ccb6   297 0001:0000ccb8   298 0001:0000ccbb   300 0001:0000ccc6
   301 0001:0000ccd0   302 0001:0000ccd5   303 0001:0000ccd7   304 0001:0000ccf3
   306 0001:0000ccfb   307 0001:0000cd07   308 0001:0000cd0a   309 0001:0000cd0c
   290 0001:0000cd21   310 0001:0000cd25   311 0001:0000cd35   312 0001:0000cd4c
   313 0001:0000cd55   314 0001:0000cd58   315 0001:0000cd5d   316 0001:0000cd60
   317 0001:0000cd66   318 0001:0000cda4   320 0001:0000cdaa   334 0001:0000cdc1
   336 0001:0000cdc3   337 0001:0000cdc8   338 0001:0000cdcb   339 0001:0000cdd1
   340 0001:0000ce11   342 0001:0000ce16   343 0001:0000ce2d   344 0001:0000ce33
   324 0001:0000ce44   325 0001:0000ce4c   327 0001:0000ce51   328 0001:0000ce91
   329 0001:0000ce97   330 0001:0000cea0   331 0001:0000cea6   332 0001:0000ceac
   333 0001:0000ced7   332 0001:0000cedc   333 0001:0000cee7   332 0001:0000ceec
   333 0001:0000cef1   346 0001:0000cef6   347 0001:0000cefd   349 0001:0000cf03
   350 0001:0000cf41   351 0001:0000cf46   352 0001:0000cf4f   353 0001:0000cf55
   354 0001:0000cf5a   356 0001:0000cf9a   357 0001:0000cf9d   359 0001:0000cfa7
   360 0001:0000cfb1   361 0001:0000cfb4   384 0001:0000cfd0   387 0001:0000cfff
   160 0001:0000d570   261 0001:0000d5b0   262 0001:0000d5bb   264 0001:0000d5c8
   265 0001:0000d5d0   266 0001:0000d5df   268 0001:0000d5e5   269 0001:0000d5e7
   270 0001:0000d5ff   271 0001:0000d609   272 0001:0000d611   273 0001:0000d616
   274 0001:0000d61a   275 0001:0000d620   276 0001:0000d623   277 0001:0000d625
   278 0001:0000d62b   279 0001:0000d630   280 0001:0000d635   281 0001:0000d63a
   282 0001:0000d646   283 0001:0000d649   284 0001:0000d652   285 0001:0000d654
   286 0001:0000d656   287 0001:0000d659   289 0001:0000d65c   290 0001:0000d66f
   291 0001:0000d676   292 0001:0000d679   293 0001:0000d688   294 0001:0000d68b
   295 0001:0000d694   296 0001:0000d696   297 0001:0000d698   298 0001:0000d69b
   300 0001:0000d6a6   301 0001:0000d6b0   302 0001:0000d6b5   303 0001:0000d6b7
   304 0001:0000d6d3   306 0001:0000d6db   307 0001:0000d6e7   308 0001:0000d6ea
   309 0001:0000d6ec   290 0001:0000d701   310 0001:0000d705   311 0001:0000d715
   312 0001:0000d72c   313 0001:0000d735   314 0001:0000d738   315 0001:0000d73d
   316 0001:0000d740   317 0001:0000d746   318 0001:0000d784   320 0001:0000d78a
   334 0001:0000d7a1   336 0001:0000d7a3   337 0001:0000d7a8   338 0001:0000d7ab
   339 0001:0000d7b1   340 0001:0000d7f1   342 0001:0000d7f6   343 0001:0000d80d
   344 0001:0000d813   324 0001:0000d824   325 0001:0000d82c   327 0001:0000d831
   328 0001:0000d871   329 0001:0000d877   330 0001:0000d880   331 0001:0000d886
   332 0001:0000d88c   333 0001:0000d8b7   332 0001:0000d8bc   333 0001:0000d8c7
   332 0001:0000d8cc   333 0001:0000d8d1   346 0001:0000d8d6   347 0001:0000d8dd
   349 0001:0000d8e3   350 0001:0000d921   351 0001:0000d926   352 0001:0000d92f
   353 0001:0000d935   354 0001:0000d93a   356 0001:0000d97a   357 0001:0000d97d
   359 0001:0000d987   360 0001:0000d991   361 0001:0000d994   444 0001:0000d9b0
   445 0001:0000d9c4   446 0001:0000d9cf   448 0001:0000d9d1   450 0001:0000d9f0
   451 0001:0000da05   452 0001:0000da1b   453 0001:0000da23   455 0001:0000da29
   456 0001:0000da35   457 0001:0000da4c   458 0001:0000da50   459 0001:0000da59
   460 0001:0000da72   542 0001:0000da90   543 0001:0000daa0   544 0001:0000daa8
   261 0001:0000dab0   262 0001:0000dabb   264 0001:0000dac8   265 0001:0000dad0
   266 0001:0000dadf   268 0001:0000dae5   269 0001:0000dae7   270 0001:0000daff
   271 0001:0000db09   272 0001:0000db11   273 0001:0000db16   274 0001:0000db1a
   275 0001:0000db20   276 0001:0000db23   277 0001:0000db25   278 0001:0000db2b
   279 0001:0000db30   280 0001:0000db35   281 0001:0000db3a   282 0001:0000db46
   283 0001:0000db49   284 0001:0000db52   285 0001:0000db54   286 0001:0000db56
   287 0001:0000db59   289 0001:0000db5c   290 0001:0000db7b   291 0001:0000db82
   292 0001:0000db85   293 0001:0000db94   294 0001:0000db97   295 0001:0000dba0
   296 0001:0000dba2   297 0001:0000dba4   298 0001:0000dba7   300 0001:0000dbb2
   301 0001:0000dbbc   302 0001:0000dbc1   303 0001:0000dbc3   304 0001:0000dbdf
   306 0001:0000dbe7   307 0001:0000dbf3   308 0001:0000dbf6   309 0001:0000dbf8
   290 0001:0000dc0d   310 0001:0000dc11   311 0001:0000dc24   312 0001:0000dc3e
   313 0001:0000dc47   314 0001:0000dc4a   315 0001:0000dc52   316 0001:0000dc58
   317 0001:0000dc61   318 0001:0000dc9f   320 0001:0000dca5   334 0001:0000dcc2
   336 0001:0000dcc4   337 0001:0000dccc   338 0001:0000dcd2   339 0001:0000dcdb
   340 0001:0000dd1b   342 0001:0000dd20   343 0001:0000dd3d   344 0001:0000dd46
   324 0001:0000dd57   325 0001:0000dd62   327 0001:0000dd6a   328 0001:0000ddad
   329 0001:0000ddb3   330 0001:0000ddc2   331 0001:0000ddcb   332 0001:0000ddd4
   333 0001:0000ddff   332 0001:0000de04   333 0001:0000de0f   332 0001:0000de14
   333 0001:0000de19   346 0001:0000de1e   347 0001:0000de28   349 0001:0000de31
   350 0001:0000de72   351 0001:0000de77   352 0001:0000de86   353 0001:0000de8f
   354 0001:0000de97   356 0001:0000ded7   357 0001:0000dedd   359 0001:0000dee7
   360 0001:0000def1   361 0001:0000def4   444 0001:0000df10   445 0001:0000df24
   446 0001:0000df2f   448 0001:0000df31   450 0001:0000df50   451 0001:0000df68
   452 0001:0000df81   453 0001:0000df89   455 0001:0000df8f   456 0001:0000df9b
   457 0001:0000dfb2   458 0001:0000dfb6   459 0001:0000dfbf   460 0001:0000dfde
   261 0001:0000dff0   262 0001:0000dffb   264 0001:0000e008   265 0001:0000e010
   266 0001:0000e01f   268 0001:0000e025   269 0001:0000e027   270 0001:0000e03f
   271 0001:0000e049   272 0001:0000e051   273 0001:0000e056   274 0001:0000e05a
   275 0001:0000e060   276 0001:0000e063   277 0001:0000e065   278 0001:0000e06b
   279 0001:0000e070   280 0001:0000e075   281 0001:0000e07a   282 0001:0000e086
   283 0001:0000e089   284 0001:0000e092   285 0001:0000e094   286 0001:0000e096
   287 0001:0000e099   289 0001:0000e09c   290 0001:0000e0af   291 0001:0000e0b6
   292 0001:0000e0b9   293 0001:0000e0c8   294 0001:0000e0cb   295 0001:0000e0d4
   296 0001:0000e0d6   297 0001:0000e0d8   298 0001:0000e0db   300 0001:0000e0e6
   301 0001:0000e0f0   302 0001:0000e0f5   303 0001:0000e0f7   304 0001:0000e113
   306 0001:0000e11b   307 0001:0000e127   308 0001:0000e12a   309 0001:0000e12c
   290 0001:0000e141   310 0001:0000e145   311 0001:0000e157   312 0001:0000e16c
   313 0001:0000e175   314 0001:0000e178   315 0001:0000e17d   316 0001:0000e180
   317 0001:0000e186   318 0001:0000e1c4   320 0001:0000e1ca   334 0001:0000e1e1
   336 0001:0000e1e3   337 0001:0000e1e8   338 0001:0000e1eb   339 0001:0000e1f1
   340 0001:0000e231   342 0001:0000e236   343 0001:0000e24d   344 0001:0000e253
   358 0001:0000e25f   324 0001:0000e264   325 0001:0000e26c   327 0001:0000e271
   328 0001:0000e2b1   329 0001:0000e2b7   330 0001:0000e2c0   331 0001:0000e2c6
   332 0001:0000e2cc   333 0001:0000e2f7   332 0001:0000e2fc   333 0001:0000e307
   332 0001:0000e30c   333 0001:0000e311   346 0001:0000e316   347 0001:0000e31d
   349 0001:0000e323   350 0001:0000e361   351 0001:0000e366   352 0001:0000e36f
   353 0001:0000e375   354 0001:0000e37a   356 0001:0000e3ba   357 0001:0000e3bd
   358 0001:0000e3c7   359 0001:0000e3ef   360 0001:0000e3fe   361 0001:0000e401
   444 0001:0000e420   445 0001:0000e434   446 0001:0000e43f   447 0001:0000e441
   448 0001:0000e449   450 0001:0000e470   451 0001:0000e485   452 0001:0000e49b
   453 0001:0000e4a3   455 0001:0000e4a9   456 0001:0000e4b5   457 0001:0000e4cc
   458 0001:0000e4d0   459 0001:0000e4d9   460 0001:0000e4f2   542 0001:0000e510
   543 0001:0000e520   544 0001:0000e528   261 0001:0000e530   262 0001:0000e53b
   264 0001:0000e548   265 0001:0000e550   266 0001:0000e55f   268 0001:0000e565
   269 0001:0000e567   270 0001:0000e57f   271 0001:0000e589   272 0001:0000e591
   273 0001:0000e596   274 0001:0000e59a   275 0001:0000e5a0   276 0001:0000e5a3
   277 0001:0000e5a5   278 0001:0000e5ab   279 0001:0000e5b0   280 0001:0000e5b5
   281 0001:0000e5ba   282 0001:0000e5c6   283 0001:0000e5c9   284 0001:0000e5d2
   285 0001:0000e5d4   286 0001:0000e5d6   287 0001:0000e5d9   289 0001:0000e5dc
   290 0001:0000e5ef   291 0001:0000e5f6   292 0001:0000e5f9   293 0001:0000e608
   294 0001:0000e60b   295 0001:0000e614   296 0001:0000e616   297 0001:0000e618
   298 0001:0000e61b   300 0001:0000e626   301 0001:0000e630   302 0001:0000e635
   303 0001:0000e637   304 0001:0000e653   306 0001:0000e65b   307 0001:0000e667
   308 0001:0000e66a   309 0001:0000e66c   290 0001:0000e681   310 0001:0000e685
   311 0001:0000e697   312 0001:0000e6ac   313 0001:0000e6b5   314 0001:0000e6b8
   315 0001:0000e6bd   316 0001:0000e6c0   317 0001:0000e6c6   318 0001:0000e704
   320 0001:0000e70a   334 0001:0000e721   336 0001:0000e723   337 0001:0000e728
   338 0001:0000e72b   339 0001:0000e731   340 0001:0000e771   342 0001:0000e776
   343 0001:0000e78d   344 0001:0000e793   358 0001:0000e79f   324 0001:0000e7a4
   325 0001:0000e7ac   327 0001:0000e7b1   328 0001:0000e7f1   329 0001:0000e7f7
   330 0001:0000e800   331 0001:0000e806   332 0001:0000e80c   333 0001:0000e837
   332 0001:0000e83c   333 0001:0000e847   332 0001:0000e84c   333 0001:0000e851
   346 0001:0000e856   347 0001:0000e85d   349 0001:0000e863   350 0001:0000e8a1
   351 0001:0000e8a6   352 0001:0000e8af   353 0001:0000e8b5   354 0001:0000e8ba
   356 0001:0000e8fa   357 0001:0000e8fd   358 0001:0000e907   359 0001:0000e92f
   360 0001:0000e93e   361 0001:0000e941   444 0001:0000e960   445 0001:0000e974
   446 0001:0000e97f   447 0001:0000e981   448 0001:0000e989   450 0001:0000e9b0
   451 0001:0000e9c5   452 0001:0000e9db   453 0001:0000e9e3   455 0001:0000e9e9
   456 0001:0000e9f5   457 0001:0000ea0c   458 0001:0000ea10   459 0001:0000ea19
   460 0001:0000ea32   261 0001:0000ea50   262 0001:0000ea70   264 0001:0000ea7d
   265 0001:0000ea85   266 0001:0000ea94   268 0001:0000ea9a   269 0001:0000ea9c
   270 0001:0000eab4   271 0001:0000eabe   272 0001:0000eac6   273 0001:0000eacb
   274 0001:0000eacf   275 0001:0000ead5   276 0001:0000ead8   277 0001:0000eada
   278 0001:0000eae0   279 0001:0000eae5   280 0001:0000eaea   281 0001:0000eaef
   282 0001:0000eafb   283 0001:0000eafe   284 0001:0000eb07   285 0001:0000eb09
   286 0001:0000eb0b   287 0001:0000eb0e   289 0001:0000eb11   290 0001:0000eb24
   291 0001:0000eb2b   292 0001:0000eb2e   293 0001:0000eb3d   294 0001:0000eb40
   295 0001:0000eb49   296 0001:0000eb4b   297 0001:0000eb4d   298 0001:0000eb50
   300 0001:0000eb5b   301 0001:0000eb65   302 0001:0000eb6a   303 0001:0000eb6c
   304 0001:0000eb88   306 0001:0000eb90   307 0001:0000eb9c   308 0001:0000eb9f
   309 0001:0000eba1   290 0001:0000ebb6   310 0001:0000ebba   311 0001:0000ebca
   312 0001:0000ebdf   313 0001:0000ebe6   314 0001:0000ebe9   315 0001:0000ebf0
   316 0001:0000ebf3   317 0001:0000ebf9   318 0001:0000ec37   320 0001:0000ec3d
   334 0001:0000ec54   335 0001:0000ec56   336 0001:0000ec58   337 0001:0000ec5f
   338 0001:0000ec62   339 0001:0000ec68   340 0001:0000eca8   342 0001:0000ecad
   343 0001:0000ecc4   344 0001:0000ecca   358 0001:0000ecd6   324 0001:0000ecdb
   325 0001:0000ece3   327 0001:0000ece8   328 0001:0000ed28   329 0001:0000ed2e
   330 0001:0000ed37   331 0001:0000ed3d   332 0001:0000ed43   333 0001:0000ed6e
   332 0001:0000ed73   333 0001:0000ed7e   332 0001:0000ed83   333 0001:0000ed88
   346 0001:0000ed8d   347 0001:0000ed94   349 0001:0000ed9a   350 0001:0000edd8
   351 0001:0000eddd   352 0001:0000ede6   353 0001:0000edec   354 0001:0000edf1
   356 0001:0000ee31   357 0001:0000ee34   358 0001:0000ee3e   359 0001:0000eeb9
   360 0001:0000eec8   361 0001:0000eed8   444 0001:0000ef00   445 0001:0000ef14
   446 0001:0000ef1f   447 0001:0000ef21   448 0001:0000ef29   450 0001:0000ef50
   451 0001:0000ef65   452 0001:0000ef7b   453 0001:0000ef83   455 0001:0000ef89
   456 0001:0000ef95   457 0001:0000efac   458 0001:0000efb0   459 0001:0000efb9
   460 0001:0000efd2   261 0001:0000eff0   262 0001:0000f010   264 0001:0000f01d
   265 0001:0000f025   266 0001:0000f034   268 0001:0000f03a   269 0001:0000f03c
   270 0001:0000f054   271 0001:0000f05e   272 0001:0000f066   273 0001:0000f06b
   274 0001:0000f06f   275 0001:0000f075   276 0001:0000f078   277 0001:0000f07a
   278 0001:0000f080   279 0001:0000f085   280 0001:0000f08a   281 0001:0000f08f
   282 0001:0000f09b   283 0001:0000f09e   284 0001:0000f0a7   285 0001:0000f0a9
   286 0001:0000f0ab   287 0001:0000f0ae   289 0001:0000f0b1   290 0001:0000f0c4
   291 0001:0000f0c9   292 0001:0000f0d3   293 0001:0000f0df   294 0001:0000f0e2
   295 0001:0000f0eb   296 0001:0000f0ed   297 0001:0000f0ef   298 0001:0000f0f2
   300 0001:0000f0fa   301 0001:0000f106   302 0001:0000f10c   303 0001:0000f10e
   304 0001:0000f121   306 0001:0000f12d   307 0001:0000f139   308 0001:0000f13c
   309 0001:0000f13e   310 0001:0000f153   311 0001:0000f165   312 0001:0000f17e
   313 0001:0000f185   314 0001:0000f188   315 0001:0000f18f   316 0001:0000f192
   317 0001:0000f198   318 0001:0000f1da   320 0001:0000f1e0   334 0001:0000f1f7
   335 0001:0000f1f9   336 0001:0000f1fb   337 0001:0000f202   338 0001:0000f205
   339 0001:0000f20b   340 0001:0000f24f   342 0001:0000f254   343 0001:0000f26b
   344 0001:0000f272   358 0001:0000f281   324 0001:0000f286   325 0001:0000f28e
   327 0001:0000f293   328 0001:0000f2d7   329 0001:0000f2dd   330 0001:0000f2e6
   331 0001:0000f2ec   332 0001:0000f2f2   333 0001:0000f321   332 0001:0000f326
   333 0001:0000f331   332 0001:0000f336   333 0001:0000f33b   346 0001:0000f340
   347 0001:0000f347   349 0001:0000f34d   350 0001:0000f38f   351 0001:0000f394
   352 0001:0000f39d   353 0001:0000f3a3   354 0001:0000f3a8   356 0001:0000f3ec
   357 0001:0000f3ef   358 0001:0000f3fb   359 0001:0000f4c2   360 0001:0000f4d1
   361 0001:0000f4e1   444 0001:0000f500   445 0001:0000f514   446 0001:0000f51f
   447 0001:0000f521   448 0001:0000f529   450 0001:0000f550   451 0001:0000f565
   452 0001:0000f57b   453 0001:0000f583   455 0001:0000f589   456 0001:0000f595
   457 0001:0000f5ac   458 0001:0000f5b0   459 0001:0000f5b9   460 0001:0000f5d2
   261 0001:0000f5f0   262 0001:0000f610   264 0001:0000f61d   265 0001:0000f625
   266 0001:0000f634   268 0001:0000f63a   269 0001:0000f63c   270 0001:0000f654
   271 0001:0000f65e   272 0001:0000f666   273 0001:0000f66b   274 0001:0000f66f
   275 0001:0000f675   276 0001:0000f678   277 0001:0000f67a   278 0001:0000f680
   279 0001:0000f685   280 0001:0000f68a   281 0001:0000f68f   282 0001:0000f69b
   283 0001:0000f69e   284 0001:0000f6a7   285 0001:0000f6a9   286 0001:0000f6ab
   287 0001:0000f6ae   289 0001:0000f6b1   290 0001:0000f6c4   291 0001:0000f6c9
   292 0001:0000f6d3   293 0001:0000f6df   294 0001:0000f6e2   295 0001:0000f6eb
   296 0001:0000f6ed   297 0001:0000f6ef   298 0001:0000f6f2   300 0001:0000f6fa
   301 0001:0000f706   302 0001:0000f70c   303 0001:0000f70e   304 0001:0000f721
   306 0001:0000f72d   307 0001:0000f739   308 0001:0000f73c   309 0001:0000f73e
   310 0001:0000f753   311 0001:0000f765   312 0001:0000f77e   313 0001:0000f785
   314 0001:0000f788   315 0001:0000f78f   316 0001:0000f792   317 0001:0000f798
   318 0001:0000f7da   320 0001:0000f7e0   334 0001:0000f7f7   335 0001:0000f7f9
   336 0001:0000f7fb   337 0001:0000f802   338 0001:0000f805   339 0001:0000f80b
   340 0001:0000f84f   342 0001:0000f854   343 0001:0000f86b   344 0001:0000f872
   358 0001:0000f881   324 0001:0000f886   325 0001:0000f88e   327 0001:0000f893
   328 0001:0000f8d7   329 0001:0000f8dd   330 0001:0000f8e6   331 0001:0000f8ec
   332 0001:0000f8f2   333 0001:0000f921   332 0001:0000f926   333 0001:0000f931
   332 0001:0000f936   333 0001:0000f93b   346 0001:0000f940   347 0001:0000f947
   349 0001:0000f94d   350 0001:0000f98f   351 0001:0000f994   352 0001:0000f99d
   353 0001:0000f9a3   354 0001:0000f9a8   356 0001:0000f9ec   357 0001:0000f9ef
   358 0001:0000f9fb   359 0001:0000fac2   360 0001:0000fad1   361 0001:0000fae1
   444 0001:0000fb00   445 0001:0000fb14   446 0001:0000fb1f   447 0001:0000fb21
   448 0001:0000fb29   450 0001:0000fb50   451 0001:0000fb65   452 0001:0000fb7b
   453 0001:0000fb83   455 0001:0000fb89   456 0001:0000fb95   457 0001:0000fbac
   458 0001:0000fbb0   459 0001:0000fbb9   460 0001:0000fbd2   261 0001:0000fbf0
   262 0001:0000fbfb   264 0001:0000fc08   265 0001:0000fc10   266 0001:0000fc1f
   268 0001:0000fc25   269 0001:0000fc27   270 0001:0000fc3f   271 0001:0000fc49
   272 0001:0000fc51   273 0001:0000fc56   274 0001:0000fc5a   275 0001:0000fc60
   276 0001:0000fc63   277 0001:0000fc65   278 0001:0000fc6b   279 0001:0000fc70
   280 0001:0000fc75   281 0001:0000fc7a   282 0001:0000fc86   283 0001:0000fc89
   284 0001:0000fc92   285 0001:0000fc94   286 0001:0000fc96   287 0001:0000fc99
   289 0001:0000fc9c   290 0001:0000fcaf   291 0001:0000fcb6   292 0001:0000fcb9
   293 0001:0000fcc8   294 0001:0000fccb   295 0001:0000fcd4   296 0001:0000fcd6
   297 0001:0000fcd8   298 0001:0000fcdb   300 0001:0000fce6   301 0001:0000fcf0
   302 0001:0000fcf5   303 0001:0000fcf7   304 0001:0000fd13   306 0001:0000fd1b
   307 0001:0000fd27   308 0001:0000fd2a   309 0001:0000fd2c   290 0001:0000fd41
   310 0001:0000fd45   311 0001:0000fd55   312 0001:0000fd6c   313 0001:0000fd75
   314 0001:0000fd78   315 0001:0000fd7d   316 0001:0000fd80   317 0001:0000fd86
   318 0001:0000fdc4   320 0001:0000fdca   334 0001:0000fde1   336 0001:0000fde3
   337 0001:0000fde8   338 0001:0000fdeb   339 0001:0000fdf1   340 0001:0000fe31
   342 0001:0000fe36   343 0001:0000fe4d   344 0001:0000fe53   324 0001:0000fe64
   325 0001:0000fe6c   327 0001:0000fe71   328 0001:0000feb1   329 0001:0000feb7
   330 0001:0000fec0   331 0001:0000fec6   332 0001:0000fecc   333 0001:0000fef7
   332 0001:0000fefc   333 0001:0000ff07   332 0001:0000ff0c   333 0001:0000ff11
   346 0001:0000ff16   347 0001:0000ff1d   349 0001:0000ff23   350 0001:0000ff61
   351 0001:0000ff66   352 0001:0000ff6f   353 0001:0000ff75   354 0001:0000ff7a
   356 0001:0000ffba   357 0001:0000ffbd   359 0001:0000ffc7   360 0001:0000ffd1
   361 0001:0000ffd4   444 0001:0000fff0   445 0001:00010004   446 0001:0001000f
   448 0001:00010011   450 0001:00010030   451 0001:00010045   452 0001:0001005b
   453 0001:00010063   455 0001:00010069   456 0001:00010075   457 0001:0001008c
   458 0001:00010090   459 0001:00010099   460 0001:000100b2   261 0001:000100d0
   262 0001:000100db   264 0001:000100e8   265 0001:000100f0   266 0001:000100ff
   268 0001:00010105   269 0001:00010107   270 0001:0001011f   271 0001:00010129
   272 0001:00010131   273 0001:00010136   274 0001:0001013a   275 0001:00010140
   276 0001:00010143   277 0001:00010145   278 0001:0001014b   279 0001:00010150
   280 0001:00010155   281 0001:0001015a   282 0001:00010166   283 0001:00010169
   284 0001:00010172   285 0001:00010174   286 0001:00010176   287 0001:00010179
   289 0001:0001017c   290 0001:0001018f   291 0001:00010196   292 0001:00010199
   293 0001:000101a8   294 0001:000101ab   295 0001:000101b4   296 0001:000101b6
   297 0001:000101b8   298 0001:000101bb   300 0001:000101c6   301 0001:000101d0
   302 0001:000101d5   303 0001:000101d7   304 0001:000101f3   306 0001:000101fb
   307 0001:00010207   308 0001:0001020a   309 0001:0001020c   290 0001:00010221
   310 0001:00010225   311 0001:00010237   312 0001:0001024c   313 0001:00010255
   314 0001:00010258   315 0001:0001025d   316 0001:00010260   317 0001:00010266
   318 0001:000102a4   320 0001:000102aa   334 0001:000102c1   336 0001:000102c3
   337 0001:000102c8   338 0001:000102cb   339 0001:000102d1   340 0001:00010311
   342 0001:00010316   343 0001:0001032d   344 0001:00010333   358 0001:0001033f
   324 0001:00010344   325 0001:0001034c   327 0001:00010351   328 0001:00010391
   329 0001:00010397   330 0001:000103a0   331 0001:000103a6   332 0001:000103ac
   333 0001:000103d7   332 0001:000103dc   333 0001:000103e7   332 0001:000103ec
   333 0001:000103f1   346 0001:000103f6   347 0001:000103fd   349 0001:00010403
   350 0001:00010441   351 0001:00010446   352 0001:0001044f   353 0001:00010455
   354 0001:0001045a   356 0001:0001049a   357 0001:0001049d   358 0001:000104a7
   359 0001:000104cf   360 0001:000104de   361 0001:000104e1   444 0001:00010500
   445 0001:00010517   447 0001:00010522   448 0001:00010548   450 0001:00010570
   451 0001:00010585   452 0001:0001059b   453 0001:000105a3   455 0001:000105a9
   456 0001:000105b5   457 0001:000105cc   458 0001:000105d0   459 0001:000105d9
   460 0001:000105f2   261 0001:00010610   262 0001:0001061b   264 0001:00010628
   265 0001:00010630   266 0001:0001063f   268 0001:00010645   269 0001:00010647
   270 0001:0001065f   271 0001:00010669   272 0001:00010671   273 0001:00010676
   274 0001:0001067a   275 0001:00010680   276 0001:00010683   277 0001:00010685
   278 0001:0001068b   279 0001:00010690   280 0001:00010695   281 0001:0001069a
   282 0001:000106a6   283 0001:000106a9   284 0001:000106b2   285 0001:000106b4
   286 0001:000106b6   287 0001:000106b9   289 0001:000106bc   290 0001:000106cf
   291 0001:000106d4   292 0001:000106de   293 0001:000106ea   294 0001:000106ed
   295 0001:000106f6   296 0001:000106f8   297 0001:000106fa   298 0001:000106fd
   300 0001:00010705   301 0001:00010711   302 0001:00010717   303 0001:00010719
   304 0001:0001072c   306 0001:00010738   307 0001:00010744   308 0001:00010747
   309 0001:00010749   310 0001:0001075e   311 0001:00010772   312 0001:0001078b
   313 0001:00010794   314 0001:00010797   315 0001:0001079c   316 0001:0001079f
   317 0001:000107a5   318 0001:000107e7   320 0001:000107ed   334 0001:00010804
   336 0001:00010806   337 0001:0001080b   338 0001:0001080e   339 0001:00010814
   340 0001:00010858   342 0001:0001085d   343 0001:00010874   344 0001:0001087b
   358 0001:0001088a   324 0001:0001088f   325 0001:00010897   327 0001:0001089c
   328 0001:000108e0   329 0001:000108e6   330 0001:000108ef   331 0001:000108f5
   332 0001:000108fb   333 0001:0001092a   332 0001:0001092f   333 0001:0001093a
   332 0001:0001093f   333 0001:00010944   346 0001:00010949   347 0001:00010950
   349 0001:00010956   350 0001:00010998   351 0001:0001099d   352 0001:000109a6
   353 0001:000109ac   354 0001:000109b1   356 0001:000109f5   357 0001:000109f8
   358 0001:00010a04   359 0001:00010b72   360 0001:00010b78   361 0001:00010b88
   444 0001:00010ba0   445 0001:00010bb4   446 0001:00010bbf   447 0001:00010bc1
   448 0001:00010bc9   450 0001:00010bf0   451 0001:00010c05   452 0001:00010c1b
   453 0001:00010c23   455 0001:00010c29   456 0001:00010c35   457 0001:00010c4c
   458 0001:00010c50   459 0001:00010c59   460 0001:00010c72   261 0001:00010c90
   262 0001:00010cb0   264 0001:00010cbd   265 0001:00010cc5   266 0001:00010cd4
   268 0001:00010cda   269 0001:00010cdc   270 0001:00010cf4   271 0001:00010cfe
   272 0001:00010d06   273 0001:00010d0b   274 0001:00010d0f   275 0001:00010d15
   276 0001:00010d18   277 0001:00010d1a   278 0001:00010d20   279 0001:00010d25
   280 0001:00010d2a   281 0001:00010d2f   282 0001:00010d3b   283 0001:00010d3e
   284 0001:00010d47   285 0001:00010d49   286 0001:00010d4b   287 0001:00010d4e
   289 0001:00010d51   290 0001:00010d64   291 0001:00010d69   292 0001:00010d73
   293 0001:00010d7f   294 0001:00010d82   295 0001:00010d8b   296 0001:00010d8d
   297 0001:00010d8f   298 0001:00010d92   300 0001:00010d9a   301 0001:00010da6
   302 0001:00010dac   303 0001:00010dae   304 0001:00010dc1   306 0001:00010dcd
   307 0001:00010dd9   308 0001:00010ddc   309 0001:00010dde   310 0001:00010df3
   311 0001:00010e05   312 0001:00010e1e   313 0001:00010e25   314 0001:00010e28
   315 0001:00010e2f   316 0001:00010e32   317 0001:00010e38   318 0001:00010e7a
   320 0001:00010e80   334 0001:00010e97   335 0001:00010e99   336 0001:00010e9b
   337 0001:00010ea2   338 0001:00010ea5   339 0001:00010eab   340 0001:00010eef
   342 0001:00010ef4   343 0001:00010f0b   344 0001:00010f12   358 0001:00010f21
   324 0001:00010f26   325 0001:00010f2e   327 0001:00010f33   328 0001:00010f77
   329 0001:00010f7d   330 0001:00010f86   331 0001:00010f8c   332 0001:00010f92
   333 0001:00010fc1   332 0001:00010fc6   333 0001:00010fd1   332 0001:00010fd6
   333 0001:00010fdb   346 0001:00010fe0   347 0001:00010fe7   349 0001:00010fed
   350 0001:0001102f   351 0001:00011034   352 0001:0001103d   353 0001:00011043
   354 0001:00011048   356 0001:0001108c   357 0001:0001108f   358 0001:0001109b
   359 0001:00011162   360 0001:00011171   361 0001:00011181   444 0001:000111a0
   445 0001:000111b4   446 0001:000111bf   447 0001:000111c1   448 0001:000111c9
   450 0001:000111f0   451 0001:00011205   452 0001:0001121b   453 0001:00011223
   455 0001:00011229   456 0001:00011235   457 0001:0001124c   458 0001:00011250
   459 0001:00011259   460 0001:00011272    40 0001:00011290   160 0001:000112a0
   217 0001:000112d0   220 0001:000112d4   222 0001:000112ef   223 0001:00011304
   220 0001:00011310   224 0001:00011318   225 0001:00011323   235 0001:000114a9
   226 0001:000114ad   227 0001:000114af   229 0001:000114b7   230 0001:000114bb
   235 0001:000114da   232 0001:000114de   233 0001:000114eb   234 0001:00011500
   235 0001:0001151f   363 0001:00011540   368 0001:00011560   369 0001:0001158f
   370 0001:00011595   371 0001:000115a7   364 0001:000115b9   365 0001:000115bd
   366 0001:00011601   371 0001:0001160b   399 0001:00011610   524 0001:00011660
   525 0001:00011668   526 0001:0001166d   527 0001:00011677   528 0001:0001167a
   529 0001:00011680   530 0001:00011688   535 0001:0001168b   536 0001:0001168d
   531 0001:00011694   532 0001:0001169b   535 0001:0001169d   536 0001:0001169f
   534 0001:000116a6   535 0001:000116a9   536 0001:000116ab   542 0001:000116c0
   543 0001:000116d0   544 0001:000116d8   554 0001:000116e0   555 0001:000116e7
   556 0001:000116ec   557 0001:000116f7   558 0001:000116fa   559 0001:00011700
   560 0001:00011708   565 0001:0001170b   566 0001:0001170e   561 0001:00011715
   562 0001:0001171d   565 0001:00011720   566 0001:00011723   564 0001:0001172a
   565 0001:0001172c   566 0001:0001172f   217 0001:00011740   220 0001:00011744
   222 0001:0001175f   223 0001:00011769   220 0001:00011775   224 0001:00011779
   225 0001:00011784   235 0001:000118fe   226 0001:00011902   227 0001:00011904
   229 0001:0001190c   230 0001:00011910   235 0001:0001192f   232 0001:00011933
   233 0001:00011940   234 0001:00011949   235 0001:00011968   444 0001:00011980
   445 0001:00011994   446 0001:0001199f   448 0001:000119a1   450 0001:000119c0
   451 0001:000119d5   452 0001:000119eb   453 0001:000119f3   455 0001:000119f9
   456 0001:00011a05   457 0001:00011a1c   458 0001:00011a20   459 0001:00011a29
   460 0001:00011a42   524 0001:00011a60   525 0001:00011a68   526 0001:00011a6d
   527 0001:00011a77   528 0001:00011a7a   529 0001:00011a80   530 0001:00011a88
   535 0001:00011a8b   536 0001:00011a8d   531 0001:00011a94   532 0001:00011a9b
   535 0001:00011a9d   536 0001:00011a9f   534 0001:00011aa6   535 0001:00011aa9
   536 0001:00011aab   554 0001:00011ac0   555 0001:00011ac7   556 0001:00011acc
   557 0001:00011ad7   558 0001:00011ada   559 0001:00011ae0   560 0001:00011ae8
   565 0001:00011aeb   566 0001:00011aee   561 0001:00011af5   562 0001:00011afd
   565 0001:00011b00   566 0001:00011b03   564 0001:00011b0a   565 0001:00011b0c
   566 0001:00011b0f   217 0001:00011b20   220 0001:00011b24   222 0001:00011b3f
   223 0001:00011b49   220 0001:00011b55   224 0001:00011b59   225 0001:00011b64
   235 0001:00011cde   226 0001:00011ce2   227 0001:00011ce4   229 0001:00011cec
   230 0001:00011cf0   235 0001:00011d0f   232 0001:00011d13   233 0001:00011d20
   234 0001:00011d29   235 0001:00011d48   399 0001:00011d60   444 0001:00011da0
   445 0001:00011db4   446 0001:00011dbf   448 0001:00011dc1   450 0001:00011de0
   451 0001:00011df5   452 0001:00011e0b   453 0001:00011e13   455 0001:00011e19
   456 0001:00011e25   457 0001:00011e3c   458 0001:00011e40   459 0001:00011e49
   460 0001:00011e62   524 0001:00011e80   525 0001:00011e88   526 0001:00011e8d
   527 0001:00011e97   528 0001:00011e9a   529 0001:00011ea0   530 0001:00011ea8
   535 0001:00011eab   536 0001:00011ead   531 0001:00011eb4   532 0001:00011ebb
   535 0001:00011ebd   536 0001:00011ebf   534 0001:00011ec6   535 0001:00011ec9
   536 0001:00011ecb   554 0001:00011ee0   555 0001:00011ee7   556 0001:00011eec
   557 0001:00011ef7   558 0001:00011efa   559 0001:00011f00   560 0001:00011f08
   565 0001:00011f0b   566 0001:00011f0e   561 0001:00011f15   562 0001:00011f1d
   565 0001:00011f20   566 0001:00011f23   564 0001:00011f2a   565 0001:00011f2c
   566 0001:00011f2f   217 0001:00011f40   220 0001:00011f44   222 0001:00011f5f
   223 0001:00011f69   220 0001:00011f75   224 0001:00011f79   225 0001:00011f84
   235 0001:000120fe   226 0001:00012102   227 0001:00012104   229 0001:0001210c
   230 0001:00012110   235 0001:0001212f   232 0001:00012133   233 0001:00012140
   234 0001:00012149   235 0001:00012168   444 0001:00012180   445 0001:00012194
   446 0001:0001219f   448 0001:000121a1   450 0001:000121c0   451 0001:000121d5
   452 0001:000121eb   453 0001:000121f3   455 0001:000121f9   456 0001:00012205
   457 0001:0001221c   458 0001:00012220   459 0001:00012229   460 0001:00012242
   524 0001:00012260   525 0001:00012268   526 0001:0001226d   527 0001:00012277
   528 0001:0001227a   529 0001:00012280   530 0001:00012288   535 0001:0001228b
   536 0001:0001228d   531 0001:00012294   532 0001:0001229b   535 0001:0001229d
   536 0001:0001229f   534 0001:000122a6   535 0001:000122a9   536 0001:000122ab
   554 0001:000122c0   555 0001:000122c7   556 0001:000122cc   557 0001:000122d7
   558 0001:000122da   559 0001:000122e0   560 0001:000122e8   565 0001:000122eb
   566 0001:000122ee   561 0001:000122f5   562 0001:000122fd   565 0001:00012300
   566 0001:00012303   564 0001:0001230a   565 0001:0001230c   566 0001:0001230f
   217 0001:00012320   220 0001:00012324   222 0001:0001233f   223 0001:00012349
   220 0001:00012355   224 0001:00012359   225 0001:00012364   235 0001:000124de
   226 0001:000124e2   227 0001:000124e4   229 0001:000124ec   230 0001:000124f0
   235 0001:0001250f   232 0001:00012513   233 0001:00012520   234 0001:00012529
   235 0001:00012548   399 0001:00012560   444 0001:000125a0   445 0001:000125b4
   446 0001:000125bf   448 0001:000125c1   450 0001:000125e0   451 0001:000125f5
   452 0001:0001260b   453 0001:00012613   455 0001:00012619   456 0001:00012625
   457 0001:0001263c   458 0001:00012640   459 0001:00012649   460 0001:00012662
   524 0001:00012680   525 0001:00012688   526 0001:0001268d   527 0001:00012697
   528 0001:0001269a   529 0001:000126a0   530 0001:000126a8   535 0001:000126ab
   536 0001:000126ad   531 0001:000126b4   532 0001:000126bb   535 0001:000126bd
   536 0001:000126bf   534 0001:000126c6   535 0001:000126c9   536 0001:000126cb
   554 0001:000126e0   555 0001:000126e7   556 0001:000126ec   557 0001:000126f7
   558 0001:000126fa   559 0001:00012700   560 0001:00012708   565 0001:0001270b
   566 0001:0001270e   561 0001:00012715   562 0001:0001271d   565 0001:00012720
   566 0001:00012723   564 0001:0001272a   565 0001:0001272c   566 0001:0001272f
   217 0001:00012740   220 0001:00012744   222 0001:0001275f   223 0001:00012769
   220 0001:00012775   224 0001:00012779   225 0001:00012784   235 0001:000128fe
   226 0001:00012902   227 0001:00012904   229 0001:0001290c   230 0001:00012910
   235 0001:0001292f   232 0001:00012933   233 0001:00012940   234 0001:00012949
   235 0001:00012968   399 0001:00012980   444 0001:000129c0   445 0001:000129d4
   446 0001:000129df   448 0001:000129e1   450 0001:00012a00   451 0001:00012a15
   452 0001:00012a2b   453 0001:00012a33   455 0001:00012a39   456 0001:00012a45
   457 0001:00012a5c   458 0001:00012a60   459 0001:00012a69   460 0001:00012a82
   524 0001:00012aa0   525 0001:00012aa8   526 0001:00012aad   527 0001:00012ab7
   528 0001:00012aba   529 0001:00012ac0   530 0001:00012ac8   535 0001:00012acb
   536 0001:00012acd   531 0001:00012ad4   532 0001:00012adb   535 0001:00012add
   536 0001:00012adf   534 0001:00012ae6   535 0001:00012ae9   536 0001:00012aeb
   554 0001:00012b00   555 0001:00012b07   556 0001:00012b0c   557 0001:00012b17
   558 0001:00012b1a   559 0001:00012b20   560 0001:00012b28   565 0001:00012b2b
   566 0001:00012b2e   561 0001:00012b35   562 0001:00012b3d   565 0001:00012b40
   566 0001:00012b43   564 0001:00012b4a   565 0001:00012b4c   566 0001:00012b4f
   217 0001:00012b60   220 0001:00012b67   222 0001:00012b7d   223 0001:00012b8d
   220 0001:00012b99   224 0001:00012ba1   225 0001:00012bac   234 0001:00012d2a
   235 0001:00012d2f   227 0001:00012d33   229 0001:00012d3b   230 0001:00012d42
   232 0001:00012d4c   233 0001:00012d55   234 0001:00012d6b   235 0001:00012d8a
   399 0001:00012db0   444 0001:00012e10   445 0001:00012e24   446 0001:00012e2f
   447 0001:00012e31   448 0001:00012e39   450 0001:00012e60   451 0001:00012e75
   452 0001:00012e8b   453 0001:00012e93   455 0001:00012e99   456 0001:00012ea5
   457 0001:00012ebc   458 0001:00012ec0   459 0001:00012ec9   460 0001:00012ee2
   524 0001:00012f00   525 0001:00012f08   526 0001:00012f0d   527 0001:00012f17
   528 0001:00012f1a   529 0001:00012f20   530 0001:00012f28   535 0001:00012f2b
   536 0001:00012f2d   531 0001:00012f34   532 0001:00012f3b   535 0001:00012f3d
   536 0001:00012f3f   534 0001:00012f46   535 0001:00012f49   536 0001:00012f4b
   554 0001:00012f60   555 0001:00012f67   556 0001:00012f6c   557 0001:00012f77
   558 0001:00012f7a   559 0001:00012f80   560 0001:00012f88   565 0001:00012f8b
   566 0001:00012f8e   561 0001:00012f95   562 0001:00012f9d   565 0001:00012fa0
   566 0001:00012fa3   564 0001:00012faa   565 0001:00012fac   566 0001:00012faf
   217 0001:00012fc0   220 0001:00012fc4   222 0001:00012fdf   223 0001:00012fe9
   220 0001:00012ff5   224 0001:00012ff9   225 0001:00013004   235 0001:0001317e
   226 0001:00013182   227 0001:00013184   229 0001:0001318c   230 0001:00013190
   235 0001:000131af   232 0001:000131b3   233 0001:000131c0   234 0001:000131c9
   235 0001:000131e8   444 0001:00013200   445 0001:00013214   446 0001:0001321f
   448 0001:00013221   450 0001:00013240   451 0001:00013255   452 0001:0001326b
   453 0001:00013273   455 0001:00013279   456 0001:00013285   457 0001:0001329c
   458 0001:000132a0   459 0001:000132a9   460 0001:000132c2   524 0001:000132e0
   525 0001:000132e8   526 0001:000132ed   527 0001:000132f7   528 0001:000132fa
   529 0001:00013300   530 0001:00013308   535 0001:0001330b   536 0001:0001330d
   531 0001:00013314   532 0001:0001331b   535 0001:0001331d   536 0001:0001331f
   534 0001:00013326   535 0001:00013329   536 0001:0001332b   554 0001:00013340
   555 0001:00013347   556 0001:0001334c   557 0001:00013357   558 0001:0001335a
   559 0001:00013360   560 0001:00013368   565 0001:0001336b   566 0001:0001336e
   561 0001:00013375   562 0001:0001337d   565 0001:00013380   566 0001:00013383
   564 0001:0001338a   565 0001:0001338c   566 0001:0001338f   261 0001:000135d0
   262 0001:000135db   264 0001:000135e8   265 0001:000135f0   266 0001:000135ff
   268 0001:00013605   269 0001:00013607   270 0001:0001361f   271 0001:00013629
   272 0001:00013631   273 0001:00013636   274 0001:0001363a   275 0001:00013640
   276 0001:00013643   277 0001:00013645   278 0001:0001364b   279 0001:00013650
   280 0001:00013655   281 0001:0001365a   282 0001:00013666   283 0001:00013669
   284 0001:00013672   285 0001:00013674   286 0001:00013676   287 0001:00013679
   289 0001:0001367c   290 0001:0001368f   291 0001:00013696   292 0001:00013699
   293 0001:000136a8   294 0001:000136ab   295 0001:000136b4   296 0001:000136b6
   297 0001:000136b8   298 0001:000136bb   300 0001:000136c6   301 0001:000136d0
   302 0001:000136d5   303 0001:000136d7   304 0001:000136f3   306 0001:000136fb
   307 0001:00013707   308 0001:0001370a   309 0001:0001370c   290 0001:00013721
   310 0001:00013725   311 0001:00013737   312 0001:0001374c   313 0001:00013755
   314 0001:00013758   315 0001:0001375d   316 0001:00013760   317 0001:00013766
   318 0001:000137a4   320 0001:000137aa   334 0001:000137c1   336 0001:000137c3
   337 0001:000137c8   338 0001:000137cb   339 0001:000137d1   340 0001:00013811
   342 0001:00013816   343 0001:0001382d   344 0001:00013833   358 0001:0001383f
   324 0001:00013844   325 0001:0001384c   327 0001:00013851   328 0001:00013891
   329 0001:00013897   330 0001:000138a0   331 0001:000138a6   332 0001:000138ac
   333 0001:000138d7   332 0001:000138dc   333 0001:000138e7   332 0001:000138ec
   333 0001:000138f1   346 0001:000138f6   347 0001:000138fd   349 0001:00013903
   350 0001:00013941   351 0001:00013946   352 0001:0001394f   353 0001:00013955
   354 0001:0001395a   356 0001:0001399a   357 0001:0001399d   358 0001:000139a7
   359 0001:000139cf   360 0001:000139de   361 0001:000139e1   444 0001:00013a00
   445 0001:00013a14   446 0001:00013a1f   447 0001:00013a21   448 0001:00013a29
   450 0001:00013a50   451 0001:00013a65   452 0001:00013a7b   453 0001:00013a83
   455 0001:00013a89   456 0001:00013a95   457 0001:00013aac   458 0001:00013ab0
   459 0001:00013ab9   460 0001:00013ad2   261 0001:00013af0   262 0001:00013afb
   264 0001:00013b08   265 0001:00013b10   266 0001:00013b1f   268 0001:00013b25
   269 0001:00013b27   270 0001:00013b3f   271 0001:00013b49   272 0001:00013b51
   273 0001:00013b56   274 0001:00013b5a   275 0001:00013b60   276 0001:00013b63
   277 0001:00013b65   278 0001:00013b6b   279 0001:00013b70   280 0001:00013b75
   281 0001:00013b7a   282 0001:00013b86   283 0001:00013b89   284 0001:00013b92
   285 0001:00013b94   286 0001:00013b96   287 0001:00013b99   289 0001:00013b9c
   290 0001:00013baf   291 0001:00013bb6   292 0001:00013bb9   293 0001:00013bc8
   294 0001:00013bcb   295 0001:00013bd4   296 0001:00013bd6   297 0001:00013bd8
   298 0001:00013bdb   300 0001:00013be6   301 0001:00013bf0   302 0001:00013bf5
   303 0001:00013bf7   304 0001:00013c13   306 0001:00013c1b   307 0001:00013c27
   308 0001:00013c2a   309 0001:00013c2c   290 0001:00013c41   310 0001:00013c45
   311 0001:00013c55   312 0001:00013c6c   313 0001:00013c75   314 0001:00013c78
   315 0001:00013c7d   316 0001:00013c80   317 0001:00013c86   318 0001:00013cc4
   320 0001:00013cca   334 0001:00013ce1   336 0001:00013ce3   337 0001:00013ce8
   338 0001:00013ceb   339 0001:00013cf1   340 0001:00013d31   342 0001:00013d36
   343 0001:00013d4d   344 0001:00013d53   324 0001:00013d64   325 0001:00013d6c
   327 0001:00013d71   328 0001:00013db1   329 0001:00013db7   330 0001:00013dc0
   331 0001:00013dc6   332 0001:00013dcc   333 0001:00013df7   332 0001:00013dfc
   333 0001:00013e07   332 0001:00013e0c   333 0001:00013e11   346 0001:00013e16
   347 0001:00013e1d   349 0001:00013e23   350 0001:00013e61   351 0001:00013e66
   352 0001:00013e6f   353 0001:00013e75   354 0001:00013e7a   356 0001:00013eba
   357 0001:00013ebd   359 0001:00013ec7   360 0001:00013ed1   361 0001:00013ed4
   444 0001:00013ef0   445 0001:00013f04   446 0001:00013f0f   448 0001:00013f11
   450 0001:00013f30   451 0001:00013f45   452 0001:00013f5b   453 0001:00013f63
   455 0001:00013f69   456 0001:00013f75   457 0001:00013f8c   458 0001:00013f90
   459 0001:00013f99   460 0001:00013fb2   261 0001:00013fd0   262 0001:00013ff0
   264 0001:00013ffd   265 0001:00014005   266 0001:00014014   268 0001:0001401a
   269 0001:0001401c   270 0001:00014034   271 0001:0001403e   272 0001:00014046
   273 0001:0001404b   274 0001:0001404f   275 0001:00014055   276 0001:00014058
   277 0001:0001405a   278 0001:00014060   279 0001:00014065   280 0001:0001406a
   281 0001:0001406f   282 0001:0001407b   283 0001:0001407e   284 0001:00014087
   285 0001:00014089   286 0001:0001408b   287 0001:0001408e   289 0001:00014091
   290 0001:000140a4   291 0001:000140a9   292 0001:000140b3   293 0001:000140bf
   294 0001:000140c2   295 0001:000140cb   296 0001:000140cd   297 0001:000140cf
   298 0001:000140d2   300 0001:000140da   301 0001:000140e6   302 0001:000140ec
   303 0001:000140ee   304 0001:00014101   306 0001:0001410d   307 0001:00014119
   308 0001:0001411c   309 0001:0001411e   310 0001:00014133   311 0001:00014145
   312 0001:0001415e   313 0001:00014165   314 0001:00014168   315 0001:0001416f
   316 0001:00014172   317 0001:00014178   318 0001:000141ba   320 0001:000141c0
   334 0001:000141d7   335 0001:000141d9   336 0001:000141db   337 0001:000141e2
   338 0001:000141e5   339 0001:000141eb   340 0001:0001422f   342 0001:00014234
   343 0001:0001424b   344 0001:00014252   324 0001:00014266   325 0001:0001426e
   327 0001:00014273   328 0001:000142b7   329 0001:000142bd   330 0001:000142c6
   331 0001:000142cc   332 0001:000142d2   333 0001:00014301   332 0001:00014306
   333 0001:00014311   332 0001:00014316   333 0001:0001431b   346 0001:00014320
   347 0001:00014327   349 0001:0001432d   350 0001:0001436f   351 0001:00014374
   352 0001:0001437d   353 0001:00014383   354 0001:00014388   356 0001:000143cc
   357 0001:000143cf   358 0001:000143d9   359 0001:000145ad   360 0001:000145b7
   361 0001:000145c7   444 0001:00014600   445 0001:00014614   446 0001:0001461f
   447 0001:00014621   448 0001:00014629   450 0001:00014650   451 0001:00014665
   452 0001:0001467b   453 0001:00014683   455 0001:00014689   456 0001:00014695
   457 0001:000146ac   458 0001:000146b0   459 0001:000146b9   460 0001:000146d2
   542 0001:00014710   543 0001:00014720   544 0001:00014728   542 0001:00014730
   543 0001:00014740   544 0001:00014748   542 0001:00014750   543 0001:00014760
   544 0001:00014768   542 0001:00014770   543 0001:00014780   544 0001:00014788
   542 0001:00014790   543 0001:000147a0   544 0001:000147a8   511 0001:000147b0
   512 0001:000147b5   513 0001:000147ba   514 0001:000147cf   515 0001:000147dd
   516 0001:000147e0   517 0001:000147e2   518 0001:000147ef   462 0001:00014800
   464 0001:00014811   465 0001:0001483c   467 0001:0001483f   475 0001:0001486d
   476 0001:00014870   477 0001:00014878   468 0001:0001487d   469 0001:0001487f
   470 0001:00014886   471 0001:00014889   472 0001:0001488f   473 0001:00014895
   479 0001:00014897   480 0001:000148b3   481 0001:000148c0   482 0001:000148c3
   483 0001:000148c8   484 0001:000148d0   485 0001:000148d3   486 0001:000148dc
   487 0001:000148e2   488 0001:000148e7   489 0001:000148ec   490 0001:000148ee
   491 0001:00014929   492 0001:00014933   493 0001:0001493c   494 0001:0001496b
   493 0001:00014970   494 0001:0001497e   493 0001:00014983   494 0001:00014988
   496 0001:0001498d   497 0001:00014992   498 0001:0001499a   499 0001:0001499d
   500 0001:000149a6   501 0001:000149ac   502 0001:000149b1   503 0001:000149b5
   504 0001:000149b7   505 0001:000149f4   506 0001:000149fe   507 0001:00014a07
   508 0001:00014a54   509 0001:00014a63   424 0001:00014a70   425 0001:00014af3
   426 0001:00014afd   427 0001:00014b10   428 0001:00014b20   430 0001:00014b43
   444 0001:00014b60   445 0001:00014b74   446 0001:00014b7f   448 0001:00014b81
   450 0001:00014ba0   451 0001:00014bb5   452 0001:00014bcb   453 0001:00014bd3
   455 0001:00014bd9   456 0001:00014be5   457 0001:00014bfc   458 0001:00014c00
   459 0001:00014c09   460 0001:00014c22   462 0001:00014c40   464 0001:00014c51
   465 0001:00014c7c   467 0001:00014c7f   475 0001:00014cb0   476 0001:00014cb3
   477 0001:00014cbb   468 0001:00014cc0   469 0001:00014cc2   470 0001:00014cc9
   471 0001:00014ccc   472 0001:00014cd2   473 0001:00014cd8   479 0001:00014cda
   480 0001:00014cf6   481 0001:00014d03   482 0001:00014d06   483 0001:00014d0b
   484 0001:00014d13   485 0001:00014d16   486 0001:00014d1f   487 0001:00014d25
   488 0001:00014d2a   489 0001:00014d2f   490 0001:00014d31   491 0001:00014d6c
   492 0001:00014d76   493 0001:00014d7f   494 0001:00014dae   493 0001:00014db3
   494 0001:00014dc1   493 0001:00014dc6   494 0001:00014dcb   496 0001:00014dd0
   497 0001:00014dd5   498 0001:00014ddd   499 0001:00014de0   500 0001:00014de9
   501 0001:00014def   502 0001:00014df4   503 0001:00014df8   504 0001:00014dfa
   505 0001:00014e37   506 0001:00014e41   507 0001:00014e4a   508 0001:00014e97
   509 0001:00014ea6    65 0001:00014ec0   462 0001:00014ed0   464 0001:00014ee1
   465 0001:00014f0c   467 0001:00014f0f   475 0001:00014f34   476 0001:00014f37
   477 0001:00014f3f   468 0001:00014f44   469 0001:00014f46   470 0001:00014f4d
   471 0001:00014f50   472 0001:00014f56   473 0001:00014f5c   479 0001:00014f5e
   480 0001:00014f7a   481 0001:00014f87   482 0001:00014f8a   483 0001:00014f8f
   484 0001:00014f97   485 0001:00014f9a   486 0001:00014fa3   487 0001:00014fa9
   488 0001:00014fae   489 0001:00014fb3   490 0001:00014fb5   491 0001:00014ff0
   492 0001:00014ffa   493 0001:00015003   494 0001:00015032   493 0001:00015037
   494 0001:00015045   493 0001:0001504a   494 0001:0001504f   496 0001:00015054
   497 0001:00015059   498 0001:00015061   499 0001:00015064   500 0001:0001506d
   501 0001:00015073   502 0001:00015078   503 0001:0001507c   504 0001:0001507e
   505 0001:000150bb   506 0001:000150c5   507 0001:000150ce   508 0001:0001511b
   509 0001:0001512a   511 0001:00015140   513 0001:00015143   514 0001:00015151
   515 0001:0001515c   516 0001:0001515f   517 0001:00015161   513 0001:00015165
   518 0001:0001516a   462 0001:00015170   464 0001:00015181   465 0001:000151ac
   467 0001:000151af   475 0001:000151d4   476 0001:000151d7   477 0001:000151df
   468 0001:000151e4   469 0001:000151e6   470 0001:000151ed   471 0001:000151f0
   472 0001:000151f6   473 0001:000151fc   479 0001:000151fe   480 0001:0001521a
   481 0001:00015227   482 0001:0001522a   483 0001:0001522f   484 0001:00015237
   485 0001:0001523a   486 0001:00015243   487 0001:00015249   488 0001:0001524e
   489 0001:00015253   490 0001:00015255   491 0001:00015290   492 0001:0001529a
   493 0001:000152a3   494 0001:000152d2   493 0001:000152d7   494 0001:000152e5
   493 0001:000152ea   494 0001:000152ef   496 0001:000152f4   497 0001:000152f9
   498 0001:00015301   499 0001:00015304   500 0001:0001530d   501 0001:00015313
   502 0001:00015318   503 0001:0001531c   504 0001:0001531e   505 0001:0001535b
   506 0001:00015365   507 0001:0001536e   508 0001:000153bb   509 0001:000153ca
   462 0001:000153e0   464 0001:000153f1   465 0001:0001541c   467 0001:0001541f
   475 0001:00015444   476 0001:00015447   477 0001:0001544f   468 0001:00015454
   469 0001:00015456   470 0001:0001545d   471 0001:00015460   472 0001:00015466
   473 0001:0001546c   479 0001:0001546e   480 0001:0001548a   481 0001:00015497
   482 0001:0001549a   483 0001:0001549f   484 0001:000154a7   485 0001:000154aa
   486 0001:000154b3   487 0001:000154b9   488 0001:000154be   489 0001:000154c3
   490 0001:000154c5   491 0001:00015500   492 0001:0001550a   493 0001:00015513
   494 0001:00015542   493 0001:00015547   494 0001:00015555   493 0001:0001555a
   494 0001:0001555f   496 0001:00015564   497 0001:00015569   498 0001:00015571
   499 0001:00015574   500 0001:0001557d   501 0001:00015583   502 0001:00015588
   503 0001:0001558c   504 0001:0001558e   505 0001:000155cb   506 0001:000155d5
   507 0001:000155de   508 0001:0001562b   509 0001:0001563a   462 0001:00015650
   464 0001:00015661   465 0001:0001568c   467 0001:0001568f   475 0001:000156b4
   476 0001:000156b7   477 0001:000156bf   468 0001:000156c4   469 0001:000156c6
   470 0001:000156cd   471 0001:000156d0   472 0001:000156d6   473 0001:000156dc
   479 0001:000156de   480 0001:000156fa   481 0001:00015707   482 0001:0001570a
   483 0001:0001570f   484 0001:00015717   485 0001:0001571a   486 0001:00015723
   487 0001:00015729   488 0001:0001572e   489 0001:00015733   490 0001:00015735
   491 0001:00015770   492 0001:0001577a   493 0001:00015783   494 0001:000157b2
   493 0001:000157b7   494 0001:000157c5   493 0001:000157ca   494 0001:000157cf
   496 0001:000157d4   497 0001:000157d9   498 0001:000157e1   499 0001:000157e4
   500 0001:000157ed   501 0001:000157f3   502 0001:000157f8   503 0001:000157fc
   504 0001:000157fe   505 0001:0001583b   506 0001:00015845   507 0001:0001584e
   508 0001:0001589b   509 0001:000158aa   511 0001:000158c0   513 0001:000158c3
   514 0001:000158d1   515 0001:000158dc   516 0001:000158df   517 0001:000158e1
   513 0001:000158e5   518 0001:000158ea   577 0001:000158f0   579 0001:000158f7
   580 0001:000158fb   581 0001:00015908   462 0001:00015910   464 0001:00015921
   465 0001:0001594c   467 0001:0001594f   475 0001:00015974   476 0001:00015977
   477 0001:0001597f   468 0001:00015984   469 0001:00015986   470 0001:0001598d
   471 0001:00015990   472 0001:00015996   473 0001:0001599c   479 0001:0001599e
   480 0001:000159ba   481 0001:000159c7   482 0001:000159ca   483 0001:000159cf
   484 0001:000159d7   485 0001:000159da   486 0001:000159e3   487 0001:000159e9
   488 0001:000159ee   489 0001:000159f3   490 0001:000159f5   491 0001:00015a30
   492 0001:00015a3a   493 0001:00015a43   494 0001:00015a72   493 0001:00015a77
   494 0001:00015a85   493 0001:00015a8a   494 0001:00015a8f   496 0001:00015a94
   497 0001:00015a99   498 0001:00015aa1   499 0001:00015aa4   500 0001:00015aad
   501 0001:00015ab3   502 0001:00015ab8   503 0001:00015abc   504 0001:00015abe
   505 0001:00015afb   506 0001:00015b05   507 0001:00015b0e   508 0001:00015b5b
   509 0001:00015b6a   511 0001:00015b80   513 0001:00015b83   514 0001:00015b91
   515 0001:00015b9c   516 0001:00015b9f   517 0001:00015ba1   513 0001:00015ba5
   518 0001:00015baa   462 0001:00015bb0   464 0001:00015bc1   465 0001:00015bec
   467 0001:00015bef   475 0001:00015c1d   476 0001:00015c20   477 0001:00015c28
   468 0001:00015c2d   469 0001:00015c2f   470 0001:00015c36   471 0001:00015c39
   472 0001:00015c3f   473 0001:00015c45   479 0001:00015c47   480 0001:00015c63
   481 0001:00015c70   482 0001:00015c73   483 0001:00015c78   484 0001:00015c80
   485 0001:00015c83   486 0001:00015c8c   487 0001:00015c92   488 0001:00015c97
   489 0001:00015c9c   490 0001:00015c9e   491 0001:00015cd9   492 0001:00015ce3
   493 0001:00015cec   494 0001:00015d1b   493 0001:00015d20   494 0001:00015d2e
   493 0001:00015d33   494 0001:00015d38   496 0001:00015d3d   497 0001:00015d42
   498 0001:00015d4a   499 0001:00015d4d   500 0001:00015d56   501 0001:00015d5c
   502 0001:00015d61   503 0001:00015d65   504 0001:00015d67   505 0001:00015da4
   506 0001:00015dae   507 0001:00015db7   508 0001:00015e04   509 0001:00015e13
   577 0001:00015e20   579 0001:00015e27   580 0001:00015e2b   581 0001:00015e38
   462 0001:00015e40   464 0001:00015e51   465 0001:00015e7c   467 0001:00015e7f
   475 0001:00015ea4   476 0001:00015ea7   477 0001:00015eaf   468 0001:00015eb4
   469 0001:00015eb6   470 0001:00015ebd   471 0001:00015ec0   472 0001:00015ec6
   473 0001:00015ecc   479 0001:00015ece   480 0001:00015eea   481 0001:00015ef7
   482 0001:00015efa   483 0001:00015eff   484 0001:00015f07   485 0001:00015f0a
   486 0001:00015f13   487 0001:00015f19   488 0001:00015f1e   489 0001:00015f23
   490 0001:00015f25   491 0001:00015f60   492 0001:00015f6a   493 0001:00015f73
   494 0001:00015fa2   493 0001:00015fa7   494 0001:00015fb5   493 0001:00015fba
   494 0001:00015fbf   496 0001:00015fc4   497 0001:00015fc9   498 0001:00015fd1
   499 0001:00015fd4   500 0001:00015fdd   501 0001:00015fe3   502 0001:00015fe8
   503 0001:00015fec   504 0001:00015fee   505 0001:0001602b   506 0001:00016035
   507 0001:0001603e   508 0001:0001608b   509 0001:0001609a   103 0001:00016140
   104 0001:00016150   110 0001:00016161   107 0001:00016162   108 0001:0001616c
   109 0001:00016178   110 0001:0001617f   103 0001:00016190   104 0001:000161a0
   110 0001:000161b1   107 0001:000161b2   108 0001:000161bc   109 0001:000161c8
   110 0001:000161cf   103 0001:000161e0   104 0001:000161f0   110 0001:00016201
   107 0001:00016202   108 0001:0001620c   109 0001:00016218   110 0001:0001621f
   103 0001:00016230   104 0001:00016240   110 0001:00016251   107 0001:00016252
   108 0001:0001625c   109 0001:00016268   110 0001:0001626f   103 0001:00016280
   104 0001:00016290   110 0001:000162a1   107 0001:000162a2   108 0001:000162ac
   109 0001:000162b8   110 0001:000162bf   103 0001:000162d0   104 0001:000162e0
   110 0001:000162f1   107 0001:000162f2   108 0001:000162fc   109 0001:00016308
   110 0001:0001630f   103 0001:00016320   104 0001:00016330   110 0001:00016341
   107 0001:00016342   108 0001:0001634c   109 0001:00016358   110 0001:0001635f
   103 0001:00016370   104 0001:00016380   110 0001:00016391   107 0001:00016392
   108 0001:0001639c   109 0001:000163a8   110 0001:000163af   432 0001:000163c0
   433 0001:000163cc   434 0001:000163e1   435 0001:000163ed   436 0001:000163fe
   437 0001:00016402   438 0001:00016413   439 0001:00016434   440 0001:0001643d
   441 0001:00016444   442 0001:00016446   441 0001:00016451   442 0001:00016458
    92 0001:00016460    94 0001:00016472   101 0001:00016476    95 0001:00016479
    96 0001:00016485   101 0001:00016498    99 0001:00016499   100 0001:000164a2
   101 0001:000164ad    92 0001:000164c0    94 0001:000164d2   101 0001:000164d6
    95 0001:000164d9    96 0001:000164e5   101 0001:000164f8    99 0001:000164f9
   100 0001:00016502   101 0001:0001650d    92 0001:00016520    94 0001:00016532
   101 0001:00016536    95 0001:00016539    96 0001:00016545   101 0001:00016558
    99 0001:00016559   100 0001:00016562   101 0001:0001656d    92 0001:00016580
    94 0001:00016592   101 0001:00016596    95 0001:00016599    96 0001:000165a5
   101 0001:000165b8    99 0001:000165b9   100 0001:000165c2   101 0001:000165cd
    92 0001:000165e0    94 0001:000165f2   101 0001:000165f6    95 0001:000165f9
    96 0001:00016605   101 0001:00016618    99 0001:00016619   100 0001:00016622
   101 0001:0001662d    92 0001:00016640    94 0001:00016652   101 0001:00016656
    95 0001:00016659    96 0001:00016665   101 0001:00016678    99 0001:00016679
   100 0001:00016682   101 0001:0001668d    92 0001:000166a0    94 0001:000166b2
   101 0001:000166b6    95 0001:000166b9    96 0001:000166c5   101 0001:000166d8
    99 0001:000166d9   100 0001:000166e2   101 0001:000166ed    92 0001:00016700
    94 0001:00016712   101 0001:00016716    95 0001:00016719    96 0001:00016725
   101 0001:00016738    99 0001:00016739   100 0001:00016742   101 0001:0001674d
   103 0001:00016760   104 0001:00016770   110 0001:00016781   107 0001:00016782
   108 0001:0001678c   109 0001:00016798   110 0001:0001679f    92 0001:000167b0
    94 0001:000167c2   101 0001:000167c6    95 0001:000167c9    96 0001:000167d5
   101 0001:000167e8    99 0001:000167e9   100 0001:000167f2   101 0001:000167fd
   103 0001:00016810   104 0001:00016820   110 0001:00016831   107 0001:00016832
   108 0001:0001683c   109 0001:00016848   110 0001:0001684f   103 0001:00016860
   104 0001:00016870   110 0001:00016881   107 0001:00016882   108 0001:0001688c
   109 0001:00016898   110 0001:0001689f   103 0001:000168b0   104 0001:000168c0
   110 0001:000168d1   107 0001:000168d2   108 0001:000168dc   109 0001:000168e8
   110 0001:000168ef   103 0001:00016900   104 0001:00016910   110 0001:00016921
   107 0001:00016922   108 0001:0001692c   109 0001:00016938   110 0001:0001693f
   132 0001:00017120   134 0001:0001713f   133 0001:0001714c   134 0001:0001716b
   363 0001:000174f0   368 0001:00017510   369 0001:0001753f   370 0001:00017545
   371 0001:00017557   364 0001:00017569   365 0001:0001756d   366 0001:000175b1
   371 0001:000175bb   261 0001:000175c0   262 0001:000175cb   264 0001:000175d8
   265 0001:000175e0   266 0001:000175ef   268 0001:000175f5   269 0001:000175f7
   270 0001:0001760f   271 0001:00017619   272 0001:00017621   273 0001:00017626
   274 0001:0001762a   275 0001:00017630   276 0001:00017633   277 0001:00017635
   278 0001:0001763b   279 0001:00017640   280 0001:00017645   281 0001:0001764a
   282 0001:00017656   283 0001:00017659   284 0001:00017662   285 0001:00017664
   286 0001:00017666   287 0001:00017669   289 0001:0001766c   290 0001:0001768b
   291 0001:00017692   292 0001:00017695   293 0001:000176a4   294 0001:000176a7
   295 0001:000176b0   296 0001:000176b2   297 0001:000176b4   298 0001:000176b7
   300 0001:000176c2   301 0001:000176cc   302 0001:000176d1   303 0001:000176d3
   304 0001:000176ef   306 0001:000176f7   307 0001:00017703   308 0001:00017706
   309 0001:00017708   290 0001:0001771d   310 0001:00017721   311 0001:00017734
   312 0001:0001774e   313 0001:00017757   314 0001:0001775a   315 0001:00017762
   316 0001:00017768   317 0001:00017771   318 0001:000177af   320 0001:000177b5
   334 0001:000177d2   336 0001:000177d4   337 0001:000177dc   338 0001:000177e2
   339 0001:000177eb   340 0001:0001782b   342 0001:00017830   343 0001:0001784d
   344 0001:00017856   324 0001:00017867   325 0001:00017872   327 0001:0001787a
   328 0001:000178bd   329 0001:000178c3   330 0001:000178d2   331 0001:000178db
   332 0001:000178e4   333 0001:0001790f   332 0001:00017914   333 0001:0001791f
   332 0001:00017924   333 0001:00017929   346 0001:0001792e   347 0001:00017938
   349 0001:00017941   350 0001:00017982   351 0001:00017987   352 0001:00017996
   353 0001:0001799f   354 0001:000179a7   356 0001:000179e7   357 0001:000179ed
   359 0001:000179f7   360 0001:00017a01   361 0001:00017a04   444 0001:00017a20
   445 0001:00017a34   446 0001:00017a3f   448 0001:00017a41   132 0001:00017a60
   134 0001:00017a7f   133 0001:00017a8c   134 0001:00017aab   261 0001:00017ac0
   262 0001:00017acb   264 0001:00017ad8   265 0001:00017ae0   266 0001:00017aef
   268 0001:00017af5   269 0001:00017af7   270 0001:00017b0f   271 0001:00017b19
   272 0001:00017b21   273 0001:00017b26   274 0001:00017b2a   275 0001:00017b30
   276 0001:00017b33   277 0001:00017b35   278 0001:00017b3b   279 0001:00017b40
   280 0001:00017b45   281 0001:00017b4a   282 0001:00017b56   283 0001:00017b59
   284 0001:00017b62   285 0001:00017b64   286 0001:00017b66   287 0001:00017b69
   289 0001:00017b6c   290 0001:00017b7f   291 0001:00017b86   292 0001:00017b89
   293 0001:00017b98   294 0001:00017b9b   295 0001:00017ba4   296 0001:00017ba6
   297 0001:00017ba8   298 0001:00017bab   300 0001:00017bb6   301 0001:00017bc0
   302 0001:00017bc5   303 0001:00017bc7   304 0001:00017be3   306 0001:00017beb
   307 0001:00017bf7   308 0001:00017bfa   309 0001:00017bfc   290 0001:00017c11
   310 0001:00017c15   311 0001:00017c25   312 0001:00017c3c   313 0001:00017c45
   314 0001:00017c48   315 0001:00017c4d   316 0001:00017c50   317 0001:00017c56
   318 0001:00017c94   320 0001:00017c9a   334 0001:00017cb1   336 0001:00017cb3
   337 0001:00017cb8   338 0001:00017cbb   339 0001:00017cc1   340 0001:00017d01
   342 0001:00017d06   343 0001:00017d1d   344 0001:00017d23   324 0001:00017d34
   325 0001:00017d3c   327 0001:00017d41   328 0001:00017d81   329 0001:00017d87
   330 0001:00017d90   331 0001:00017d96   332 0001:00017d9c   333 0001:00017dc7
   332 0001:00017dcc   333 0001:00017dd7   332 0001:00017ddc   333 0001:00017de1
   346 0001:00017de6   347 0001:00017ded   349 0001:00017df3   350 0001:00017e31
   351 0001:00017e36   352 0001:00017e3f   353 0001:00017e45   354 0001:00017e4a
   356 0001:00017e8a   357 0001:00017e8d   359 0001:00017e97   360 0001:00017ea1
   361 0001:00017ea4   444 0001:00017ec0   445 0001:00017ed4   446 0001:00017edf
   448 0001:00017ee1   520 0001:00017f00   132 0001:00017f10   134 0001:00017f2f
   133 0001:00017f3c   134 0001:00017f5b   542 0001:00017f70   543 0001:00017f80
   544 0001:00017f88    42 0001:00017f90    44 0001:00017fa0   143 0001:00017fb0
   103 0001:00017fd0   104 0001:00017fe0   110 0001:00017ff1   107 0001:00017ff2
   108 0001:00017ffc   109 0001:00018008   110 0001:0001800f   103 0001:00018020
   104 0001:00018030   110 0001:00018041   107 0001:00018042   108 0001:0001804c
   109 0001:00018058   110 0001:0001805f

Line numbers for .\Release\GameDataSet.obj(F:\cygwin\home\Administrator\Projects\C3Engine_Windows_GL2\GraphicData\GameDataSetX.h) segment .text

   135 0001:000084a0   136 0001:000084c0   462 0001:000084e0   468 0001:00008580
   470 0001:00008583   473 0001:00008590   474 0001:00008593   475 0001:000085a6
   501 0001:000085b0   503 0001:000085b6

Line numbers for .\Release\GameDataSet.obj(../include\C3Lock.h) segment .text

    15 0001:00008480    17 0001:00008487    37 0001:00008490

Line numbers for .\Release\GameDataSet.obj(F:\cygwin\home\Administrator\Projects\C3Engine_Windows_GL2\GraphicData\GameDataSet.cpp) segment .text

    14 0001:00000000    17 0001:00000007    20 0001:00000009    22 0001:00000026
    20 0001:00000027    22 0001:0000002e    25 0001:00000030    27 0001:00000056
    32 0001:00000060    33 0001:000005c3    36 0001:00001a40    37 0001:00001a84
    38 0001:00001a89    41 0001:00002040    52 0001:0000204e    54 0001:0000208e
    55 0001:0000209c   117 0001:000020a2    59 0001:000020a5    62 0001:000020ad
    66 0001:000020c7    68 0001:000020dc    69 0001:000020e2    72 0001:000020e5
    73 0001:00002101    74 0001:00002114    86 0001:00002127    89 0001:0000212e
    91 0001:00002135    93 0001:0000213c    94 0001:00002143    95 0001:0000214a
    96 0001:00002151    97 0001:00002158    98 0001:0000215f   101 0001:00002166
   105 0001:00002172   106 0001:00002178   107 0001:00002187   108 0001:000021a1
   109 0001:000021b4   111 0001:000021c1   112 0001:000021d5   113 0001:000021e8
   115 0001:000021f5   116 0001:00002208   117 0001:0000220e   120 0001:00002220
   122 0001:00002222   125 0001:00002230   127 0001:00002239   129 0001:00002275
   130 0001:00002277   132 0001:000022c7   135 0001:00002314   137 0001:00002338
   138 0001:0000233c   139 0001:00002345   142 0001:00002347   144 0001:00002350
   147 0001:00002357   149 0001:0000235c   152 0001:00002363   154 0001:00002368
   157 0001:0000236f   159 0001:00002374   162 0001:0000237b   164 0001:00002380
   165 0001:00002387   167 0001:00002391   171 0001:0000239f   173 0001:000023a4
   176 0001:000023ab   178 0001:000023b0   179 0001:000023b7   182 0001:000023be
   184 0001:000023c3   186 0001:000023dd   188 0001:000023f1   189 0001:000023f8
   193 0001:000023ff   195 0001:00002404   196 0001:0000241e   199 0001:00002432
   201 0001:00002437   202 0001:00002451   205 0001:00002465   207 0001:0000246e
   208 0001:00002482   209 0001:00002496   210 0001:00002541   213 0001:00002548
   215 0001:0000254d   216 0001:00002553   222 0001:00002561   225 0001:00002570
   250 0001:00002583   228 0001:00002589   229 0001:00002593   250 0001:0000259b
   231 0001:000025a1   234 0001:000025b9   235 0001:000025cd   237 0001:000025db
   238 0001:00002601   242 0001:00002612   243 0001:00002623   245 0001:00002631
   246 0001:00002657   249 0001:00002682   250 0001:00002685   263 0001:00002690
   267 0001:000026c2   268 0001:000026f9   269 0001:0000273a   271 0001:00002744
   272 0001:00002762   274 0001:00002771   275 0001:00002774   265 0001:0000277b
   275 0001:0000277e   278 0001:00002790   279 0001:00002798   280 0001:000027a5
   282 0001:000027af   285 0001:000027c1   286 0001:000027d5   288 0001:000027e3
   289 0001:00002809   293 0001:0000281a   294 0001:0000282b   296 0001:00002839
   297 0001:0000285f   325 0001:0000288a   326 0001:0000288d   303 0001:00002893
   304 0001:0000289b   326 0001:000028a9   306 0001:000028af   309 0001:000028c1
   310 0001:000028d7   312 0001:000028e5   313 0001:0000290b   317 0001:00002918
   318 0001:00002950   320 0001:0000295a   321 0001:00002978   325 0001:000029a7
   326 0001:000029aa   329 0001:000029b0   330 0001:000029b3   331 0001:000029f5
   333 0001:000029ff   334 0001:00002a1d   335 0001:00002a2c   338 0001:00002a2f
   337 0001:00002a37   338 0001:00002a3a   341 0001:00002a40   342 0001:00002a43
   343 0001:00002a5b   346 0001:00002a72   347 0001:00002a86   349 0001:00002a94
   350 0001:00002aba   354 0001:00002acb   355 0001:00002adc   357 0001:00002aea
   358 0001:00002b10   361 0001:00002b3b   362 0001:00002b3e   361 0001:00002b45
   362 0001:00002b48   365 0001:00002b50   366 0001:00002b68   367 0001:00002bd0
   369 0001:00002be2   370 0001:00002be5   371 0001:00002c27   373 0001:00002c2b
   374 0001:00002c45   376 0001:00002c52   377 0001:00002c54   380 0001:00002c70
   381 0001:00002c73   382 0001:00002cb5   384 0001:00002cbf   385 0001:00002cdd
   387 0001:00002cec   388 0001:00002cef   391 0001:00002d00   393 0001:00002d0a
   396 0001:00002d10   399 0001:00002d19   401 0001:00002d1e   402 0001:00002d25
   404 0001:00002d2c   405 0001:00002d33   406 0001:00002d3a   409 0001:00002d41
   410 0001:00002d48   413 0001:00002d4f   414 0001:00002d68   416 0001:00002d8b
   417 0001:00002d8d   418 0001:00002da7   420 0001:00002ddd   422 0001:00002e2a
   423 0001:00002e43   425 0001:00002e66   426 0001:00002e68   427 0001:00002e82
   429 0001:00002eb8   432 0001:00002f05   433 0001:00002f1b   435 0001:00002f2f
   438 0001:00002f36   439 0001:00002f40   442 0001:00002f47   444 0001:00002f68
   446 0001:00002f76   450 0001:00002fa2   451 0001:00002fb3   454 0001:00002fc0
   455 0001:00002fc4   458 0001:00002fe0   461 0001:00002fe5   464 0001:00002fee
   466 0001:00002ff7   468 0001:00003018   470 0001:0000304a   472 0001:0000304c
   473 0001:00003058   474 0001:0000305f   475 0001:00003066   476 0001:0000306d
   477 0001:00003074   479 0001:0000307d   482 0001:00003080   485 0001:00003095
   487 0001:000030a8   488 0001:000030ae   492 0001:000030e0   493 0001:000030ee
   495 0001:000030f2   497 0001:000030fa   499 0001:00003130   503 0001:0000317d
   505 0001:00003190   506 0001:00003196   510 0001:000031c8   511 0001:000031d6
   513 0001:000031da   515 0001:000031e2   517 0001:00003218   519 0001:000034a5
   522 0001:000034b0   525 0001:000034bb   529 0001:000034ca   530 0001:000034d5
   532 0001:000034d9   539 0001:000034e3   543 0001:000034f2   544 0001:000034fd
   546 0001:00003501   551 0001:0000350c   554 0001:00003510   556 0001:0000352a
   559 0001:00003548   561 0001:0000354f   562 0001:00003572   564 0001:00003583
   565 0001:00003586   567 0001:0000358a   568 0001:00003593   571 0001:0000359a
   574 0001:000035a1   575 0001:000035a9   577 0001:000035af   580 0001:000035b1
   583 0001:000035b5   585 0001:000035b7   589 0001:000035bd   591 0001:000035bf
   594 0001:000035ca   596 0001:000035d9   600 0001:000035de   602 0001:000035e5
   603 0001:00003608   605 0001:00003619   606 0001:0000361c   608 0001:00003620
   609 0001:00003629   612 0001:00003630   615 0001:00003637   627 0001:0000363f
   628 0001:00003645   632 0001:0000364b   634 0001:0000364d   637 0001:00003658
   639 0001:00003667   643 0001:0000366c   645 0001:00003673   646 0001:00003696
   648 0001:000036a7   649 0001:000036aa   651 0001:000036ae   652 0001:000036b7
   655 0001:000036be   658 0001:000036c5   669 0001:000036cd   673 0001:000036d3
   675 0001:000036d5   678 0001:000036e0   680 0001:00003714   684 0001:00003719
   686 0001:00003724   687 0001:0000372b   688 0001:0000382b   689 0001:0000384b
   691 0001:00003856   692 0001:00003859   694 0001:0000385d   695 0001:00003866
   698 0001:0000386d   701 0001:00003874   702 0001:0000387e   704 0001:00003884
   707 0001:00003886   710 0001:0000388b   717 0001:0000388d   720 0001:00003892
   722 0001:00003894   725 0001:000038a1   727 0001:000038f6   731 0001:000038fb
   732 0001:00003944   734 0001:0000394e   735 0001:00003951   737 0001:00003957
   738 0001:00003960   741 0001:00003965   743 0001:00003972   745 0001:00003974
   749 0001:00003977   751 0001:00003979   753 0001:00003986   759 0001:000039ca
   760 0001:00003a13   762 0001:00003a1d   763 0001:00003a20   765 0001:00003a26
   766 0001:00003a2f   769 0001:00003a36   771 0001:00003a41   773 0001:00003a43
   774 0001:00003a46   778 0001:00003a4d   780 0001:00003a4f   783 0001:00003a5c
   787 0001:00003afb   790 0001:00003b30   791 0001:00003b4c   794 0001:00003b85
   795 0001:00003bb3   797 0001:00003bbb   799 0001:00003bcd   802 0001:00003bd5
   803 0001:00003bec   805 0001:00003bfa   806 0001:00003bfd   808 0001:00003c01
   810 0001:00003c09   812 0001:00003c13   813 0001:00003c1a   817 0001:00003c1f
   819 0001:00003c26   847 0001:00003c2a   821 0001:00003c35   827 0001:00003c3a
   829 0001:00003c49   830 0001:00003c52   831 0001:00003c59   847 0001:00003c67
   852 0001:00003c6f   854 0001:00003c75   857 0001:00003c79   858 0001:00003ca3
   859 0001:00003ca7   860 0001:00003cac   861 0001:00003cb2   862 0001:00003cbc
   864 0001:00003cf0   865 0001:00003d8b   867 0001:00003dfd   869 0001:00003e08
   882 0001:00003e4c   869 0001:00003e54   882 0001:00003e65   869 0001:00003e6d
   882 0001:00003e92   873 0001:00003e9a   874 0001:00003eae   877 0001:00003eb6
   878 0001:00003eb9   879 0001:00003ec0   882 0001:00003f1b   792 0001:00003f20
   883 0001:00003f22   886 0001:00003f40   888 0001:00003f48   890 0001:00003f57
   891 0001:00003f74   893 0001:00003fab   894 0001:0000400a   893 0001:0000400e
   894 0001:00004035   897 0001:00004040   899 0001:00004048   901 0001:00004057
   902 0001:00004074   904 0001:000040ab   905 0001:00004114   904 0001:00004118
   905 0001:0000413f   908 0001:00004150   910 0001:00004156   912 0001:0000416a
   913 0001:0000418e   915 0001:000041c8   916 0001:00004230   915 0001:00004234
   916 0001:0000425b   919 0001:00004260   920 0001:00004262   921 0001:00004266
   923 0001:00004277   924 0001:0000429b   926 0001:000042d2   927 0001:0000432e
   926 0001:00004332   927 0001:00004359   930 0001:00004360   931 0001:00004368
   932 0001:00004370   934 0001:00004374   935 0001:00004377   932 0001:00004394
   937 0001:000043c7   938 0001:00004439   937 0001:0000443d   938 0001:00004464
   941 0001:00004470   943 0001:00004476   945 0001:0000448a   946 0001:000044ae
   948 0001:000044e8   949 0001:00004550   948 0001:00004554   949 0001:0000457b
   952 0001:00004580   954 0001:00004586   956 0001:0000459a   957 0001:000045be
   959 0001:000045f8   960 0001:00004660   959 0001:00004664   960 0001:0000468b
   963 0001:00004690   965 0001:00004696   967 0001:000046aa   968 0001:000046ce
   970 0001:00004708   971 0001:00004770   970 0001:00004774   971 0001:0000479b
   974 0001:000047a0   976 0001:000047a6   978 0001:000047ba   979 0001:000047de
   981 0001:00004818   982 0001:00004880   981 0001:00004884   982 0001:000048ab
   988 0001:000048b0   990 0001:000048b9   993 0001:000048c0   995 0001:000048c9
   998 0001:000048d0  1000 0001:000048d9  1003 0001:000048e0  1005 0001:000048e9
  1008 0001:000048f0  1010 0001:000048f9  1013 0001:00004900  1015 0001:00004909
  1018 0001:00004910  1020 0001:00004919  1023 0001:00004920  1024 0001:0000493d
  1026 0001:00004942  1028 0001:00004958  1031 0001:00004963  1032 0001:00004978
  1034 0001:00004986  1035 0001:00004989  1037 0001:0000498d  1038 0001:00004996
  1040 0001:000049a7  1042 0001:000049ae  1045 0001:000049b3  1047 0001:000049c9
  1054 0001:000049cd  1056 0001:000049d3  1059 0001:000049d7  1062 0001:000049f9
  1063 0001:000049ff  1064 0001:00004a02  1065 0001:00004a05  1066 0001:00004a0b
  1068 0001:00004a19  1070 0001:00004a1c  1072 0001:00004a54  1073 0001:00004aed
  1075 0001:00004b04  1077 0001:00004b0b  1079 0001:00004b47  1077 0001:00004b4c
  1079 0001:00004b59  1077 0001:00004b5e  1079 0001:00004b7f  1081 0001:00004b81
  1082 0001:00004b8f  1084 0001:00004b93  1086 0001:00004b97  1089 0001:00004bf0
  1090 0001:00004bf3  1093 0001:00004c10  1094 0001:00004c2a  1095 0001:00004c39
  1098 0001:00004c40  1099 0001:00004c49  1101 0001:00004c64  1104 0001:00004c6f
  1106 0001:00004c93  1108 0001:00004ca9  1109 0001:00004cb8  1113 0001:00004cbf
  1114 0001:00004cc2  1120 0001:00004ce0  1121 0001:00004cf7  1122 0001:00004d5d
  1125 0001:00004d6b  1128 0001:00004d79  1129 0001:00004d7b  1131 0001:00004d83
  1134 0001:00004d98  1135 0001:00004d9b  1137 0001:00004d9f  1153 0001:00004da7
  1155 0001:00004db9  1157 0001:00004dc5  1142 0001:00004dce  1145 0001:00004dd4
  1147 0001:00004de6  1148 0001:00004de9  1150 0001:00004df3  1157 0001:00004e01
  1158 0001:00004e10  1161 0001:00004e1c  1162 0001:00004e42  1164 0001:00004e50
  1168 0001:00004e5f  1171 0001:00004f16  1172 0001:00004f2c  1174 0001:00004f37
  1175 0001:00004f43  1176 0001:00004f4c  1179 0001:00004f53  1182 0001:00004f64
  1183 0001:00005043  1189 0001:0000504f  1190 0001:00005056  1191 0001:00005161
  1193 0001:00005199  1195 0001:000051a7  1197 0001:000051b0  1215 0001:000051bf
  1224 0001:000051ca  1225 0001:000051ce  1201 0001:000051e3  1202 0001:000051e9
  1205 0001:000051f4  1208 0001:000051fb  1210 0001:0000520d  1211 0001:00005210
  1213 0001:0000521a  1220 0001:00005229  1221 0001:00005238  1228 0001:00005240
  1229 0001:0000525b  1230 0001:00005268  1232 0001:0000526f  1233 0001:0000528c
  1235 0001:0000529a  1236 0001:000052a9  1239 0001:000052b0  1244 0001:000052b3
  1245 0001:000052cb  1246 0001:0000532a  1248 0001:00005338  1249 0001:0000533b
  1251 0001:00005348  1253 0001:00005357  1255 0001:00005363  1256 0001:00005371
  1258 0001:00005379  1261 0001:00005384  1262 0001:000053e3  1265 0001:000053f5
  1266 0001:000053f9  1267 0001:000054dd  1269 0001:00005503  1271 0001:00005505
  1272 0001:0000550d  1273 0001:00005514  1275 0001:00005523  1278 0001:00005536
  1280 0001:0000553c  1281 0001:0000554b  1284 0001:0000554f  1285 0001:00005553
  1346 0001:00005570  1350 0001:00005582  1351 0001:00005585  1353 0001:00005587
  1354 0001:00005592  1356 0001:00005596  1348 0001:000055a6  1360 0001:000055aa
  1363 0001:000055b0  1366 0001:000055d7  1367 0001:0000560f  1369 0001:00005619
  1370 0001:0000561c  1372 0001:00005620  1373 0001:00005629  1378 0001:0000562d
  1377 0001:00005634  1378 0001:00005637  1381 0001:00005640  1382 0001:00005658
  1384 0001:0000565c  1386 0001:00005678  1389 0001:00005683  1393 0001:000056a5
  1394 0001:0000577a  1395 0001:0000578e  1397 0001:00005799  1398 0001:0000579c
  1400 0001:000057a0  1401 0001:000057a9  1403 0001:000057be  1405 0001:000057d0
  1408 0001:000057d3  1411 0001:000057d8  1413 0001:000057fc  1416 0001:00005807
  1418 0001:0000580d  1421 0001:00005814  1426 0001:0000583a  1427 0001:0000584d
  1428 0001:00005850  1429 0001:00005856  1431 0001:00005867  1433 0001:0000586a
  1435 0001:000058ac  1436 0001:0000598a  1438 0001:0000599e  1440 0001:000059a8
  1451 0001:000059e8  1440 0001:000059ed  1451 0001:00005a12  1444 0001:00005a17
  1445 0001:00005a25  1447 0001:00005a29  1448 0001:00005a2c  1451 0001:00005a3f
  1390 0001:00005a44  1452 0001:00005a46  1455 0001:00005a60  1460 0001:00005a7e
  1463 0001:00005aa3  1464 0001:00005ab8  1466 0001:00005ac6  1467 0001:00005ac9
  1469 0001:00005acd  1470 0001:00005ad6  1472 0001:00005ae7  1474 0001:00005af6
  1477 0001:00005af9  1480 0001:00005afe  1482 0001:00005b14  1485 0001:00005b18
  1487 0001:00005b1e  1490 0001:00005b22  1495 0001:00005b46  1496 0001:00005b4a
  1497 0001:00005b50  1498 0001:00005b56  1500 0001:00005b64  1502 0001:00005b67
  1504 0001:00005b9f  1505 0001:00005c38  1507 0001:00005c4f  1509 0001:00005c56
  1511 0001:00005c92  1509 0001:00005c97  1511 0001:00005ca4  1509 0001:00005ca9
  1511 0001:00005cca  1513 0001:00005ccc  1514 0001:00005cda  1516 0001:00005cde
  1517 0001:00005ce2  1520 0001:00005d31  1521 0001:00005d34  1524 0001:00005d50
  1529 0001:00005d6e  1532 0001:00005d93  1533 0001:00005da8  1535 0001:00005db6
  1536 0001:00005db9  1538 0001:00005dbd  1539 0001:00005dc6  1541 0001:00005dd7
  1543 0001:00005de6  1546 0001:00005de9  1550 0001:00005dee  1552 0001:00005e04
  1555 0001:00005e08  1557 0001:00005e0e  1560 0001:00005e12  1565 0001:00005e36
  1566 0001:00005e3a  1567 0001:00005e40  1568 0001:00005e46  1570 0001:00005e54
  1572 0001:00005e57  1574 0001:00005e8f  1575 0001:00005f30  1577 0001:00005f47
  1579 0001:00005f4e  1581 0001:00005f8a  1579 0001:00005f8f  1581 0001:00005f9c
  1579 0001:00005fa1  1581 0001:00005fc2  1583 0001:00005fc4  1584 0001:00005fd2
  1586 0001:00005fd6  1587 0001:00005fda  1590 0001:00006029  1591 0001:0000602c
  1594 0001:00006050  1599 0001:0000606e  1602 0001:00006093  1603 0001:000060a8
  1605 0001:000060b6  1606 0001:000060b9  1608 0001:000060bd  1609 0001:000060c6
  1611 0001:000060d7  1613 0001:000060e6  1617 0001:000060e9  1621 0001:000060ee
  1623 0001:00006104  1626 0001:00006108  1628 0001:0000610e  1631 0001:00006112
  1637 0001:00006136  1638 0001:0000613a  1639 0001:00006140  1640 0001:00006146
  1642 0001:00006154  1644 0001:00006157  1646 0001:0000618f  1634 0001:0000622e
  1646 0001:00006235  1647 0001:00006237  1649 0001:0000624c  1651 0001:00006288
  1649 0001:0000628d  1651 0001:0000629a  1649 0001:0000629f  1651 0001:000062c0
  1653 0001:000062c2  1654 0001:000062ce  1656 0001:000062d6  1657 0001:000062dc
  1660 0001:00006331  1661 0001:00006334  1664 0001:00006350  1665 0001:0000635e
  1672 0001:0000638a  1673 0001:00006391  1674 0001:000063ec  1675 0001:000063f5
  1680 0001:000063fb  1681 0001:0000640f  1682 0001:0000641b  1686 0001:00006421
  1687 0001:00006435  1688 0001:0000643e  1692 0001:00006444  1709 0001:0000652a
  1666 0001:00006555  1711 0001:00006557  1714 0001:00006570  1715 0001:0000658a
  1716 0001:0000659c  1719 0001:000065a3  1724 0001:000065af  1725 0001:000065c0
  1726 0001:0000661a  1729 0001:00006628  1730 0001:0000662b  1732 0001:00006633
  1733 0001:00006635  1735 0001:00006639  1738 0001:00006641  1740 0001:00006643
  1743 0001:0000664c  1745 0001:0000665f  1747 0001:00006667  1748 0001:00006678
  1751 0001:00006680  1752 0001:00006694  1753 0001:000066f3  1757 0001:00006705
  1758 0001:000067f0  1760 0001:00006816  1762 0001:00006818  1763 0001:0000681e
  1764 0001:00006825  1766 0001:0000682e  1769 0001:00006841  1771 0001:00006843
  1774 0001:00006854  1776 0001:00006858  1777 0001:00006867  1780 0001:0000686b
  1781 0001:0000686d  1784 0001:00006890  1785 0001:000068aa  1786 0001:000068ba
  1788 0001:000068c1  1789 0001:000068ca  1790 0001:000068e8  1793 0001:000068f6
  1794 0001:0000691a  1796 0001:00006936  1797 0001:00006945  1801 0001:0000694c
  1802 0001:0000694f  1807 0001:0000696d  1808 0001:0000697e  1809 0001:000069e4
  1811 0001:000069f2  1813 0001:000069f5  1816 0001:00006a00  1817 0001:00006a02
  1819 0001:00006a06  1822 0001:00006a0d  1825 0001:00006a0f  1828 0001:00006a18
  1830 0001:00006a2b  1832 0001:00006a33  1833 0001:00006a3f  1835 0001:00006a47
  1838 0001:00006a58  1839 0001:00006af8  1843 0001:00006b0d  1844 0001:00006c1c
  1846 0001:00006c57  1848 0001:00006c59  1849 0001:00006c5f  1850 0001:00006c69
  1852 0001:00006c72  1855 0001:00006c85  1857 0001:00006c89  1858 0001:00006c98
  1862 0001:00006c9c  1863 0001:00006c9e  1866 0001:00006cc0  1867 0001:00006cda
  1868 0001:00006cea  1870 0001:00006cf1  1871 0001:00006cfa  1872 0001:00006d18
  1875 0001:00006d26  1876 0001:00006d4a  1878 0001:00006d66  1879 0001:00006d75
  1883 0001:00006d7c  1889 0001:00006d7f  1892 0001:00006d92  1893 0001:00006df7
  1895 0001:00006e05  1896 0001:00006e08  1899 0001:00006e13  1900 0001:00006e15
  1902 0001:00006e19  1905 0001:00006e24  1907 0001:00006e26  1910 0001:00006e2f
  1912 0001:00006e42  1914 0001:00006e4a  1915 0001:00006e56  1917 0001:00006e5e
  1920 0001:00006e6f  1921 0001:00006f0f  1925 0001:00006f24  1926 0001:0000701e
  1928 0001:00007059  1930 0001:0000705b  1931 0001:00007061  1932 0001:00007068
  1934 0001:00007075  1937 0001:00007088  1939 0001:0000708c  1940 0001:0000709b
  1943 0001:0000709f  1944 0001:000070a1  1947 0001:000070c0  1948 0001:000070c5
  1949 0001:000070cd  1951 0001:000070dd  1953 0001:000070e0  1954 0001:000070e2
  1956 0001:000070e6  1958 0001:000070e8  1960 0001:000070fc  1963 0001:00007104
  1965 0001:0000710a  1968 0001:0000710c  1973 0001:00007122  1975 0001:00007126
  1976 0001:00007140  1978 0001:00007185  1980 0001:0000718d  1983 0001:000071cf
  1986 0001:000071e0  1987 0001:000071e5  1988 0001:000071ed  1990 0001:000071fd
  1991 0001:00007200  1993 0001:00007202  1995 0001:00007206  1997 0001:00007208
  2001 0001:00007224  2003 0001:00007245  2006 0001:0000724d  2011 0001:00007251
  2013 0001:00007257  2014 0001:00007271  2016 0001:000072b6  2018 0001:000072be
  2021 0001:00007300  2024 0001:00007310  2025 0001:00007312  2026 0001:00007320
  2028 0001:0000732a  2029 0001:0000732d  2031 0001:0000732f  2035 0001:00007331
  2039 0001:00007351  2041 0001:0000736c  2044 0001:0000736e  2046 0001:00007374
  2049 0001:00007376  2055 0001:00007386  2057 0001:0000738a  2058 0001:0000739e
  2060 0001:000073e5  2062 0001:000073e7  2065 0001:0000742c  2068 0001:00007430
  2069 0001:00007434  2070 0001:0000743c  2072 0001:00007440  2073 0001:00007443
  2070 0001:00007460  2075 0001:0000748d  2078 0001:00007490  2079 0001:00007495
  2080 0001:0000749d  2082 0001:000074ad  2083 0001:000074b0  2084 0001:000074b2
  2086 0001:000074b6  2088 0001:000074b8  2092 0001:000074d4  2094 0001:000074f5
  2097 0001:000074fd  2102 0001:00007501  2104 0001:00007507  2105 0001:00007521
  2107 0001:00007566  2109 0001:0000756e  2112 0001:000075b0  2115 0001:000075c0
  2116 0001:000075c5  2117 0001:000075cd  2119 0001:000075dd  2120 0001:000075e0
  2121 0001:000075e2  2123 0001:000075e6  2125 0001:000075e8  2129 0001:00007604
  2131 0001:00007625  2134 0001:0000762d  2139 0001:00007631  2141 0001:00007637
  2142 0001:00007651  2144 0001:00007696  2146 0001:0000769e  2149 0001:000076e0
  2152 0001:000076f0  2153 0001:000076f5  2154 0001:000076fd  2156 0001:0000770d
  2158 0001:00007710  2159 0001:00007712  2161 0001:00007716  2163 0001:00007718
  2167 0001:00007734  2169 0001:00007755  2172 0001:0000775d  2177 0001:00007761
  2180 0001:00007767  2181 0001:00007781  2183 0001:000077c6  2185 0001:000077ce
  2188 0001:00007810  2191 0001:00007820  2193 0001:00007822  2196 0001:00007830
  2201 0001:0000783a  2209 0001:00007841  2201 0001:00007844  2209 0001:00007846
  2249 0001:00007850  2250 0001:0000786a  2252 0001:0000787a  2253 0001:0000788b
  2254 0001:000078a8  2256 0001:000078b6  2257 0001:000078ca  2258 0001:000078cb
  2261 0001:000078d0  2262 0001:000078d3  2263 0001:000078f3  2264 0001:00007982
  2266 0001:00007990  2267 0001:00007993  2269 0001:000079b4  2272 0001:000079ca
  2274 0001:000079d3  2275 0001:000079e6  2276 0001:000079f7  2286 0001:00007a02
  2288 0001:00007a09  2291 0001:00007a0d  2292 0001:00007a18  2293 0001:00007a1a
  2296 0001:00007a30  2297 0001:00007a4b  2299 0001:00007a59  2300 0001:00007a6a
  2301 0001:00007a87  2303 0001:00007a95  2304 0001:00007a9c  2305 0001:00007aaa
  2308 0001:00007aaf  2309 0001:00007ab2  2310 0001:00007ace  2311 0001:00007b54
  2314 0001:00007b63  2316 0001:00007b6f  2317 0001:00007b72  2318 0001:00007b83
  2319 0001:00007b96  2321 0001:00007ba1  2322 0001:00007ba9  2323 0001:00007bb5
  2328 0001:00007bb8  2326 0001:00007bc9  2328 0001:00007bd4  2331 0001:00007bf0
  2332 0001:00007c0b  2334 0001:00007c19  2335 0001:00007c2a  2336 0001:00007c47
  2338 0001:00007c55  2339 0001:00007c5c  2340 0001:00007c6a  2343 0001:00007c6f
  2344 0001:00007c72  2345 0001:00007c8e  2346 0001:00007d14  2349 0001:00007d23
  2351 0001:00007d2c  2352 0001:00007d3d  2353 0001:00007d50  2354 0001:00007d5b
  2355 0001:00007d65  2360 0001:00007d68  2358 0001:00007d79  2360 0001:00007d84
  2363 0001:00007da0  2364 0001:00007dbb  2366 0001:00007dc9  2368 0001:00007dda
  2369 0001:00007df7  2371 0001:00007e05  2372 0001:00007e0c  2373 0001:00007e1a
  2376 0001:00007e1f  2377 0001:00007e22  2378 0001:00007e3e  2379 0001:00007ec4
  2382 0001:00007ed3  2384 0001:00007edc  2385 0001:00007eed  2386 0001:00007f00
  2387 0001:00007f0b  2388 0001:00007f15  2394 0001:00007f18  2392 0001:00007f29
  2394 0001:00007f34  2398 0001:00007f50  2399 0001:00007f6b  2401 0001:00007f79
  2402 0001:00007f8a  2403 0001:00007fa7  2405 0001:00007fb5  2406 0001:00007fbc
  2407 0001:00007fca  2410 0001:00007fcf  2411 0001:00007fd2  2412 0001:00007fee
  2413 0001:00008074  2416 0001:00008083  2418 0001:0000808c  2419 0001:0000809d
  2420 0001:000080b0  2421 0001:000080bb  2422 0001:000080c5  2427 0001:000080c8
  2425 0001:000080d9  2427 0001:000080e4  2430 0001:00008100  2432 0001:00008108
  2436 0001:0000810a  2434 0001:0000810d  2435 0001:00008111  2436 0001:00008113
  2440 0001:00008120  2441 0001:00008123  2442 0001:00008132  2443 0001:00008137
  2444 0001:0000813b  2447 0001:00008140  2448 0001:00008143  2449 0001:00008154
  2450 0001:0000815c  2453 0001:00008160  2454 0001:00008163  2455 0001:00008172
  2456 0001:0000817a  2459 0001:00008180  2460 0001:00008183  2461 0001:00008192
  2462 0001:0000819a  2466 0001:000081a0  2467 0001:000081a3  2468 0001:000081b2
  2469 0001:000081ba  2472 0001:000081c0  2475 0001:000081c3  2476 0001:000081d6
  2479 0001:000081e0  2481 0001:000081e4  2482 0001:000081f8  2483 0001:00008205
  2485 0001:0000820e  2491 0001:00008216  2489 0001:00008219  2491 0001:00008229
  2494 0001:00008230  2495 0001:00008233  2497 0001:00008241  2503 0001:00008249
  2501 0001:0000824a  2503 0001:00008252  2506 0001:00008260  2514 0001:00008270
  2517 0001:00008294  2518 0001:000082a6  2520 0001:000082aa  2521 0001:000082b1
  2527 0001:000082c9  2530 0001:000082dc  2559 0001:000082f7  2535 0001:000082f8
  2559 0001:00008313  2540 0001:00008314  2559 0001:00008340  2545 0001:00008341
  2559 0001:00008360  2550 0001:00008361  2559 0001:00008374  2555 0001:00008375
  2559 0001:0000839e  2562 0001:000083c0  2563 0001:000083c5  2564 0001:000083cb
  2567 0001:000083de  2569 0001:000083f0  2570 0001:000083f3  2572 0001:000083f7
  2567 0001:0000840f  2564 0001:00008436  2576 0001:00008450  2579 0001:00008460
  2581 0001:00008479  2580 0001:0000847a  2581 0001:0000847c

 2512 bytes saved through ICF

